Archive member included to satisfy reference by file (symbol)

/usr/lib/gcc-cross/arm-linux-gnueabihf/14/../../../../arm-linux-gnueabihf/lib/libc.a(libc-start.o)
                              /usr/lib/gcc-cross/arm-linux-gnueabihf/14/../../../../arm-linux-gnueabihf/lib/crt1.o (__libc_start_main)
/usr/lib/gcc-cross/arm-linux-gnueabihf/14/../../../../arm-linux-gnueabihf/lib/libc.a(libc-tls.o)
                              /usr/lib/gcc-cross/arm-linux-gnueabihf/14/../../../../arm-linux-gnueabihf/lib/libc.a(libc-start.o) (__libc_setup_tls)
/usr/lib/gcc-cross/arm-linux-gnueabihf/14/../../../../arm-linux-gnueabihf/lib/libc.a(libc-do-syscall.o)
                              /usr/lib/gcc-cross/arm-linux-gnueabihf/14/../../../../arm-linux-gnueabihf/lib/libc.a(libc-start.o) (__libc_do_syscall)
/usr/lib/gcc-cross/arm-linux-gnueabihf/14/../../../../arm-linux-gnueabihf/lib/libc.a(errno-loc.o)
                              build/m_misc.o (__errno_location)
/usr/lib/gcc-cross/arm-linux-gnueabihf/14/../../../../arm-linux-gnueabihf/lib/libc.a(ctype.o)
                              build/f_finale.o (toupper)
/usr/lib/gcc-cross/arm-linux-gnueabihf/14/../../../../arm-linux-gnueabihf/lib/libc.a(ctype-info.o)
                              build/d_main.o (__ctype_b_loc)
/usr/lib/gcc-cross/arm-linux-gnueabihf/14/../../../../arm-linux-gnueabihf/lib/libc.a(bsd-_setjmp.o)
                              /usr/lib/gcc-cross/arm-linux-gnueabihf/14/../../../../arm-linux-gnueabihf/lib/libc.a(libc-start.o) (_setjmp)
/usr/lib/gcc-cross/arm-linux-gnueabihf/14/../../../../arm-linux-gnueabihf/lib/libc.a(abort.o)
                              /usr/lib/gcc-cross/arm-linux-gnueabihf/14/../../../../arm-linux-gnueabihf/lib/crt1.o (abort)
/usr/lib/gcc-cross/arm-linux-gnueabihf/14/../../../../arm-linux-gnueabihf/lib/libc.a(atof.o)
                              build/m_config.o (atof)
/usr/lib/gcc-cross/arm-linux-gnueabihf/14/../../../../arm-linux-gnueabihf/lib/libc.a(atoi.o)
                              build/i_video_fbdev.o (atoi)
/usr/lib/gcc-cross/arm-linux-gnueabihf/14/../../../../arm-linux-gnueabihf/lib/libc.a(cxa_atexit.o)
                              /usr/lib/gcc-cross/arm-linux-gnueabihf/14/../../../../arm-linux-gnueabihf/lib/libc.a(libc-start.o) (__cxa_atexit)
/usr/lib/gcc-cross/arm-linux-gnueabihf/14/../../../../arm-linux-gnueabihf/lib/libc.a(exit.o)
                              build/i_video_fbdev.o (exit)
/usr/lib/gcc-cross/arm-linux-gnueabihf/14/../../../../arm-linux-gnueabihf/lib/libc.a(strtod.o)
                              /usr/lib/gcc-cross/arm-linux-gnueabihf/14/../../../../arm-linux-gnueabihf/lib/libc.a(atof.o) (strtod)
/usr/lib/gcc-cross/arm-linux-gnueabihf/14/../../../../arm-linux-gnueabihf/lib/libc.a(strtod_l.o)
                              /usr/lib/gcc-cross/arm-linux-gnueabihf/14/../../../../arm-linux-gnueabihf/lib/libc.a(strtod.o) (____strtod_l_internal)
/usr/lib/gcc-cross/arm-linux-gnueabihf/14/../../../../arm-linux-gnueabihf/lib/libc.a(strtod_nan.o)
                              /usr/lib/gcc-cross/arm-linux-gnueabihf/14/../../../../arm-linux-gnueabihf/lib/libc.a(strtod_l.o) (__strtod_nan)
/usr/lib/gcc-cross/arm-linux-gnueabihf/14/../../../../arm-linux-gnueabihf/lib/libc.a(strtol.o)
                              /usr/lib/gcc-cross/arm-linux-gnueabihf/14/../../../../arm-linux-gnueabihf/lib/libc.a(atoi.o) (__isoc23_strtol)
/usr/lib/gcc-cross/arm-linux-gnueabihf/14/../../../../arm-linux-gnueabihf/lib/libc.a(strtol_l.o)
                              /usr/lib/gcc-cross/arm-linux-gnueabihf/14/../../../../arm-linux-gnueabihf/lib/libc.a(strtol.o) (____strtol_l_internal)
/usr/lib/gcc-cross/arm-linux-gnueabihf/14/../../../../arm-linux-gnueabihf/lib/libc.a(strtoull_l.o)
                              /usr/lib/gcc-cross/arm-linux-gnueabihf/14/../../../../arm-linux-gnueabihf/lib/libc.a(strtod_nan.o) (____strtoull_l_internal)
/usr/lib/gcc-cross/arm-linux-gnueabihf/14/../../../../arm-linux-gnueabihf/lib/libc.a(system.o)
                              build/i_system.o (system)
/usr/lib/gcc-cross/arm-linux-gnueabihf/14/../../../../arm-linux-gnueabihf/lib/libc.a(add_n.o)
                              /usr/lib/gcc-cross/arm-linux-gnueabihf/14/../../../../arm-linux-gnueabihf/lib/libc.a(strtod_l.o) (__mpn_add_n)
/usr/lib/gcc-cross/arm-linux-gnueabihf/14/../../../../arm-linux-gnueabihf/lib/libc.a(cmp.o)
                              /usr/lib/gcc-cross/arm-linux-gnueabihf/14/../../../../arm-linux-gnueabihf/lib/libc.a(strtod_l.o) (__mpn_cmp)
/usr/lib/gcc-cross/arm-linux-gnueabihf/14/../../../../arm-linux-gnueabihf/lib/libc.a(lshift.o)
                              /usr/lib/gcc-cross/arm-linux-gnueabihf/14/../../../../arm-linux-gnueabihf/lib/libc.a(strtod_l.o) (__mpn_lshift)
/usr/lib/gcc-cross/arm-linux-gnueabihf/14/../../../../arm-linux-gnueabihf/lib/libc.a(mul.o)
                              /usr/lib/gcc-cross/arm-linux-gnueabihf/14/../../../../arm-linux-gnueabihf/lib/libc.a(strtod_l.o) (__mpn_mul)
/usr/lib/gcc-cross/arm-linux-gnueabihf/14/../../../../arm-linux-gnueabihf/lib/libc.a(mul_1.o)
                              /usr/lib/gcc-cross/arm-linux-gnueabihf/14/../../../../arm-linux-gnueabihf/lib/libc.a(strtod_l.o) (__mpn_mul_1)
/usr/lib/gcc-cross/arm-linux-gnueabihf/14/../../../../arm-linux-gnueabihf/lib/libc.a(mul_n.o)
                              /usr/lib/gcc-cross/arm-linux-gnueabihf/14/../../../../arm-linux-gnueabihf/lib/libc.a(mul.o) (__mpn_impn_mul_n)
/usr/lib/gcc-cross/arm-linux-gnueabihf/14/../../../../arm-linux-gnueabihf/lib/libc.a(rshift.o)
                              /usr/lib/gcc-cross/arm-linux-gnueabihf/14/../../../../arm-linux-gnueabihf/lib/libc.a(strtod_l.o) (__mpn_rshift)
/usr/lib/gcc-cross/arm-linux-gnueabihf/14/../../../../arm-linux-gnueabihf/lib/libc.a(sub_n.o)
                              /usr/lib/gcc-cross/arm-linux-gnueabihf/14/../../../../arm-linux-gnueabihf/lib/libc.a(mul_n.o) (__mpn_sub_n)
/usr/lib/gcc-cross/arm-linux-gnueabihf/14/../../../../arm-linux-gnueabihf/lib/libc.a(submul_1.o)
                              /usr/lib/gcc-cross/arm-linux-gnueabihf/14/../../../../arm-linux-gnueabihf/lib/libc.a(strtod_l.o) (__mpn_submul_1)
/usr/lib/gcc-cross/arm-linux-gnueabihf/14/../../../../arm-linux-gnueabihf/lib/libc.a(mpn2dbl.o)
                              /usr/lib/gcc-cross/arm-linux-gnueabihf/14/../../../../arm-linux-gnueabihf/lib/libc.a(strtod_l.o) (__mpn_construct_double)
/usr/lib/gcc-cross/arm-linux-gnueabihf/14/../../../../arm-linux-gnueabihf/lib/libc.a(grouping.o)
                              /usr/lib/gcc-cross/arm-linux-gnueabihf/14/../../../../arm-linux-gnueabihf/lib/libc.a(strtod_l.o) (__correctly_grouped_prefixmb)
/usr/lib/gcc-cross/arm-linux-gnueabihf/14/../../../../arm-linux-gnueabihf/lib/libc.a(tens_in_limb.o)
                              /usr/lib/gcc-cross/arm-linux-gnueabihf/14/../../../../arm-linux-gnueabihf/lib/libc.a(strtod_l.o) (_tens_in_limb)
/usr/lib/gcc-cross/arm-linux-gnueabihf/14/../../../../arm-linux-gnueabihf/lib/libc.a(fpioconst.o)
                              /usr/lib/gcc-cross/arm-linux-gnueabihf/14/../../../../arm-linux-gnueabihf/lib/libc.a(strtod_l.o) (_fpioconst_pow10)
/usr/lib/gcc-cross/arm-linux-gnueabihf/14/../../../../arm-linux-gnueabihf/lib/libc.a(fprintf.o)
                              build/am_map.o (fprintf)
/usr/lib/gcc-cross/arm-linux-gnueabihf/14/../../../../arm-linux-gnueabihf/lib/libc.a(isoc99_sscanf.o)
                              build/m_config.o (__isoc99_sscanf)
/usr/lib/gcc-cross/arm-linux-gnueabihf/14/../../../../arm-linux-gnueabihf/lib/libc.a(printf.o)
                              build/i_video_fbdev.o (printf)
/usr/lib/gcc-cross/arm-linux-gnueabihf/14/../../../../arm-linux-gnueabihf/lib/libc.a(remove.o)
                              build/g_game.o (remove)
/usr/lib/gcc-cross/arm-linux-gnueabihf/14/../../../../arm-linux-gnueabihf/lib/libc.a(rename.o)
                              build/g_game.o (rename)
/usr/lib/gcc-cross/arm-linux-gnueabihf/14/../../../../arm-linux-gnueabihf/lib/libc.a(snprintf.o)
                              build/am_map.o (snprintf)
/usr/lib/gcc-cross/arm-linux-gnueabihf/14/../../../../arm-linux-gnueabihf/lib/libc.a(vfprintf.o)
                              build/i_system.o (vfprintf)
/usr/lib/gcc-cross/arm-linux-gnueabihf/14/../../../../arm-linux-gnueabihf/lib/libc.a(vfprintf-internal.o)
                              /usr/lib/gcc-cross/arm-linux-gnueabihf/14/../../../../arm-linux-gnueabihf/lib/libc.a(fprintf.o) (__vfprintf_internal)
/usr/lib/gcc-cross/arm-linux-gnueabihf/14/../../../../arm-linux-gnueabihf/lib/libc.a(vfscanf-internal.o)
                              /usr/lib/gcc-cross/arm-linux-gnueabihf/14/../../../../arm-linux-gnueabihf/lib/libc.a(isoc99_sscanf.o) (__vfscanf_internal)
/usr/lib/gcc-cross/arm-linux-gnueabihf/14/../../../../arm-linux-gnueabihf/lib/libc.a(errname.o)
                              /usr/lib/gcc-cross/arm-linux-gnueabihf/14/../../../../arm-linux-gnueabihf/lib/libc.a(vfprintf-internal.o) (__get_errname)
/usr/lib/gcc-cross/arm-linux-gnueabihf/14/../../../../arm-linux-gnueabihf/lib/libc.a(printf-parsemb.o)
                              /usr/lib/gcc-cross/arm-linux-gnueabihf/14/../../../../arm-linux-gnueabihf/lib/libc.a(vfprintf-internal.o) (__parse_one_specmb)
/usr/lib/gcc-cross/arm-linux-gnueabihf/14/../../../../arm-linux-gnueabihf/lib/libc.a(iofclose.o)
                              build/g_game.o (fclose)
/usr/lib/gcc-cross/arm-linux-gnueabihf/14/../../../../arm-linux-gnueabihf/lib/libc.a(iofflush.o)
                              build/i_input_tty.o (fflush)
/usr/lib/gcc-cross/arm-linux-gnueabihf/14/../../../../arm-linux-gnueabihf/lib/libc.a(iofread.o)
                              build/m_menu.o (fread)
/usr/lib/gcc-cross/arm-linux-gnueabihf/14/../../../../arm-linux-gnueabihf/lib/libc.a(ioftell.o)
                              build/g_game.o (ftell)
/usr/lib/gcc-cross/arm-linux-gnueabihf/14/../../../../arm-linux-gnueabihf/lib/libc.a(iofwrite.o)
                              build/i_system.o (fwrite)
/usr/lib/gcc-cross/arm-linux-gnueabihf/14/../../../../arm-linux-gnueabihf/lib/libc.a(ioputs.o)
                              build/i_video_fbdev.o (puts)
/usr/lib/gcc-cross/arm-linux-gnueabihf/14/../../../../arm-linux-gnueabihf/lib/libc.a(ioseekoff.o)
                              /usr/lib/gcc-cross/arm-linux-gnueabihf/14/../../../../arm-linux-gnueabihf/lib/libc.a(ioftell.o) (_IO_seekoff_unlocked)
/usr/lib/gcc-cross/arm-linux-gnueabihf/14/../../../../arm-linux-gnueabihf/lib/libc.a(iofopen64.o)
                              build/g_game.o (fopen64)
/usr/lib/gcc-cross/arm-linux-gnueabihf/14/../../../../arm-linux-gnueabihf/lib/libc.a(putchar.o)
                              build/d_main.o (putchar)
/usr/lib/gcc-cross/arm-linux-gnueabihf/14/../../../../arm-linux-gnueabihf/lib/libc.a(wgenops.o)
                              /usr/lib/gcc-cross/arm-linux-gnueabihf/14/../../../../arm-linux-gnueabihf/lib/libc.a(ioseekoff.o) (_IO_free_wbackup_area)
/usr/lib/gcc-cross/arm-linux-gnueabihf/14/../../../../arm-linux-gnueabihf/lib/libc.a(iofwide.o)
                              /usr/lib/gcc-cross/arm-linux-gnueabihf/14/../../../../arm-linux-gnueabihf/lib/libc.a(wgenops.o) (_IO_fwide)
/usr/lib/gcc-cross/arm-linux-gnueabihf/14/../../../../arm-linux-gnueabihf/lib/libc.a(fseek.o)
                              build/m_misc.o (fseek)
/usr/lib/gcc-cross/arm-linux-gnueabihf/14/../../../../arm-linux-gnueabihf/lib/libc.a(vsnprintf.o)
                              /usr/lib/gcc-cross/arm-linux-gnueabihf/14/../../../../arm-linux-gnueabihf/lib/libc.a(snprintf.o) (__vsnprintf_internal)
/usr/lib/gcc-cross/arm-linux-gnueabihf/14/../../../../arm-linux-gnueabihf/lib/libc.a(libc_fatal.o)
                              /usr/lib/gcc-cross/arm-linux-gnueabihf/14/../../../../arm-linux-gnueabihf/lib/libc.a(libc-start.o) (__libc_fatal)
/usr/lib/gcc-cross/arm-linux-gnueabihf/14/../../../../arm-linux-gnueabihf/lib/libc.a(vtables.o)
                              /usr/lib/gcc-cross/arm-linux-gnueabihf/14/../../../../arm-linux-gnueabihf/lib/libc.a(isoc99_sscanf.o) (__io_vtables)
/usr/lib/gcc-cross/arm-linux-gnueabihf/14/../../../../arm-linux-gnueabihf/lib/libc.a(fileops.o)
                              /usr/lib/gcc-cross/arm-linux-gnueabihf/14/../../../../arm-linux-gnueabihf/lib/libc.a(vtables.o) (_IO_new_file_setbuf)
/usr/lib/gcc-cross/arm-linux-gnueabihf/14/../../../../arm-linux-gnueabihf/lib/libc.a(genops.o)
                              /usr/lib/gcc-cross/arm-linux-gnueabihf/14/../../../../arm-linux-gnueabihf/lib/libc.a(iofclose.o) (_IO_un_link)
/usr/lib/gcc-cross/arm-linux-gnueabihf/14/../../../../arm-linux-gnueabihf/lib/libc.a(stdfiles.o)
                              /usr/lib/gcc-cross/arm-linux-gnueabihf/14/../../../../arm-linux-gnueabihf/lib/libc.a(genops.o) (_IO_list_all)
/usr/lib/gcc-cross/arm-linux-gnueabihf/14/../../../../arm-linux-gnueabihf/lib/libc.a(stdio.o)
                              build/am_map.o (stderr)
/usr/lib/gcc-cross/arm-linux-gnueabihf/14/../../../../arm-linux-gnueabihf/lib/libc.a(strops.o)
                              /usr/lib/gcc-cross/arm-linux-gnueabihf/14/../../../../arm-linux-gnueabihf/lib/libc.a(isoc99_sscanf.o) (_IO_str_init_static_internal)
/usr/lib/gcc-cross/arm-linux-gnueabihf/14/../../../../arm-linux-gnueabihf/lib/libc.a(libc-cleanup.o)
                              /usr/lib/gcc-cross/arm-linux-gnueabihf/14/../../../../arm-linux-gnueabihf/lib/libc.a(system.o) (__libc_cleanup_push_defer)
/usr/lib/gcc-cross/arm-linux-gnueabihf/14/../../../../arm-linux-gnueabihf/lib/libc.a(lowlevellock.o)
                              /usr/lib/gcc-cross/arm-linux-gnueabihf/14/../../../../arm-linux-gnueabihf/lib/libc.a(cxa_atexit.o) (__lll_lock_wait_private)
/usr/lib/gcc-cross/arm-linux-gnueabihf/14/../../../../arm-linux-gnueabihf/lib/libc.a(nptl_deallocate_tsd.o)
                              /usr/lib/gcc-cross/arm-linux-gnueabihf/14/../../../../arm-linux-gnueabihf/lib/libc.a(libc-start.o) (__nptl_deallocate_tsd)
/usr/lib/gcc-cross/arm-linux-gnueabihf/14/../../../../arm-linux-gnueabihf/lib/libc.a(nptl_nthreads.o)
                              /usr/lib/gcc-cross/arm-linux-gnueabihf/14/../../../../arm-linux-gnueabihf/lib/libc.a(libc-start.o) (__nptl_nthreads)
/usr/lib/gcc-cross/arm-linux-gnueabihf/14/../../../../arm-linux-gnueabihf/lib/libc.a(pthread_keys.o)
                              /usr/lib/gcc-cross/arm-linux-gnueabihf/14/../../../../arm-linux-gnueabihf/lib/libc.a(nptl_deallocate_tsd.o) (__pthread_keys)
/usr/lib/gcc-cross/arm-linux-gnueabihf/14/../../../../arm-linux-gnueabihf/lib/libc.a(pthread_kill.o)
                              /usr/lib/gcc-cross/arm-linux-gnueabihf/14/../../../../arm-linux-gnueabihf/lib/libc.a(abort.o) (__pthread_raise_internal)
/usr/lib/gcc-cross/arm-linux-gnueabihf/14/../../../../arm-linux-gnueabihf/lib/libc.a(pthread_rwlock_init.o)
                              /usr/lib/gcc-cross/arm-linux-gnueabihf/14/../../../../arm-linux-gnueabihf/lib/libc.a(abort.o) (__pthread_rwlock_init)
/usr/lib/gcc-cross/arm-linux-gnueabihf/14/../../../../arm-linux-gnueabihf/lib/libc.a(pthread_rwlock_rdlock.o)
                              /usr/lib/gcc-cross/arm-linux-gnueabihf/14/../../../../arm-linux-gnueabihf/lib/libc.a(abort.o) (__pthread_rwlock_rdlock)
/usr/lib/gcc-cross/arm-linux-gnueabihf/14/../../../../arm-linux-gnueabihf/lib/libc.a(pthread_rwlock_unlock.o)
                              /usr/lib/gcc-cross/arm-linux-gnueabihf/14/../../../../arm-linux-gnueabihf/lib/libc.a(abort.o) (__pthread_rwlock_unlock)
/usr/lib/gcc-cross/arm-linux-gnueabihf/14/../../../../arm-linux-gnueabihf/lib/libc.a(pthread_rwlock_wrlock.o)
                              /usr/lib/gcc-cross/arm-linux-gnueabihf/14/../../../../arm-linux-gnueabihf/lib/libc.a(abort.o) (__pthread_rwlock_wrlock)
/usr/lib/gcc-cross/arm-linux-gnueabihf/14/../../../../arm-linux-gnueabihf/lib/libc.a(pthread_setcancelstate.o)
                              /usr/lib/gcc-cross/arm-linux-gnueabihf/14/../../../../arm-linux-gnueabihf/lib/libc.a(system.o) (__pthread_setcancelstate)
/usr/lib/gcc-cross/arm-linux-gnueabihf/14/../../../../arm-linux-gnueabihf/lib/libc.a(malloc.o)
                              build/i_video_fbdev.o (malloc)
/usr/lib/gcc-cross/arm-linux-gnueabihf/14/../../../../arm-linux-gnueabihf/lib/libc.a(scratch_buffer_grow_preserve.o)
                              /usr/lib/gcc-cross/arm-linux-gnueabihf/14/../../../../arm-linux-gnueabihf/lib/libc.a(vfprintf-internal.o) (__libc_scratch_buffer_grow_preserve)
/usr/lib/gcc-cross/arm-linux-gnueabihf/14/../../../../arm-linux-gnueabihf/lib/libc.a(scratch_buffer_set_array_size.o)
                              /usr/lib/gcc-cross/arm-linux-gnueabihf/14/../../../../arm-linux-gnueabihf/lib/libc.a(vfprintf-internal.o) (__libc_scratch_buffer_set_array_size)
/usr/lib/gcc-cross/arm-linux-gnueabihf/14/../../../../arm-linux-gnueabihf/lib/libc.a(_strerror.o)
                              /usr/lib/gcc-cross/arm-linux-gnueabihf/14/../../../../arm-linux-gnueabihf/lib/libc.a(vfprintf-internal.o) (__strerror_r)
/usr/lib/gcc-cross/arm-linux-gnueabihf/14/../../../../arm-linux-gnueabihf/lib/libc.a(memcmp.o)
                              /usr/lib/gcc-cross/arm-linux-gnueabihf/14/../../../../arm-linux-gnueabihf/lib/libc.a(grouping.o) (memcmp)
/usr/lib/gcc-cross/arm-linux-gnueabihf/14/../../../../arm-linux-gnueabihf/lib/libc.a(memcpy.o)
                              build/i_video_fbdev.o (memcpy)
/usr/lib/gcc-cross/arm-linux-gnueabihf/14/../../../../arm-linux-gnueabihf/lib/libc.a(memmove.o)
                              build/d_main.o (memmove)
/usr/lib/gcc-cross/arm-linux-gnueabihf/14/../../../../arm-linux-gnueabihf/lib/libc.a(memset.o)
                              build/i_video_fbdev.o (memset)
/usr/lib/gcc-cross/arm-linux-gnueabihf/14/../../../../arm-linux-gnueabihf/lib/libc.a(strcasecmp.o)
                              build/d_iwad.o (strcasecmp)
/usr/lib/gcc-cross/arm-linux-gnueabihf/14/../../../../arm-linux-gnueabihf/lib/libc.a(strchr.o)
                              build/i_system.o (strchr)
/usr/lib/gcc-cross/arm-linux-gnueabihf/14/../../../../arm-linux-gnueabihf/lib/libc.a(strchrnul.o)
                              /usr/lib/gcc-cross/arm-linux-gnueabihf/14/../../../../arm-linux-gnueabihf/lib/libc.a(vfprintf-internal.o) (__strchrnul)
/usr/lib/gcc-cross/arm-linux-gnueabihf/14/../../../../arm-linux-gnueabihf/lib/libc.a(strcmp.o)
                              build/d_iwad.o (strcmp)
/usr/lib/gcc-cross/arm-linux-gnueabihf/14/../../../../arm-linux-gnueabihf/lib/libc.a(strdup.o)
                              build/d_iwad.o (strdup)
/usr/lib/gcc-cross/arm-linux-gnueabihf/14/../../../../arm-linux-gnueabihf/lib/libc.a(strlen.o)
                              build/d_iwad.o (strlen)
/usr/lib/gcc-cross/arm-linux-gnueabihf/14/../../../../arm-linux-gnueabihf/lib/libc.a(strncase.o)
                              build/d_main.o (strncasecmp)
/usr/lib/gcc-cross/arm-linux-gnueabihf/14/../../../../arm-linux-gnueabihf/lib/libc.a(strncase_l.o)
                              /usr/lib/gcc-cross/arm-linux-gnueabihf/14/../../../../arm-linux-gnueabihf/lib/libc.a(strtod_l.o) (__strncasecmp_l)
/usr/lib/gcc-cross/arm-linux-gnueabihf/14/../../../../arm-linux-gnueabihf/lib/libc.a(strncmp.o)
                              build/m_misc.o (strncmp)
/usr/lib/gcc-cross/arm-linux-gnueabihf/14/../../../../arm-linux-gnueabihf/lib/libc.a(strncpy.o)
                              build/m_misc.o (strncpy)
/usr/lib/gcc-cross/arm-linux-gnueabihf/14/../../../../arm-linux-gnueabihf/lib/libc.a(strnlen.o)
                              /usr/lib/gcc-cross/arm-linux-gnueabihf/14/../../../../arm-linux-gnueabihf/lib/libc.a(vfprintf-internal.o) (__strnlen)
/usr/lib/gcc-cross/arm-linux-gnueabihf/14/../../../../arm-linux-gnueabihf/lib/libc.a(strrchr.o)
                              build/d_iwad.o (strrchr)
/usr/lib/gcc-cross/arm-linux-gnueabihf/14/../../../../arm-linux-gnueabihf/lib/libc.a(strstr.o)
                              build/m_misc.o (strstr)
/usr/lib/gcc-cross/arm-linux-gnueabihf/14/../../../../arm-linux-gnueabihf/lib/libc.a(memcpy_neon.o)
                              /usr/lib/gcc-cross/arm-linux-gnueabihf/14/../../../../arm-linux-gnueabihf/lib/libc.a(memcpy.o) (__memcpy_neon)
/usr/lib/gcc-cross/arm-linux-gnueabihf/14/../../../../arm-linux-gnueabihf/lib/libc.a(memcpy_vfp.o)
                              /usr/lib/gcc-cross/arm-linux-gnueabihf/14/../../../../arm-linux-gnueabihf/lib/libc.a(memcpy.o) (__memcpy_vfp)
/usr/lib/gcc-cross/arm-linux-gnueabihf/14/../../../../arm-linux-gnueabihf/lib/libc.a(mbrlen.o)
                              /usr/lib/gcc-cross/arm-linux-gnueabihf/14/../../../../arm-linux-gnueabihf/lib/libc.a(vfscanf-internal.o) (__mbrlen)
/usr/lib/gcc-cross/arm-linux-gnueabihf/14/../../../../arm-linux-gnueabihf/lib/libc.a(mbrtowc.o)
                              /usr/lib/gcc-cross/arm-linux-gnueabihf/14/../../../../arm-linux-gnueabihf/lib/libc.a(vfscanf-internal.o) (__mbrtowc)
/usr/lib/gcc-cross/arm-linux-gnueabihf/14/../../../../arm-linux-gnueabihf/lib/libc.a(wcrtomb.o)
                              /usr/lib/gcc-cross/arm-linux-gnueabihf/14/../../../../arm-linux-gnueabihf/lib/libc.a(vfprintf-internal.o) (__wcrtomb)
/usr/lib/gcc-cross/arm-linux-gnueabihf/14/../../../../arm-linux-gnueabihf/lib/libc.a(wcsmbsload.o)
                              /usr/lib/gcc-cross/arm-linux-gnueabihf/14/../../../../arm-linux-gnueabihf/lib/libc.a(mbrtowc.o) (__wcsmbs_load_conv)
/usr/lib/gcc-cross/arm-linux-gnueabihf/14/../../../../arm-linux-gnueabihf/lib/libc.a(wcsrtombs.o)
                              /usr/lib/gcc-cross/arm-linux-gnueabihf/14/../../../../arm-linux-gnueabihf/lib/libc.a(vfprintf-internal.o) (__wcsrtombs)
/usr/lib/gcc-cross/arm-linux-gnueabihf/14/../../../../arm-linux-gnueabihf/lib/libc.a(wmemcpy.o)
                              /usr/lib/gcc-cross/arm-linux-gnueabihf/14/../../../../arm-linux-gnueabihf/lib/libc.a(wgenops.o) (__wmemcpy)
/usr/lib/gcc-cross/arm-linux-gnueabihf/14/../../../../arm-linux-gnueabihf/lib/libc.a(wmemmove.o)
                              /usr/lib/gcc-cross/arm-linux-gnueabihf/14/../../../../arm-linux-gnueabihf/lib/libc.a(wgenops.o) (__wmemmove)
/usr/lib/gcc-cross/arm-linux-gnueabihf/14/../../../../arm-linux-gnueabihf/lib/libc.a(wmempcpy.o)
                              /usr/lib/gcc-cross/arm-linux-gnueabihf/14/../../../../arm-linux-gnueabihf/lib/libc.a(wgenops.o) (__wmempcpy)
/usr/lib/gcc-cross/arm-linux-gnueabihf/14/../../../../arm-linux-gnueabihf/lib/libc.a(gettimeofday.o)
                              build/i_timer.o (__gettimeofday64)
/usr/lib/gcc-cross/arm-linux-gnueabihf/14/../../../../arm-linux-gnueabihf/lib/libc.a(clock_gettime.o)
                              /usr/lib/gcc-cross/arm-linux-gnueabihf/14/../../../../arm-linux-gnueabihf/lib/libc.a(malloc.o) (__clock_gettime64)
/usr/lib/gcc-cross/arm-linux-gnueabihf/14/../../../../arm-linux-gnueabihf/lib/libc.a(_exit.o)
                              /usr/lib/gcc-cross/arm-linux-gnueabihf/14/../../../../arm-linux-gnueabihf/lib/libc.a(exit.o) (_exit)
/usr/lib/gcc-cross/arm-linux-gnueabihf/14/../../../../arm-linux-gnueabihf/lib/libc.a(getpid.o)
                              /usr/lib/gcc-cross/arm-linux-gnueabihf/14/../../../../arm-linux-gnueabihf/lib/libc.a(pthread_kill.o) (__getpid)
/usr/lib/gcc-cross/arm-linux-gnueabihf/14/../../../../arm-linux-gnueabihf/lib/libc.a(spawn.o)
                              /usr/lib/gcc-cross/arm-linux-gnueabihf/14/../../../../arm-linux-gnueabihf/lib/libc.a(system.o) (__posix_spawn)
/usr/lib/gcc-cross/arm-linux-gnueabihf/14/../../../../arm-linux-gnueabihf/lib/libc.a(spawnattr_destroy.o)
                              /usr/lib/gcc-cross/arm-linux-gnueabihf/14/../../../../arm-linux-gnueabihf/lib/libc.a(system.o) (__posix_spawnattr_destroy)
/usr/lib/gcc-cross/arm-linux-gnueabihf/14/../../../../arm-linux-gnueabihf/lib/libc.a(spawnattr_init.o)
                              /usr/lib/gcc-cross/arm-linux-gnueabihf/14/../../../../arm-linux-gnueabihf/lib/libc.a(system.o) (__posix_spawnattr_init)
/usr/lib/gcc-cross/arm-linux-gnueabihf/14/../../../../arm-linux-gnueabihf/lib/libc.a(spawnattr_setdefault.o)
                              /usr/lib/gcc-cross/arm-linux-gnueabihf/14/../../../../arm-linux-gnueabihf/lib/libc.a(system.o) (__posix_spawnattr_setsigdefault)
/usr/lib/gcc-cross/arm-linux-gnueabihf/14/../../../../arm-linux-gnueabihf/lib/libc.a(spawnattr_setflags.o)
                              /usr/lib/gcc-cross/arm-linux-gnueabihf/14/../../../../arm-linux-gnueabihf/lib/libc.a(system.o) (__posix_spawnattr_setflags)
/usr/lib/gcc-cross/arm-linux-gnueabihf/14/../../../../arm-linux-gnueabihf/lib/libc.a(spawnattr_setsigmask.o)
                              /usr/lib/gcc-cross/arm-linux-gnueabihf/14/../../../../arm-linux-gnueabihf/lib/libc.a(system.o) (__posix_spawnattr_setsigmask)
/usr/lib/gcc-cross/arm-linux-gnueabihf/14/../../../../arm-linux-gnueabihf/lib/libc.a(spawni.o)
                              /usr/lib/gcc-cross/arm-linux-gnueabihf/14/../../../../arm-linux-gnueabihf/lib/libc.a(spawn.o) (__spawni)
/usr/lib/gcc-cross/arm-linux-gnueabihf/14/../../../../arm-linux-gnueabihf/lib/libc.a(waitid.o)
                              /usr/lib/gcc-cross/arm-linux-gnueabihf/14/../../../../arm-linux-gnueabihf/lib/libc.a(spawni.o) (__waitid)
/usr/lib/gcc-cross/arm-linux-gnueabihf/14/../../../../arm-linux-gnueabihf/lib/libc.a(waitpid.o)
                              /usr/lib/gcc-cross/arm-linux-gnueabihf/14/../../../../arm-linux-gnueabihf/lib/libc.a(system.o) (__waitpid)
/usr/lib/gcc-cross/arm-linux-gnueabihf/14/../../../../arm-linux-gnueabihf/lib/libc.a(environ.o)
                              /usr/lib/gcc-cross/arm-linux-gnueabihf/14/../../../../arm-linux-gnueabihf/lib/libc.a(libc-start.o) (__environ)
/usr/lib/gcc-cross/arm-linux-gnueabihf/14/../../../../arm-linux-gnueabihf/lib/libc.a(chdir.o)
                              /usr/lib/gcc-cross/arm-linux-gnueabihf/14/../../../../arm-linux-gnueabihf/lib/libc.a(spawni.o) (__chdir)
/usr/lib/gcc-cross/arm-linux-gnueabihf/14/../../../../arm-linux-gnueabihf/lib/libc.a(close.o)
                              build/i_input_tty.o (close)
/usr/lib/gcc-cross/arm-linux-gnueabihf/14/../../../../arm-linux-gnueabihf/lib/libc.a(dup2.o)
                              /usr/lib/gcc-cross/arm-linux-gnueabihf/14/../../../../arm-linux-gnueabihf/lib/libc.a(spawni.o) (__dup2)
/usr/lib/gcc-cross/arm-linux-gnueabihf/14/../../../../arm-linux-gnueabihf/lib/libc.a(fchdir.o)
                              /usr/lib/gcc-cross/arm-linux-gnueabihf/14/../../../../arm-linux-gnueabihf/lib/libc.a(spawni.o) (__fchdir)
/usr/lib/gcc-cross/arm-linux-gnueabihf/14/../../../../arm-linux-gnueabihf/lib/libc.a(fcntl.o)
                              /usr/lib/gcc-cross/arm-linux-gnueabihf/14/../../../../arm-linux-gnueabihf/lib/libc.a(spawni.o) (__fcntl)
/usr/lib/gcc-cross/arm-linux-gnueabihf/14/../../../../arm-linux-gnueabihf/lib/libc.a(fcntl64.o)
                              build/i_input_tty.o (__fcntl_time64)
/usr/lib/gcc-cross/arm-linux-gnueabihf/14/../../../../arm-linux-gnueabihf/lib/libc.a(fstat64.o)
                              /usr/lib/gcc-cross/arm-linux-gnueabihf/14/../../../../arm-linux-gnueabihf/lib/libc.a(fileops.o) (__fstat64_time64)
/usr/lib/gcc-cross/arm-linux-gnueabihf/14/../../../../arm-linux-gnueabihf/lib/libc.a(fstatat64.o)
                              /usr/lib/gcc-cross/arm-linux-gnueabihf/14/../../../../arm-linux-gnueabihf/lib/libc.a(fstat64.o) (__fstatat64_time64)
/usr/lib/gcc-cross/arm-linux-gnueabihf/14/../../../../arm-linux-gnueabihf/lib/libc.a(lseek64.o)
                              /usr/lib/gcc-cross/arm-linux-gnueabihf/14/../../../../arm-linux-gnueabihf/lib/libc.a(fileops.o) (__lseek64)
/usr/lib/gcc-cross/arm-linux-gnueabihf/14/../../../../arm-linux-gnueabihf/lib/libc.a(mkdir.o)
                              build/m_misc.o (mkdir)
/usr/lib/gcc-cross/arm-linux-gnueabihf/14/../../../../arm-linux-gnueabihf/lib/libc.a(open.o)
                              /usr/lib/gcc-cross/arm-linux-gnueabihf/14/../../../../arm-linux-gnueabihf/lib/libc.a(fileops.o) (__open)
/usr/lib/gcc-cross/arm-linux-gnueabihf/14/../../../../arm-linux-gnueabihf/lib/libc.a(open64.o)
                              build/i_video_fbdev.o (open64)
/usr/lib/gcc-cross/arm-linux-gnueabihf/14/../../../../arm-linux-gnueabihf/lib/libc.a(read.o)
                              build/i_input_tty.o (read)
/usr/lib/gcc-cross/arm-linux-gnueabihf/14/../../../../arm-linux-gnueabihf/lib/libc.a(rmdir.o)
                              /usr/lib/gcc-cross/arm-linux-gnueabihf/14/../../../../arm-linux-gnueabihf/lib/libc.a(remove.o) (__rmdir)
/usr/lib/gcc-cross/arm-linux-gnueabihf/14/../../../../arm-linux-gnueabihf/lib/libc.a(unlink.o)
                              /usr/lib/gcc-cross/arm-linux-gnueabihf/14/../../../../arm-linux-gnueabihf/lib/libc.a(remove.o) (__unlink)
/usr/lib/gcc-cross/arm-linux-gnueabihf/14/../../../../arm-linux-gnueabihf/lib/libc.a(write.o)
                              build/i_video_fbdev.o (write)
/usr/lib/gcc-cross/arm-linux-gnueabihf/14/../../../../arm-linux-gnueabihf/lib/libc.a(close_nocancel.o)
                              /usr/lib/gcc-cross/arm-linux-gnueabihf/14/../../../../arm-linux-gnueabihf/lib/libc.a(fileops.o) (__close_nocancel)
/usr/lib/gcc-cross/arm-linux-gnueabihf/14/../../../../arm-linux-gnueabihf/lib/libc.a(fcntl_nocancel.o)
                              /usr/lib/gcc-cross/arm-linux-gnueabihf/14/../../../../arm-linux-gnueabihf/lib/libc.a(fcntl.o) (__fcntl64_nocancel_adjusted)
/usr/lib/gcc-cross/arm-linux-gnueabihf/14/../../../../arm-linux-gnueabihf/lib/libc.a(open_nocancel.o)
                              /usr/lib/gcc-cross/arm-linux-gnueabihf/14/../../../../arm-linux-gnueabihf/lib/libc.a(fileops.o) (__open_nocancel)
/usr/lib/gcc-cross/arm-linux-gnueabihf/14/../../../../arm-linux-gnueabihf/lib/libc.a(read_nocancel.o)
                              /usr/lib/gcc-cross/arm-linux-gnueabihf/14/../../../../arm-linux-gnueabihf/lib/libc.a(fileops.o) (__read_nocancel)
/usr/lib/gcc-cross/arm-linux-gnueabihf/14/../../../../arm-linux-gnueabihf/lib/libc.a(stat_t64_cp.o)
                              /usr/lib/gcc-cross/arm-linux-gnueabihf/14/../../../../arm-linux-gnueabihf/lib/libc.a(fstat64.o) (__cp_stat64_t64_stat64)
/usr/lib/gcc-cross/arm-linux-gnueabihf/14/../../../../arm-linux-gnueabihf/lib/libc.a(write_nocancel.o)
                              /usr/lib/gcc-cross/arm-linux-gnueabihf/14/../../../../arm-linux-gnueabihf/lib/libc.a(fileops.o) (__write_nocancel)
/usr/lib/gcc-cross/arm-linux-gnueabihf/14/../../../../arm-linux-gnueabihf/lib/libc.a(tcsetattr.o)
                              build/i_input_tty.o (tcsetattr)
/usr/lib/gcc-cross/arm-linux-gnueabihf/14/../../../../arm-linux-gnueabihf/lib/libc.a(tcgetattr.o)
                              build/i_input_tty.o (tcgetattr)
/usr/lib/gcc-cross/arm-linux-gnueabihf/14/../../../../arm-linux-gnueabihf/lib/libc.a(tcsetpgrp.o)
                              /usr/lib/gcc-cross/arm-linux-gnueabihf/14/../../../../arm-linux-gnueabihf/lib/libc.a(spawni.o) (__tcsetpgrp)
/usr/lib/gcc-cross/arm-linux-gnueabihf/14/../../../../arm-linux-gnueabihf/lib/libc.a(getrlimit64.o)
                              /usr/lib/gcc-cross/arm-linux-gnueabihf/14/../../../../arm-linux-gnueabihf/lib/libc.a(spawni.o) (__getrlimit64)
/usr/lib/gcc-cross/arm-linux-gnueabihf/14/../../../../arm-linux-gnueabihf/lib/libc.a(brk.o)
                              /usr/lib/gcc-cross/arm-linux-gnueabihf/14/../../../../arm-linux-gnueabihf/lib/libc.a(malloc.o) (__curbrk)
/usr/lib/gcc-cross/arm-linux-gnueabihf/14/../../../../arm-linux-gnueabihf/lib/libc.a(getpagesize.o)
                              /usr/lib/gcc-cross/arm-linux-gnueabihf/14/../../../../arm-linux-gnueabihf/lib/libc.a(fileops.o) (__getpagesize)
/usr/lib/gcc-cross/arm-linux-gnueabihf/14/../../../../arm-linux-gnueabihf/lib/libc.a(getsysstats.o)
                              /usr/lib/gcc-cross/arm-linux-gnueabihf/14/../../../../arm-linux-gnueabihf/lib/libc.a(malloc.o) (__get_nprocs)
/usr/lib/gcc-cross/arm-linux-gnueabihf/14/../../../../arm-linux-gnueabihf/lib/libc.a(ioctl.o)
                              /usr/lib/gcc-cross/arm-linux-gnueabihf/14/../../../../arm-linux-gnueabihf/lib/libc.a(tcsetpgrp.o) (__ioctl)
/usr/lib/gcc-cross/arm-linux-gnueabihf/14/../../../../arm-linux-gnueabihf/lib/libc.a(madvise.o)
                              /usr/lib/gcc-cross/arm-linux-gnueabihf/14/../../../../arm-linux-gnueabihf/lib/libc.a(malloc.o) (__madvise)
/usr/lib/gcc-cross/arm-linux-gnueabihf/14/../../../../arm-linux-gnueabihf/lib/libc.a(mmap.o)
                              /usr/lib/gcc-cross/arm-linux-gnueabihf/14/../../../../arm-linux-gnueabihf/lib/libc.a(libc_fatal.o) (__mmap)
/usr/lib/gcc-cross/arm-linux-gnueabihf/14/../../../../arm-linux-gnueabihf/lib/libc.a(mmap64.o)
                              /usr/lib/gcc-cross/arm-linux-gnueabihf/14/../../../../arm-linux-gnueabihf/lib/libc.a(fileops.o) (__mmap64)
/usr/lib/gcc-cross/arm-linux-gnueabihf/14/../../../../arm-linux-gnueabihf/lib/libc.a(mprotect.o)
                              /usr/lib/gcc-cross/arm-linux-gnueabihf/14/../../../../arm-linux-gnueabihf/lib/libc.a(malloc.o) (__mprotect)
/usr/lib/gcc-cross/arm-linux-gnueabihf/14/../../../../arm-linux-gnueabihf/lib/libc.a(munmap.o)
                              /usr/lib/gcc-cross/arm-linux-gnueabihf/14/../../../../arm-linux-gnueabihf/lib/libc.a(libc_fatal.o) (__munmap)
/usr/lib/gcc-cross/arm-linux-gnueabihf/14/../../../../arm-linux-gnueabihf/lib/libc.a(sbrk.o)
                              /usr/lib/gcc-cross/arm-linux-gnueabihf/14/../../../../arm-linux-gnueabihf/lib/libc.a(malloc.o) (__sbrk)
/usr/lib/gcc-cross/arm-linux-gnueabihf/14/../../../../arm-linux-gnueabihf/lib/libc.a(single_threaded.o)
                              /usr/lib/gcc-cross/arm-linux-gnueabihf/14/../../../../arm-linux-gnueabihf/lib/libc.a(vfprintf-internal.o) (__libc_single_threaded)
/usr/lib/gcc-cross/arm-linux-gnueabihf/14/../../../../arm-linux-gnueabihf/lib/libc.a(usleep.o)
                              build/i_timer.o (usleep)
/usr/lib/gcc-cross/arm-linux-gnueabihf/14/../../../../arm-linux-gnueabihf/lib/libc.a(clone-internal.o)
                              /usr/lib/gcc-cross/arm-linux-gnueabihf/14/../../../../arm-linux-gnueabihf/lib/libc.a(spawni.o) (__clone_internal_fallback)
/usr/lib/gcc-cross/arm-linux-gnueabihf/14/../../../../arm-linux-gnueabihf/lib/libc.a(clone-pidfd-support.o)
                              /usr/lib/gcc-cross/arm-linux-gnueabihf/14/../../../../arm-linux-gnueabihf/lib/libc.a(spawni.o) (__clone_pidfd_supported)
/usr/lib/gcc-cross/arm-linux-gnueabihf/14/../../../../arm-linux-gnueabihf/lib/libc.a(clone3.o)
                              /usr/lib/gcc-cross/arm-linux-gnueabihf/14/../../../../arm-linux-gnueabihf/lib/libc.a(spawni.o) (__clone3)
/usr/lib/gcc-cross/arm-linux-gnueabihf/14/../../../../arm-linux-gnueabihf/lib/libc.a(closefrom_fallback.o)
                              /usr/lib/gcc-cross/arm-linux-gnueabihf/14/../../../../arm-linux-gnueabihf/lib/libc.a(spawni.o) (__closefrom_fallback)
/usr/lib/gcc-cross/arm-linux-gnueabihf/14/../../../../arm-linux-gnueabihf/lib/libc.a(mremap.o)
                              /usr/lib/gcc-cross/arm-linux-gnueabihf/14/../../../../arm-linux-gnueabihf/lib/libc.a(fileops.o) (__mremap)
/usr/lib/gcc-cross/arm-linux-gnueabihf/14/../../../../arm-linux-gnueabihf/lib/libc.a(setvmaname.o)
                              /usr/lib/gcc-cross/arm-linux-gnueabihf/14/../../../../arm-linux-gnueabihf/lib/libc.a(libc_fatal.o) (__set_vma_name)
/usr/lib/gcc-cross/arm-linux-gnueabihf/14/../../../../arm-linux-gnueabihf/lib/libc.a(sysinfo.o)
                              /usr/lib/gcc-cross/arm-linux-gnueabihf/14/../../../../arm-linux-gnueabihf/lib/libc.a(getsysstats.o) (__sysinfo)
/usr/lib/gcc-cross/arm-linux-gnueabihf/14/../../../../arm-linux-gnueabihf/lib/libc.a(gettid.o)
                              /usr/lib/gcc-cross/arm-linux-gnueabihf/14/../../../../arm-linux-gnueabihf/lib/libc.a(pthread_kill.o) (__gettid)
/usr/lib/gcc-cross/arm-linux-gnueabihf/14/../../../../arm-linux-gnueabihf/lib/libc.a(malloc-hugepages.o)
                              /usr/lib/gcc-cross/arm-linux-gnueabihf/14/../../../../arm-linux-gnueabihf/lib/libc.a(malloc.o) (__malloc_default_thp_pagesize)
/usr/lib/gcc-cross/arm-linux-gnueabihf/14/../../../../arm-linux-gnueabihf/lib/libc.a(wctrans.o)
                              /usr/lib/gcc-cross/arm-linux-gnueabihf/14/../../../../arm-linux-gnueabihf/lib/libc.a(vfscanf-internal.o) (__wctrans)
/usr/lib/gcc-cross/arm-linux-gnueabihf/14/../../../../arm-linux-gnueabihf/lib/libc.a(towctrans.o)
                              /usr/lib/gcc-cross/arm-linux-gnueabihf/14/../../../../arm-linux-gnueabihf/lib/libc.a(vfscanf-internal.o) (__towctrans)
/usr/lib/gcc-cross/arm-linux-gnueabihf/14/../../../../arm-linux-gnueabihf/lib/libc.a(chk_fail.o)
                              /usr/lib/gcc-cross/arm-linux-gnueabihf/14/../../../../arm-linux-gnueabihf/lib/libc.a(wcrtomb.o) (__chk_fail)
/usr/lib/gcc-cross/arm-linux-gnueabihf/14/../../../../arm-linux-gnueabihf/lib/libc.a(fortify_fail.o)
                              /usr/lib/gcc-cross/arm-linux-gnueabihf/14/../../../../arm-linux-gnueabihf/lib/libc.a(chk_fail.o) (__fortify_fail)
/usr/lib/gcc-cross/arm-linux-gnueabihf/14/../../../../arm-linux-gnueabihf/lib/libc.a(fprintf_chk.o)
                              /usr/lib/gcc-cross/arm-linux-gnueabihf/14/../../../../arm-linux-gnueabihf/lib/libc.a(malloc.o) (__fprintf_chk)
/usr/lib/gcc-cross/arm-linux-gnueabihf/14/../../../../arm-linux-gnueabihf/lib/libc.a(memcpy_chk.o)
                              /usr/lib/gcc-cross/arm-linux-gnueabihf/14/../../../../arm-linux-gnueabihf/lib/libc.a(strtod_l.o) (__memcpy_chk)
/usr/lib/gcc-cross/arm-linux-gnueabihf/14/../../../../arm-linux-gnueabihf/lib/libc.a(readonly-area.o)
                              /usr/lib/gcc-cross/arm-linux-gnueabihf/14/../../../../arm-linux-gnueabihf/lib/libc.a(vfprintf-internal.o) (__readonly_area)
/usr/lib/gcc-cross/arm-linux-gnueabihf/14/../../../../arm-linux-gnueabihf/lib/libc.a(stack_chk_fail.o)
                              /usr/lib/gcc-cross/arm-linux-gnueabihf/14/../../../../arm-linux-gnueabihf/lib/libc.a(strtod_l.o) (__stack_chk_fail)
/usr/lib/gcc-cross/arm-linux-gnueabihf/14/../../../../arm-linux-gnueabihf/lib/libc.a(dl-debug.o)
                              /usr/lib/gcc-cross/arm-linux-gnueabihf/14/../../../../arm-linux-gnueabihf/lib/libc.a(libc-start.o) (_dl_debug_initialize)
/usr/lib/gcc-cross/arm-linux-gnueabihf/14/../../../../arm-linux-gnueabihf/lib/libc.a(dl-debug-symbols.o)
                              /usr/lib/gcc-cross/arm-linux-gnueabihf/14/../../../../arm-linux-gnueabihf/lib/libc.a(dl-debug.o) (_r_debug_extended)
/usr/lib/gcc-cross/arm-linux-gnueabihf/14/../../../../arm-linux-gnueabihf/lib/libc.a(dl-tls.o)
                              /usr/lib/gcc-cross/arm-linux-gnueabihf/14/../../../../arm-linux-gnueabihf/lib/libc.a(libc-tls.o) (_dl_tls_static_surplus_init)
/usr/lib/gcc-cross/arm-linux-gnueabihf/14/../../../../arm-linux-gnueabihf/lib/libc.a(dl-tls_init_tp.o)
                              /usr/lib/gcc-cross/arm-linux-gnueabihf/14/../../../../arm-linux-gnueabihf/lib/libc.a(libc-tls.o) (__tls_pre_init_tp)
/usr/lib/gcc-cross/arm-linux-gnueabihf/14/../../../../arm-linux-gnueabihf/lib/libc.a(dl-tunables.o)
                              /usr/lib/gcc-cross/arm-linux-gnueabihf/14/../../../../arm-linux-gnueabihf/lib/libc.a(malloc.o) (__tunable_is_initialized)
/usr/lib/gcc-cross/arm-linux-gnueabihf/14/../../../../arm-linux-gnueabihf/lib/libc.a(dl-rseq-symbols.o)
                              /usr/lib/gcc-cross/arm-linux-gnueabihf/14/../../../../arm-linux-gnueabihf/lib/libc.a(dl-tls_init_tp.o) (__rseq_size)
/usr/lib/gcc-cross/arm-linux-gnueabihf/14/../../../../arm-linux-gnueabihf/lib/libc.a(dl-early_allocate.o)
                              /usr/lib/gcc-cross/arm-linux-gnueabihf/14/../../../../arm-linux-gnueabihf/lib/libc.a(libc-tls.o) (_dl_early_allocate)
/usr/lib/gcc-cross/arm-linux-gnueabihf/14/../../../../arm-linux-gnueabihf/lib/libc.a(dl-support.o)
                              /usr/lib/gcc-cross/arm-linux-gnueabihf/14/../../../../arm-linux-gnueabihf/lib/libc.a(libc-start.o) (_dl_aux_init)
/usr/lib/gcc-cross/arm-linux-gnueabihf/14/../../../../arm-linux-gnueabihf/lib/libc.a(enbl-secure.o)
                              /usr/lib/gcc-cross/arm-linux-gnueabihf/14/../../../../arm-linux-gnueabihf/lib/libc.a(libc-start.o) (__libc_enable_secure)
/usr/lib/gcc-cross/arm-linux-gnueabihf/14/../../../../arm-linux-gnueabihf/lib/libc.a(libc_early_init.o)
                              /usr/lib/gcc-cross/arm-linux-gnueabihf/14/../../../../arm-linux-gnueabihf/lib/libc.a(libc-start.o) (__libc_early_init)
/usr/lib/gcc-cross/arm-linux-gnueabihf/14/../../../../arm-linux-gnueabihf/lib/libc.a(check_fds.o)
                              /usr/lib/gcc-cross/arm-linux-gnueabihf/14/../../../../arm-linux-gnueabihf/lib/libc.a(libc-start.o) (__libc_check_standard_fds)
/usr/lib/gcc-cross/arm-linux-gnueabihf/14/../../../../arm-linux-gnueabihf/lib/libc.a(init-first.o)
                              /usr/lib/gcc-cross/arm-linux-gnueabihf/14/../../../../arm-linux-gnueabihf/lib/libc.a(libc-start.o) (__libc_init_first)
/usr/lib/gcc-cross/arm-linux-gnueabihf/14/../../../../arm-linux-gnueabihf/lib/libc.a(sysdep.o)
                              /usr/lib/gcc-cross/arm-linux-gnueabihf/14/../../../../arm-linux-gnueabihf/lib/libc.a(chdir.o) (__syscall_error)
/usr/lib/gcc-cross/arm-linux-gnueabihf/14/../../../../arm-linux-gnueabihf/lib/libc.a(errno.o)
                              /usr/lib/gcc-cross/arm-linux-gnueabihf/14/../../../../arm-linux-gnueabihf/lib/libc.a(sysdep.o) (errno)
/usr/lib/gcc-cross/arm-linux-gnueabihf/14/../../../../arm-linux-gnueabihf/lib/libc.a(gconv_db.o)
                              /usr/lib/gcc-cross/arm-linux-gnueabihf/14/../../../../arm-linux-gnueabihf/lib/libc.a(iofclose.o) (__gconv_release_step)
/usr/lib/gcc-cross/arm-linux-gnueabihf/14/../../../../arm-linux-gnueabihf/lib/libc.a(gconv_conf.o)
                              /usr/lib/gcc-cross/arm-linux-gnueabihf/14/../../../../arm-linux-gnueabihf/lib/libc.a(gconv_db.o) (__gconv_load_conf)
/usr/lib/gcc-cross/arm-linux-gnueabihf/14/../../../../arm-linux-gnueabihf/lib/libc.a(gconv_builtin.o)
                              /usr/lib/gcc-cross/arm-linux-gnueabihf/14/../../../../arm-linux-gnueabihf/lib/libc.a(gconv_db.o) (__gconv_get_builtin_trans)
/usr/lib/gcc-cross/arm-linux-gnueabihf/14/../../../../arm-linux-gnueabihf/lib/libc.a(gconv_simple.o)
                              /usr/lib/gcc-cross/arm-linux-gnueabihf/14/../../../../arm-linux-gnueabihf/lib/libc.a(wcsmbsload.o) (__gconv_btwoc_ascii)
/usr/lib/gcc-cross/arm-linux-gnueabihf/14/../../../../arm-linux-gnueabihf/lib/libc.a(gconv_trans.o)
                              /usr/lib/gcc-cross/arm-linux-gnueabihf/14/../../../../arm-linux-gnueabihf/lib/libc.a(gconv_simple.o) (__gconv_transliterate)
/usr/lib/gcc-cross/arm-linux-gnueabihf/14/../../../../arm-linux-gnueabihf/lib/libc.a(gconv_cache.o)
                              /usr/lib/gcc-cross/arm-linux-gnueabihf/14/../../../../arm-linux-gnueabihf/lib/libc.a(gconv_conf.o) (__gconv_load_cache)
/usr/lib/gcc-cross/arm-linux-gnueabihf/14/../../../../arm-linux-gnueabihf/lib/libc.a(gconv_dl.o)
                              /usr/lib/gcc-cross/arm-linux-gnueabihf/14/../../../../arm-linux-gnueabihf/lib/libc.a(gconv_db.o) (__gconv_find_shlib)
/usr/lib/gcc-cross/arm-linux-gnueabihf/14/../../../../arm-linux-gnueabihf/lib/libc.a(setlocale.o)
                              /usr/lib/gcc-cross/arm-linux-gnueabihf/14/../../../../arm-linux-gnueabihf/lib/libc.a(gconv_db.o) (_nl_locale_subfreeres)
/usr/lib/gcc-cross/arm-linux-gnueabihf/14/../../../../arm-linux-gnueabihf/lib/libc.a(lc-ctype.o)
                              /usr/lib/gcc-cross/arm-linux-gnueabihf/14/../../../../arm-linux-gnueabihf/lib/libc.a(ctype.o) (_nl_current_LC_CTYPE)
/usr/lib/gcc-cross/arm-linux-gnueabihf/14/../../../../arm-linux-gnueabihf/lib/libc.a(lc-numeric.o)
                              /usr/lib/gcc-cross/arm-linux-gnueabihf/14/../../../../arm-linux-gnueabihf/lib/libc.a(vfprintf-internal.o) (_nl_current_LC_NUMERIC)
/usr/lib/gcc-cross/arm-linux-gnueabihf/14/../../../../arm-linux-gnueabihf/lib/libc.a(C_name.o)
                              /usr/lib/gcc-cross/arm-linux-gnueabihf/14/../../../../arm-linux-gnueabihf/lib/libc.a(setlocale.o) (_nl_POSIX_name)
/usr/lib/gcc-cross/arm-linux-gnueabihf/14/../../../../arm-linux-gnueabihf/lib/libc.a(SYS_libc.o)
                              /usr/lib/gcc-cross/arm-linux-gnueabihf/14/../../../../arm-linux-gnueabihf/lib/libc.a(_strerror.o) (_libc_intl_domainname)
/usr/lib/gcc-cross/arm-linux-gnueabihf/14/../../../../arm-linux-gnueabihf/lib/libc.a(global-locale.o)
                              /usr/lib/gcc-cross/arm-linux-gnueabihf/14/../../../../arm-linux-gnueabihf/lib/libc.a(setlocale.o) (_nl_global_locale)
/usr/lib/gcc-cross/arm-linux-gnueabihf/14/../../../../arm-linux-gnueabihf/lib/libc.a(xlocale.o)
                              /usr/lib/gcc-cross/arm-linux-gnueabihf/14/../../../../arm-linux-gnueabihf/lib/libc.a(strtod_l.o) (_nl_C_locobj)
/usr/lib/gcc-cross/arm-linux-gnueabihf/14/../../../../arm-linux-gnueabihf/lib/libc.a(__libc_assert_fail.o)
                              /usr/lib/gcc-cross/arm-linux-gnueabihf/14/../../../../arm-linux-gnueabihf/lib/libc.a(cxa_atexit.o) (__libc_assert_fail)
/usr/lib/gcc-cross/arm-linux-gnueabihf/14/../../../../arm-linux-gnueabihf/lib/libc.a(dcgettext.o)
                              /usr/lib/gcc-cross/arm-linux-gnueabihf/14/../../../../arm-linux-gnueabihf/lib/libc.a(_strerror.o) (__dcgettext)
/usr/lib/gcc-cross/arm-linux-gnueabihf/14/../../../../arm-linux-gnueabihf/lib/libc.a(dcigettext.o)
                              /usr/lib/gcc-cross/arm-linux-gnueabihf/14/../../../../arm-linux-gnueabihf/lib/libc.a(dcgettext.o) (__dcigettext)
/usr/lib/gcc-cross/arm-linux-gnueabihf/14/../../../../arm-linux-gnueabihf/lib/libc.a(finddomain.o)
                              /usr/lib/gcc-cross/arm-linux-gnueabihf/14/../../../../arm-linux-gnueabihf/lib/libc.a(dcigettext.o) (_nl_find_domain)
/usr/lib/gcc-cross/arm-linux-gnueabihf/14/../../../../arm-linux-gnueabihf/lib/libc.a(loadmsgcat.o)
                              /usr/lib/gcc-cross/arm-linux-gnueabihf/14/../../../../arm-linux-gnueabihf/lib/libc.a(dcigettext.o) (_nl_load_domain)
/usr/lib/gcc-cross/arm-linux-gnueabihf/14/../../../../arm-linux-gnueabihf/lib/libc.a(localealias.o)
                              /usr/lib/gcc-cross/arm-linux-gnueabihf/14/../../../../arm-linux-gnueabihf/lib/libc.a(finddomain.o) (_nl_expand_alias)
/usr/lib/gcc-cross/arm-linux-gnueabihf/14/../../../../arm-linux-gnueabihf/lib/libc.a(l10nflist.o)
                              /usr/lib/gcc-cross/arm-linux-gnueabihf/14/../../../../arm-linux-gnueabihf/lib/libc.a(finddomain.o) (_nl_make_l10nflist)
/usr/lib/gcc-cross/arm-linux-gnueabihf/14/../../../../arm-linux-gnueabihf/lib/libc.a(explodename.o)
                              /usr/lib/gcc-cross/arm-linux-gnueabihf/14/../../../../arm-linux-gnueabihf/lib/libc.a(finddomain.o) (_nl_explode_name)
/usr/lib/gcc-cross/arm-linux-gnueabihf/14/../../../../arm-linux-gnueabihf/lib/libc.a(plural.o)
                              /usr/lib/gcc-cross/arm-linux-gnueabihf/14/../../../../arm-linux-gnueabihf/lib/libc.a(loadmsgcat.o) (__gettext_free_exp)
/usr/lib/gcc-cross/arm-linux-gnueabihf/14/../../../../arm-linux-gnueabihf/lib/libc.a(plural-exp.o)
                              /usr/lib/gcc-cross/arm-linux-gnueabihf/14/../../../../arm-linux-gnueabihf/lib/libc.a(loadmsgcat.o) (__gettext_extract_plural)
/usr/lib/gcc-cross/arm-linux-gnueabihf/14/../../../../arm-linux-gnueabihf/lib/libc.a(hash-string.o)
                              /usr/lib/gcc-cross/arm-linux-gnueabihf/14/../../../../arm-linux-gnueabihf/lib/libc.a(gconv_cache.o) (__hash_string)
/usr/lib/gcc-cross/arm-linux-gnueabihf/14/../../../../arm-linux-gnueabihf/lib/libc.a(setjmp.o)
                              /usr/lib/gcc-cross/arm-linux-gnueabihf/14/../../../../arm-linux-gnueabihf/lib/libc.a(bsd-_setjmp.o) (__sigsetjmp)
/usr/lib/gcc-cross/arm-linux-gnueabihf/14/../../../../arm-linux-gnueabihf/lib/libc.a(sigjmp.o)
                              /usr/lib/gcc-cross/arm-linux-gnueabihf/14/../../../../arm-linux-gnueabihf/lib/libc.a(setjmp.o) (__sigjmp_save)
/usr/lib/gcc-cross/arm-linux-gnueabihf/14/../../../../arm-linux-gnueabihf/lib/libc.a(raise.o)
                              /usr/lib/gcc-cross/arm-linux-gnueabihf/14/../../../../arm-linux-gnueabihf/lib/libc.a(abort.o) (raise)
/usr/lib/gcc-cross/arm-linux-gnueabihf/14/../../../../arm-linux-gnueabihf/lib/libc.a(sigaction.o)
                              /usr/lib/gcc-cross/arm-linux-gnueabihf/14/../../../../arm-linux-gnueabihf/lib/libc.a(system.o) (__sigaction)
/usr/lib/gcc-cross/arm-linux-gnueabihf/14/../../../../arm-linux-gnueabihf/lib/libc.a(libc_sigaction.o)
                              /usr/lib/gcc-cross/arm-linux-gnueabihf/14/../../../../arm-linux-gnueabihf/lib/libc.a(abort.o) (__libc_sigaction)
/usr/lib/gcc-cross/arm-linux-gnueabihf/14/../../../../arm-linux-gnueabihf/lib/libc.a(sigprocmask.o)
                              /usr/lib/gcc-cross/arm-linux-gnueabihf/14/../../../../arm-linux-gnueabihf/lib/libc.a(system.o) (__sigprocmask)
/usr/lib/gcc-cross/arm-linux-gnueabihf/14/../../../../arm-linux-gnueabihf/lib/libc.a(sigrestorer.o)
                              /usr/lib/gcc-cross/arm-linux-gnueabihf/14/../../../../arm-linux-gnueabihf/lib/libc.a(libc_sigaction.o) (__default_sa_restorer)
/usr/lib/gcc-cross/arm-linux-gnueabihf/14/../../../../arm-linux-gnueabihf/lib/libc.a(getenv.o)
                              /usr/lib/gcc-cross/arm-linux-gnueabihf/14/../../../../arm-linux-gnueabihf/lib/libc.a(dl-support.o) (getenv)
/usr/lib/gcc-cross/arm-linux-gnueabihf/14/../../../../arm-linux-gnueabihf/lib/libc.a(getrandom.o)
                              /usr/lib/gcc-cross/arm-linux-gnueabihf/14/../../../../arm-linux-gnueabihf/lib/libc.a(libc_early_init.o) (__getrandom_early_init)
/usr/lib/gcc-cross/arm-linux-gnueabihf/14/../../../../arm-linux-gnueabihf/lib/libc.a(qsort.o)
                              /usr/lib/gcc-cross/arm-linux-gnueabihf/14/../../../../arm-linux-gnueabihf/lib/libc.a(localealias.o) (qsort)
/usr/lib/gcc-cross/arm-linux-gnueabihf/14/../../../../arm-linux-gnueabihf/lib/libc.a(setenv.o)
                              /usr/lib/gcc-cross/arm-linux-gnueabihf/14/../../../../arm-linux-gnueabihf/lib/libc.a(dl-support.o) (__unsetenv)
/usr/lib/gcc-cross/arm-linux-gnueabihf/14/../../../../arm-linux-gnueabihf/lib/libc.a(strtof.o)
                              /usr/lib/gcc-cross/arm-linux-gnueabihf/14/../../../../arm-linux-gnueabihf/lib/libc.a(vfscanf-internal.o) (__strtof_internal)
/usr/lib/gcc-cross/arm-linux-gnueabihf/14/../../../../arm-linux-gnueabihf/lib/libc.a(strtof_l.o)
                              /usr/lib/gcc-cross/arm-linux-gnueabihf/14/../../../../arm-linux-gnueabihf/lib/libc.a(strtof.o) (____strtof_l_internal)
/usr/lib/gcc-cross/arm-linux-gnueabihf/14/../../../../arm-linux-gnueabihf/lib/libc.a(strtof_nan.o)
                              /usr/lib/gcc-cross/arm-linux-gnueabihf/14/../../../../arm-linux-gnueabihf/lib/libc.a(strtof_l.o) (__strtof_nan)
/usr/lib/gcc-cross/arm-linux-gnueabihf/14/../../../../arm-linux-gnueabihf/lib/libc.a(strtold.o)
                              /usr/lib/gcc-cross/arm-linux-gnueabihf/14/../../../../arm-linux-gnueabihf/lib/libc.a(vfscanf-internal.o) (__strtold_internal)
/usr/lib/gcc-cross/arm-linux-gnueabihf/14/../../../../arm-linux-gnueabihf/lib/libc.a(strtold_l.o)
                              /usr/lib/gcc-cross/arm-linux-gnueabihf/14/../../../../arm-linux-gnueabihf/lib/libc.a(strtold.o) (____strtold_l_internal)
/usr/lib/gcc-cross/arm-linux-gnueabihf/14/../../../../arm-linux-gnueabihf/lib/libc.a(strtoll.o)
                              /usr/lib/gcc-cross/arm-linux-gnueabihf/14/../../../../arm-linux-gnueabihf/lib/libc.a(vfscanf-internal.o) (__strtoll_internal)
/usr/lib/gcc-cross/arm-linux-gnueabihf/14/../../../../arm-linux-gnueabihf/lib/libc.a(strtoll_l.o)
                              /usr/lib/gcc-cross/arm-linux-gnueabihf/14/../../../../arm-linux-gnueabihf/lib/libc.a(strtoll.o) (____strtoll_l_internal)
/usr/lib/gcc-cross/arm-linux-gnueabihf/14/../../../../arm-linux-gnueabihf/lib/libc.a(strtoul.o)
                              /usr/lib/gcc-cross/arm-linux-gnueabihf/14/../../../../arm-linux-gnueabihf/lib/libc.a(vfscanf-internal.o) (__strtoul_internal)
/usr/lib/gcc-cross/arm-linux-gnueabihf/14/../../../../arm-linux-gnueabihf/lib/libc.a(strtoul_l.o)
                              /usr/lib/gcc-cross/arm-linux-gnueabihf/14/../../../../arm-linux-gnueabihf/lib/libc.a(strtoul.o) (____strtoul_l_internal)
/usr/lib/gcc-cross/arm-linux-gnueabihf/14/../../../../arm-linux-gnueabihf/lib/libc.a(strtoull.o)
                              /usr/lib/gcc-cross/arm-linux-gnueabihf/14/../../../../arm-linux-gnueabihf/lib/libc.a(vfscanf-internal.o) (__strtoull_internal)
/usr/lib/gcc-cross/arm-linux-gnueabihf/14/../../../../arm-linux-gnueabihf/lib/libc.a(addmul_1.o)
                              /usr/lib/gcc-cross/arm-linux-gnueabihf/14/../../../../arm-linux-gnueabihf/lib/libc.a(mul.o) (__mpn_addmul_1)
/usr/lib/gcc-cross/arm-linux-gnueabihf/14/../../../../arm-linux-gnueabihf/lib/libc.a(mpn2flt.o)
                              /usr/lib/gcc-cross/arm-linux-gnueabihf/14/../../../../arm-linux-gnueabihf/lib/libc.a(strtof_l.o) (__mpn_construct_float)
/usr/lib/gcc-cross/arm-linux-gnueabihf/14/../../../../arm-linux-gnueabihf/lib/libc.a(_itoa.o)
                              /usr/lib/gcc-cross/arm-linux-gnueabihf/14/../../../../arm-linux-gnueabihf/lib/libc.a(vfprintf-internal.o) (_itoa_word)
/usr/lib/gcc-cross/arm-linux-gnueabihf/14/../../../../arm-linux-gnueabihf/lib/libc.a(funlockfile.o)
                              /usr/lib/gcc-cross/arm-linux-gnueabihf/14/../../../../arm-linux-gnueabihf/lib/libc.a(vfprintf-internal.o) (_IO_funlockfile)
/usr/lib/gcc-cross/arm-linux-gnueabihf/14/../../../../arm-linux-gnueabihf/lib/libc.a(grouping_iterator.o)
                              /usr/lib/gcc-cross/arm-linux-gnueabihf/14/../../../../arm-linux-gnueabihf/lib/libc.a(vfprintf-internal.o) (__grouping_iterator_init_none)
/usr/lib/gcc-cross/arm-linux-gnueabihf/14/../../../../arm-linux-gnueabihf/lib/libc.a(itoa-digits.o)
                              /usr/lib/gcc-cross/arm-linux-gnueabihf/14/../../../../arm-linux-gnueabihf/lib/libc.a(_itoa.o) (_itoa_lower_digits)
/usr/lib/gcc-cross/arm-linux-gnueabihf/14/../../../../arm-linux-gnueabihf/lib/libc.a(itoa-udigits.o)
                              /usr/lib/gcc-cross/arm-linux-gnueabihf/14/../../../../arm-linux-gnueabihf/lib/libc.a(_itoa.o) (_itoa_upper_digits)
/usr/lib/gcc-cross/arm-linux-gnueabihf/14/../../../../arm-linux-gnueabihf/lib/libc.a(printf_buffer_done.o)
                              /usr/lib/gcc-cross/arm-linux-gnueabihf/14/../../../../arm-linux-gnueabihf/lib/libc.a(vfprintf-internal.o) (__printf_buffer_done)
/usr/lib/gcc-cross/arm-linux-gnueabihf/14/../../../../arm-linux-gnueabihf/lib/libc.a(printf_buffer_pad_1.o)
                              /usr/lib/gcc-cross/arm-linux-gnueabihf/14/../../../../arm-linux-gnueabihf/lib/libc.a(vfprintf-internal.o) (__printf_buffer_pad_1)
/usr/lib/gcc-cross/arm-linux-gnueabihf/14/../../../../arm-linux-gnueabihf/lib/libc.a(printf_buffer_putc_1.o)
                              /usr/lib/gcc-cross/arm-linux-gnueabihf/14/../../../../arm-linux-gnueabihf/lib/libc.a(vfprintf-internal.o) (__printf_buffer_putc_1)
/usr/lib/gcc-cross/arm-linux-gnueabihf/14/../../../../arm-linux-gnueabihf/lib/libc.a(printf_buffer_puts_1.o)
                              /usr/lib/gcc-cross/arm-linux-gnueabihf/14/../../../../arm-linux-gnueabihf/lib/libc.a(vfprintf-internal.o) (__printf_buffer_puts_1)
/usr/lib/gcc-cross/arm-linux-gnueabihf/14/../../../../arm-linux-gnueabihf/lib/libc.a(printf_buffer_to_file.o)
                              /usr/lib/gcc-cross/arm-linux-gnueabihf/14/../../../../arm-linux-gnueabihf/lib/libc.a(vfprintf-internal.o) (__printf_buffer_to_file_init)
/usr/lib/gcc-cross/arm-linux-gnueabihf/14/../../../../arm-linux-gnueabihf/lib/libc.a(printf_buffer_write.o)
                              /usr/lib/gcc-cross/arm-linux-gnueabihf/14/../../../../arm-linux-gnueabihf/lib/libc.a(vfprintf-internal.o) (__printf_buffer_write)
/usr/lib/gcc-cross/arm-linux-gnueabihf/14/../../../../arm-linux-gnueabihf/lib/libc.a(printf_fp.o)
                              /usr/lib/gcc-cross/arm-linux-gnueabihf/14/../../../../arm-linux-gnueabihf/lib/libc.a(vfprintf-internal.o) (__printf_fp_l_buffer)
/usr/lib/gcc-cross/arm-linux-gnueabihf/14/../../../../arm-linux-gnueabihf/lib/libc.a(printf_fphex.o)
                              /usr/lib/gcc-cross/arm-linux-gnueabihf/14/../../../../arm-linux-gnueabihf/lib/libc.a(vfprintf-internal.o) (__printf_fphex_l_buffer)
/usr/lib/gcc-cross/arm-linux-gnueabihf/14/../../../../arm-linux-gnueabihf/lib/libc.a(printf_function_invoke.o)
                              /usr/lib/gcc-cross/arm-linux-gnueabihf/14/../../../../arm-linux-gnueabihf/lib/libc.a(vfprintf-internal.o) (__printf_function_invoke)
/usr/lib/gcc-cross/arm-linux-gnueabihf/14/../../../../arm-linux-gnueabihf/lib/libc.a(reg-modifier.o)
                              /usr/lib/gcc-cross/arm-linux-gnueabihf/14/../../../../arm-linux-gnueabihf/lib/libc.a(printf-parsemb.o) (__handle_registered_modifier_mb)
/usr/lib/gcc-cross/arm-linux-gnueabihf/14/../../../../arm-linux-gnueabihf/lib/libc.a(reg-printf.o)
                              /usr/lib/gcc-cross/arm-linux-gnueabihf/14/../../../../arm-linux-gnueabihf/lib/libc.a(vfprintf-internal.o) (__printf_function_table)
/usr/lib/gcc-cross/arm-linux-gnueabihf/14/../../../../arm-linux-gnueabihf/lib/libc.a(reg-type.o)
                              /usr/lib/gcc-cross/arm-linux-gnueabihf/14/../../../../arm-linux-gnueabihf/lib/libc.a(vfprintf-internal.o) (__printf_va_arg_table)
/usr/lib/gcc-cross/arm-linux-gnueabihf/14/../../../../arm-linux-gnueabihf/lib/libc.a(translated_number_width.o)
                              /usr/lib/gcc-cross/arm-linux-gnueabihf/14/../../../../arm-linux-gnueabihf/lib/libc.a(vfprintf-internal.o) (__translated_number_width)
/usr/lib/gcc-cross/arm-linux-gnueabihf/14/../../../../arm-linux-gnueabihf/lib/libc.a(wprintf_buffer_putc_1.o)
                              /usr/lib/gcc-cross/arm-linux-gnueabihf/14/../../../../arm-linux-gnueabihf/lib/libc.a(printf_fp.o) (__wprintf_buffer_putc_1)
/usr/lib/gcc-cross/arm-linux-gnueabihf/14/../../../../arm-linux-gnueabihf/lib/libc.a(wprintf_buffer_to_file.o)
                              /usr/lib/gcc-cross/arm-linux-gnueabihf/14/../../../../arm-linux-gnueabihf/lib/libc.a(printf_fp.o) (__wprintf_buffer_to_file_init)
/usr/lib/gcc-cross/arm-linux-gnueabihf/14/../../../../arm-linux-gnueabihf/lib/libc.a(errlist.o)
                              /usr/lib/gcc-cross/arm-linux-gnueabihf/14/../../../../arm-linux-gnueabihf/lib/libc.a(_strerror.o) (__get_errlist)
/usr/lib/gcc-cross/arm-linux-gnueabihf/14/../../../../arm-linux-gnueabihf/lib/libc.a(errlist-data.o)
                              /usr/lib/gcc-cross/arm-linux-gnueabihf/14/../../../../arm-linux-gnueabihf/lib/libc.a(errlist.o) (_sys_errlist_internal_len)
/usr/lib/gcc-cross/arm-linux-gnueabihf/14/../../../../arm-linux-gnueabihf/lib/libc.a(filedoalloc.o)
                              /usr/lib/gcc-cross/arm-linux-gnueabihf/14/../../../../arm-linux-gnueabihf/lib/libc.a(stdio.o) (_IO_file_doallocate)
/usr/lib/gcc-cross/arm-linux-gnueabihf/14/../../../../arm-linux-gnueabihf/lib/libc.a(iofopen.o)
                              /usr/lib/gcc-cross/arm-linux-gnueabihf/14/../../../../arm-linux-gnueabihf/lib/libc.a(iofopen64.o) (__fopen_internal)
/usr/lib/gcc-cross/arm-linux-gnueabihf/14/../../../../arm-linux-gnueabihf/lib/libc.a(iofputs.o)
                              /usr/lib/gcc-cross/arm-linux-gnueabihf/14/../../../../arm-linux-gnueabihf/lib/libc.a(malloc.o) (_IO_fputs)
/usr/lib/gcc-cross/arm-linux-gnueabihf/14/../../../../arm-linux-gnueabihf/lib/libc.a(iogetdelim.o)
                              /usr/lib/gcc-cross/arm-linux-gnueabihf/14/../../../../arm-linux-gnueabihf/lib/libc.a(readonly-area.o) (__getdelim)
/usr/lib/gcc-cross/arm-linux-gnueabihf/14/../../../../arm-linux-gnueabihf/lib/libc.a(wfileops.o)
                              /usr/lib/gcc-cross/arm-linux-gnueabihf/14/../../../../arm-linux-gnueabihf/lib/libc.a(fileops.o) (_IO_wdo_write)
/usr/lib/gcc-cross/arm-linux-gnueabihf/14/../../../../arm-linux-gnueabihf/lib/libc.a(iofgets_u.o)
                              /usr/lib/gcc-cross/arm-linux-gnueabihf/14/../../../../arm-linux-gnueabihf/lib/libc.a(localealias.o) (__fgets_unlocked)
/usr/lib/gcc-cross/arm-linux-gnueabihf/14/../../../../arm-linux-gnueabihf/lib/libc.a(alloca_cutoff.o)
                              /usr/lib/gcc-cross/arm-linux-gnueabihf/14/../../../../arm-linux-gnueabihf/lib/libc.a(printf_fp.o) (__libc_alloca_cutoff)
/usr/lib/gcc-cross/arm-linux-gnueabihf/14/../../../../arm-linux-gnueabihf/lib/libc.a(cancellation.o)
                              /usr/lib/gcc-cross/arm-linux-gnueabihf/14/../../../../arm-linux-gnueabihf/lib/libc.a(waitid.o) (__syscall_cancel)
/usr/lib/gcc-cross/arm-linux-gnueabihf/14/../../../../arm-linux-gnueabihf/lib/libc.a(futex-internal.o)
                              /usr/lib/gcc-cross/arm-linux-gnueabihf/14/../../../../arm-linux-gnueabihf/lib/libc.a(pthread_rwlock_rdlock.o) (__futex_abstimed_wait64)
/usr/lib/gcc-cross/arm-linux-gnueabihf/14/../../../../arm-linux-gnueabihf/lib/libc.a(pthread_mutex_conf.o)
                              /usr/lib/gcc-cross/arm-linux-gnueabihf/14/../../../../arm-linux-gnueabihf/lib/libc.a(libc_early_init.o) (__pthread_tunables_init)
/usr/lib/gcc-cross/arm-linux-gnueabihf/14/../../../../arm-linux-gnueabihf/lib/libc.a(pthread_mutex_lock.o)
                              /usr/lib/gcc-cross/arm-linux-gnueabihf/14/../../../../arm-linux-gnueabihf/lib/libc.a(dl-tls.o) (__pthread_mutex_lock)
/usr/lib/gcc-cross/arm-linux-gnueabihf/14/../../../../arm-linux-gnueabihf/lib/libc.a(pthread_mutex_unlock.o)
                              /usr/lib/gcc-cross/arm-linux-gnueabihf/14/../../../../arm-linux-gnueabihf/lib/libc.a(dl-tls.o) (__pthread_mutex_unlock)
/usr/lib/gcc-cross/arm-linux-gnueabihf/14/../../../../arm-linux-gnueabihf/lib/libc.a(pthread_once.o)
                              /usr/lib/gcc-cross/arm-linux-gnueabihf/14/../../../../arm-linux-gnueabihf/lib/libc.a(gconv_conf.o) (__pthread_once)
/usr/lib/gcc-cross/arm-linux-gnueabihf/14/../../../../arm-linux-gnueabihf/lib/libc.a(pthread_self.o)
                              /usr/lib/gcc-cross/arm-linux-gnueabihf/14/../../../../arm-linux-gnueabihf/lib/libc.a(raise.o) (__pthread_self)
/usr/lib/gcc-cross/arm-linux-gnueabihf/14/../../../../arm-linux-gnueabihf/lib/libc.a(pthread_sigmask.o)
                              /usr/lib/gcc-cross/arm-linux-gnueabihf/14/../../../../arm-linux-gnueabihf/lib/libc.a(sigprocmask.o) (__pthread_sigmask)
/usr/lib/gcc-cross/arm-linux-gnueabihf/14/../../../../arm-linux-gnueabihf/lib/libc.a(syscall_cancel.o)
                              /usr/lib/gcc-cross/arm-linux-gnueabihf/14/../../../../arm-linux-gnueabihf/lib/libc.a(cancellation.o) (__syscall_cancel_arch)
/usr/lib/gcc-cross/arm-linux-gnueabihf/14/../../../../arm-linux-gnueabihf/lib/libc.a(tpp.o)
                              /usr/lib/gcc-cross/arm-linux-gnueabihf/14/../../../../arm-linux-gnueabihf/lib/libc.a(pthread_mutex_lock.o) (__pthread_tpp_change_priority)
/usr/lib/gcc-cross/arm-linux-gnueabihf/14/../../../../arm-linux-gnueabihf/lib/libc.a(vars.o)
                              /usr/lib/gcc-cross/arm-linux-gnueabihf/14/../../../../arm-linux-gnueabihf/lib/libc.a(libc_early_init.o) (__default_pthread_attr)
/usr/lib/gcc-cross/arm-linux-gnueabihf/14/../../../../arm-linux-gnueabihf/lib/libc.a(argz-addsep.o)
                              /usr/lib/gcc-cross/arm-linux-gnueabihf/14/../../../../arm-linux-gnueabihf/lib/libc.a(setlocale.o) (__argz_add_sep)
/usr/lib/gcc-cross/arm-linux-gnueabihf/14/../../../../arm-linux-gnueabihf/lib/libc.a(argz-ctsep.o)
                              /usr/lib/gcc-cross/arm-linux-gnueabihf/14/../../../../arm-linux-gnueabihf/lib/libc.a(setlocale.o) (__argz_create_sep)
/usr/lib/gcc-cross/arm-linux-gnueabihf/14/../../../../arm-linux-gnueabihf/lib/libc.a(memchr.o)
                              /usr/lib/gcc-cross/arm-linux-gnueabihf/14/../../../../arm-linux-gnueabihf/lib/libc.a(strnlen.o) (memchr)
/usr/lib/gcc-cross/arm-linux-gnueabihf/14/../../../../arm-linux-gnueabihf/lib/libc.a(strcasecmp_l.o)
                              /usr/lib/gcc-cross/arm-linux-gnueabihf/14/../../../../arm-linux-gnueabihf/lib/libc.a(localealias.o) (__strcasecmp_l)
/usr/lib/gcc-cross/arm-linux-gnueabihf/14/../../../../arm-linux-gnueabihf/lib/libc.a(strcpy.o)
                              /usr/lib/gcc-cross/arm-linux-gnueabihf/14/../../../../arm-linux-gnueabihf/lib/libc.a(gconv_conf.o) (__stpcpy)
/usr/lib/gcc-cross/arm-linux-gnueabihf/14/../../../../arm-linux-gnueabihf/lib/libc.a(strcspn.o)
                              /usr/lib/gcc-cross/arm-linux-gnueabihf/14/../../../../arm-linux-gnueabihf/lib/libc.a(dcigettext.o) (strcspn)
/usr/lib/gcc-cross/arm-linux-gnueabihf/14/../../../../arm-linux-gnueabihf/lib/libc.a(strtok_r.o)
                              /usr/lib/gcc-cross/arm-linux-gnueabihf/14/../../../../arm-linux-gnueabihf/lib/libc.a(gconv_conf.o) (__strtok_r)
/usr/lib/gcc-cross/arm-linux-gnueabihf/14/../../../../arm-linux-gnueabihf/lib/libc.a(memchr_neon.o)
                              /usr/lib/gcc-cross/arm-linux-gnueabihf/14/../../../../arm-linux-gnueabihf/lib/libc.a(memchr.o) (__memchr_neon)
/usr/lib/gcc-cross/arm-linux-gnueabihf/14/../../../../arm-linux-gnueabihf/lib/libc.a(memchr_noneon.o)
                              /usr/lib/gcc-cross/arm-linux-gnueabihf/14/../../../../arm-linux-gnueabihf/lib/libc.a(memchr.o) (__memchr_noneon)
/usr/lib/gcc-cross/arm-linux-gnueabihf/14/../../../../arm-linux-gnueabihf/lib/libc.a(wcslen.o)
                              /usr/lib/gcc-cross/arm-linux-gnueabihf/14/../../../../arm-linux-gnueabihf/lib/libc.a(wcsrtombs.o) (__wcslen)
/usr/lib/gcc-cross/arm-linux-gnueabihf/14/../../../../arm-linux-gnueabihf/lib/libc.a(wcsnlen.o)
                              /usr/lib/gcc-cross/arm-linux-gnueabihf/14/../../../../arm-linux-gnueabihf/lib/libc.a(wcsrtombs.o) (__wcsnlen)
/usr/lib/gcc-cross/arm-linux-gnueabihf/14/../../../../arm-linux-gnueabihf/lib/libc.a(wmemchr.o)
                              /usr/lib/gcc-cross/arm-linux-gnueabihf/14/../../../../arm-linux-gnueabihf/lib/libc.a(wcsnlen.o) (__wmemchr)
/usr/lib/gcc-cross/arm-linux-gnueabihf/14/../../../../arm-linux-gnueabihf/lib/libc.a(closedir.o)
                              /usr/lib/gcc-cross/arm-linux-gnueabihf/14/../../../../arm-linux-gnueabihf/lib/libc.a(gconv_conf.o) (__closedir)
/usr/lib/gcc-cross/arm-linux-gnueabihf/14/../../../../arm-linux-gnueabihf/lib/libc.a(getdents64.o)
                              /usr/lib/gcc-cross/arm-linux-gnueabihf/14/../../../../arm-linux-gnueabihf/lib/libc.a(closefrom_fallback.o) (__getdents64)
/usr/lib/gcc-cross/arm-linux-gnueabihf/14/../../../../arm-linux-gnueabihf/lib/libc.a(opendir.o)
                              /usr/lib/gcc-cross/arm-linux-gnueabihf/14/../../../../arm-linux-gnueabihf/lib/libc.a(gconv_conf.o) (__opendir)
/usr/lib/gcc-cross/arm-linux-gnueabihf/14/../../../../arm-linux-gnueabihf/lib/libc.a(readdir64.o)
                              /usr/lib/gcc-cross/arm-linux-gnueabihf/14/../../../../arm-linux-gnueabihf/lib/libc.a(gconv_conf.o) (__readdir64)
/usr/lib/gcc-cross/arm-linux-gnueabihf/14/../../../../arm-linux-gnueabihf/lib/libc.a(execve.o)
                              /usr/lib/gcc-cross/arm-linux-gnueabihf/14/../../../../arm-linux-gnueabihf/lib/libc.a(spawni.o) (__execve)
/usr/lib/gcc-cross/arm-linux-gnueabihf/14/../../../../arm-linux-gnueabihf/lib/libc.a(execvpe.o)
                              /usr/lib/gcc-cross/arm-linux-gnueabihf/14/../../../../arm-linux-gnueabihf/lib/libc.a(spawni.o) (__execvpex)
/usr/lib/gcc-cross/arm-linux-gnueabihf/14/../../../../arm-linux-gnueabihf/lib/libc.a(getgid.o)
                              /usr/lib/gcc-cross/arm-linux-gnueabihf/14/../../../../arm-linux-gnueabihf/lib/libc.a(spawni.o) (__getgid)
/usr/lib/gcc-cross/arm-linux-gnueabihf/14/../../../../arm-linux-gnueabihf/lib/libc.a(getpgid.o)
                              /usr/lib/gcc-cross/arm-linux-gnueabihf/14/../../../../arm-linux-gnueabihf/lib/libc.a(spawni.o) (__getpgid)
/usr/lib/gcc-cross/arm-linux-gnueabihf/14/../../../../arm-linux-gnueabihf/lib/libc.a(getuid.o)
                              /usr/lib/gcc-cross/arm-linux-gnueabihf/14/../../../../arm-linux-gnueabihf/lib/libc.a(spawni.o) (__getuid)
/usr/lib/gcc-cross/arm-linux-gnueabihf/14/../../../../arm-linux-gnueabihf/lib/libc.a(nanosleep.o)
                              /usr/lib/gcc-cross/arm-linux-gnueabihf/14/../../../../arm-linux-gnueabihf/lib/libc.a(usleep.o) (__nanosleep)
/usr/lib/gcc-cross/arm-linux-gnueabihf/14/../../../../arm-linux-gnueabihf/lib/libc.a(sched_cpucount.o)
                              /usr/lib/gcc-cross/arm-linux-gnueabihf/14/../../../../arm-linux-gnueabihf/lib/libc.a(getsysstats.o) (__sched_cpucount)
/usr/lib/gcc-cross/arm-linux-gnueabihf/14/../../../../arm-linux-gnueabihf/lib/libc.a(sched_getp.o)
                              /usr/lib/gcc-cross/arm-linux-gnueabihf/14/../../../../arm-linux-gnueabihf/lib/libc.a(tpp.o) (__sched_getparam)
/usr/lib/gcc-cross/arm-linux-gnueabihf/14/../../../../arm-linux-gnueabihf/lib/libc.a(sched_gets.o)
                              /usr/lib/gcc-cross/arm-linux-gnueabihf/14/../../../../arm-linux-gnueabihf/lib/libc.a(tpp.o) (__sched_getscheduler)
/usr/lib/gcc-cross/arm-linux-gnueabihf/14/../../../../arm-linux-gnueabihf/lib/libc.a(sched_primax.o)
                              /usr/lib/gcc-cross/arm-linux-gnueabihf/14/../../../../arm-linux-gnueabihf/lib/libc.a(tpp.o) (__sched_get_priority_max)
/usr/lib/gcc-cross/arm-linux-gnueabihf/14/../../../../arm-linux-gnueabihf/lib/libc.a(sched_primin.o)
                              /usr/lib/gcc-cross/arm-linux-gnueabihf/14/../../../../arm-linux-gnueabihf/lib/libc.a(tpp.o) (__sched_get_priority_min)
/usr/lib/gcc-cross/arm-linux-gnueabihf/14/../../../../arm-linux-gnueabihf/lib/libc.a(sched_setp.o)
                              /usr/lib/gcc-cross/arm-linux-gnueabihf/14/../../../../arm-linux-gnueabihf/lib/libc.a(spawni.o) (__sched_setparam)
/usr/lib/gcc-cross/arm-linux-gnueabihf/14/../../../../arm-linux-gnueabihf/lib/libc.a(sched_sets.o)
                              /usr/lib/gcc-cross/arm-linux-gnueabihf/14/../../../../arm-linux-gnueabihf/lib/libc.a(spawni.o) (__sched_setscheduler)
/usr/lib/gcc-cross/arm-linux-gnueabihf/14/../../../../arm-linux-gnueabihf/lib/libc.a(setpgid.o)
                              /usr/lib/gcc-cross/arm-linux-gnueabihf/14/../../../../arm-linux-gnueabihf/lib/libc.a(spawni.o) (__setpgid)
/usr/lib/gcc-cross/arm-linux-gnueabihf/14/../../../../arm-linux-gnueabihf/lib/libc.a(setsid.o)
                              /usr/lib/gcc-cross/arm-linux-gnueabihf/14/../../../../arm-linux-gnueabihf/lib/libc.a(spawni.o) (__setsid)
/usr/lib/gcc-cross/arm-linux-gnueabihf/14/../../../../arm-linux-gnueabihf/lib/libc.a(wait4.o)
                              /usr/lib/gcc-cross/arm-linux-gnueabihf/14/../../../../arm-linux-gnueabihf/lib/libc.a(waitpid.o) (__wait4)
/usr/lib/gcc-cross/arm-linux-gnueabihf/14/../../../../arm-linux-gnueabihf/lib/libc.a(getcwd.o)
                              /usr/lib/gcc-cross/arm-linux-gnueabihf/14/../../../../arm-linux-gnueabihf/lib/libc.a(gconv_conf.o) (__getcwd)
/usr/lib/gcc-cross/arm-linux-gnueabihf/14/../../../../arm-linux-gnueabihf/lib/libc.a(isatty.o)
                              /usr/lib/gcc-cross/arm-linux-gnueabihf/14/../../../../arm-linux-gnueabihf/lib/libc.a(filedoalloc.o) (__isatty)
/usr/lib/gcc-cross/arm-linux-gnueabihf/14/../../../../arm-linux-gnueabihf/lib/libc.a(lseek.o)
                              /usr/lib/gcc-cross/arm-linux-gnueabihf/14/../../../../arm-linux-gnueabihf/lib/libc.a(closefrom_fallback.o) (__lseek)
/usr/lib/gcc-cross/arm-linux-gnueabihf/14/../../../../arm-linux-gnueabihf/lib/libc.a(lstat64.o)
                              /usr/lib/gcc-cross/arm-linux-gnueabihf/14/../../../../arm-linux-gnueabihf/lib/libc.a(gconv_conf.o) (__lstat64_time64)
/usr/lib/gcc-cross/arm-linux-gnueabihf/14/../../../../arm-linux-gnueabihf/lib/libc.a(openat64.o)
                              /usr/lib/gcc-cross/arm-linux-gnueabihf/14/../../../../arm-linux-gnueabihf/lib/libc.a(getcwd.o) (__openat64)
/usr/lib/gcc-cross/arm-linux-gnueabihf/14/../../../../arm-linux-gnueabihf/lib/libc.a(open64_nocancel.o)
                              /usr/lib/gcc-cross/arm-linux-gnueabihf/14/../../../../arm-linux-gnueabihf/lib/libc.a(malloc-hugepages.o) (__open64_nocancel)
/usr/lib/gcc-cross/arm-linux-gnueabihf/14/../../../../arm-linux-gnueabihf/lib/libc.a(openat_nocancel.o)
                              /usr/lib/gcc-cross/arm-linux-gnueabihf/14/../../../../arm-linux-gnueabihf/lib/libc.a(opendir.o) (__openat_nocancel)
/usr/lib/gcc-cross/arm-linux-gnueabihf/14/../../../../arm-linux-gnueabihf/lib/libc.a(pread64_nocancel.o)
                              /usr/lib/gcc-cross/arm-linux-gnueabihf/14/../../../../arm-linux-gnueabihf/lib/libc.a(malloc-hugepages.o) (__pread64_nocancel)
/usr/lib/gcc-cross/arm-linux-gnueabihf/14/../../../../arm-linux-gnueabihf/lib/libc.a(getrlimit.o)
                              /usr/lib/gcc-cross/arm-linux-gnueabihf/14/../../../../arm-linux-gnueabihf/lib/libc.a(libc_early_init.o) (__getrlimit)
/usr/lib/gcc-cross/arm-linux-gnueabihf/14/../../../../arm-linux-gnueabihf/lib/libc.a(tsearch.o)
                              /usr/lib/gcc-cross/arm-linux-gnueabihf/14/../../../../arm-linux-gnueabihf/lib/libc.a(gconv_db.o) (__tsearch)
/usr/lib/gcc-cross/arm-linux-gnueabihf/14/../../../../arm-linux-gnueabihf/lib/libc.a(init-misc.o)
                              /usr/lib/gcc-cross/arm-linux-gnueabihf/14/../../../../arm-linux-gnueabihf/lib/libc.a(init-first.o) (__init_misc)
/usr/lib/gcc-cross/arm-linux-gnueabihf/14/../../../../arm-linux-gnueabihf/lib/libc.a(clone.o)
                              /usr/lib/gcc-cross/arm-linux-gnueabihf/14/../../../../arm-linux-gnueabihf/lib/libc.a(clone-internal.o) (__clone)
/usr/lib/gcc-cross/arm-linux-gnueabihf/14/../../../../arm-linux-gnueabihf/lib/libc.a(asprintf_chk.o)
                              /usr/lib/gcc-cross/arm-linux-gnueabihf/14/../../../../arm-linux-gnueabihf/lib/libc.a(gconv_conf.o) (__asprintf_chk)
/usr/lib/gcc-cross/arm-linux-gnueabihf/14/../../../../arm-linux-gnueabihf/lib/libc.a(memmove_chk.o)
                              /usr/lib/gcc-cross/arm-linux-gnueabihf/14/../../../../arm-linux-gnueabihf/lib/libc.a(wfileops.o) (__memmove_chk)
/usr/lib/gcc-cross/arm-linux-gnueabihf/14/../../../../arm-linux-gnueabihf/lib/libc.a(dl-catch.o)
                              /usr/lib/gcc-cross/arm-linux-gnueabihf/14/../../../../arm-linux-gnueabihf/lib/libc.a(dl-tls.o) (_dl_signal_error)
/usr/lib/gcc-cross/arm-linux-gnueabihf/14/../../../../arm-linux-gnueabihf/lib/libc.a(dl-exception.o)
                              /usr/lib/gcc-cross/arm-linux-gnueabihf/14/../../../../arm-linux-gnueabihf/lib/libc.a(dl-catch.o) (_dl_exception_create)
/usr/lib/gcc-cross/arm-linux-gnueabihf/14/../../../../arm-linux-gnueabihf/lib/libc.a(dl-execstack-tunable.o)
                              /usr/lib/gcc-cross/arm-linux-gnueabihf/14/../../../../arm-linux-gnueabihf/lib/libc.a(dl-support.o) (_dl_handle_execstack_tunable)
/usr/lib/gcc-cross/arm-linux-gnueabihf/14/../../../../arm-linux-gnueabihf/lib/libc.a(dl-load.o)
                              /usr/lib/gcc-cross/arm-linux-gnueabihf/14/../../../../arm-linux-gnueabihf/lib/libc.a(dl-support.o) (_dl_init_paths)
/usr/lib/gcc-cross/arm-linux-gnueabihf/14/../../../../arm-linux-gnueabihf/lib/libc.a(dl-lookup.o)
                              /usr/lib/gcc-cross/arm-linux-gnueabihf/14/../../../../arm-linux-gnueabihf/lib/libc.a(dl-support.o) (_dl_lookup_symbol_x)
/usr/lib/gcc-cross/arm-linux-gnueabihf/14/../../../../arm-linux-gnueabihf/lib/libc.a(dl-misc.o)
                              /usr/lib/gcc-cross/arm-linux-gnueabihf/14/../../../../arm-linux-gnueabihf/lib/libc.a(dl-load.o) (_dl_name_match_p)
/usr/lib/gcc-cross/arm-linux-gnueabihf/14/../../../../arm-linux-gnueabihf/lib/libc.a(dl-object.o)
                              /usr/lib/gcc-cross/arm-linux-gnueabihf/14/../../../../arm-linux-gnueabihf/lib/libc.a(dl-support.o) (_dl_add_to_namespace_list)
/usr/lib/gcc-cross/arm-linux-gnueabihf/14/../../../../arm-linux-gnueabihf/lib/libc.a(dl-origin.o)
                              /usr/lib/gcc-cross/arm-linux-gnueabihf/14/../../../../arm-linux-gnueabihf/lib/libc.a(dl-support.o) (_dl_get_origin)
/usr/lib/gcc-cross/arm-linux-gnueabihf/14/../../../../arm-linux-gnueabihf/lib/libc.a(dl-printf.o)
                              /usr/lib/gcc-cross/arm-linux-gnueabihf/14/../../../../arm-linux-gnueabihf/lib/libc.a(dl-support.o) (_dl_debug_printf)
/usr/lib/gcc-cross/arm-linux-gnueabihf/14/../../../../arm-linux-gnueabihf/lib/libc.a(dl-reloc.o)
                              /usr/lib/gcc-cross/arm-linux-gnueabihf/14/../../../../arm-linux-gnueabihf/lib/libc.a(dl-support.o) (_dl_protect_relro)
/usr/lib/gcc-cross/arm-linux-gnueabihf/14/../../../../arm-linux-gnueabihf/lib/libc.a(dl-scope.o)
                              /usr/lib/gcc-cross/arm-linux-gnueabihf/14/../../../../arm-linux-gnueabihf/lib/libc.a(dl-lookup.o) (_dl_scope_free)
/usr/lib/gcc-cross/arm-linux-gnueabihf/14/../../../../arm-linux-gnueabihf/lib/libc.a(dl-setup_hash.o)
                              /usr/lib/gcc-cross/arm-linux-gnueabihf/14/../../../../arm-linux-gnueabihf/lib/libc.a(dl-support.o) (_dl_setup_hash)
/usr/lib/gcc-cross/arm-linux-gnueabihf/14/../../../../arm-linux-gnueabihf/lib/libc.a(dl-thread_gscope_wait.o)
                              /usr/lib/gcc-cross/arm-linux-gnueabihf/14/../../../../arm-linux-gnueabihf/lib/libc.a(dl-scope.o) (__thread_gscope_wait)
/usr/lib/gcc-cross/arm-linux-gnueabihf/14/../../../../arm-linux-gnueabihf/lib/libc.a(dl-trampoline.o)
                              /usr/lib/gcc-cross/arm-linux-gnueabihf/14/../../../../arm-linux-gnueabihf/lib/libc.a(dl-reloc.o) (_dl_runtime_resolve)
/usr/lib/gcc-cross/arm-linux-gnueabihf/14/../../../../arm-linux-gnueabihf/lib/libc.a(dl-cache.o)
                              /usr/lib/gcc-cross/arm-linux-gnueabihf/14/../../../../arm-linux-gnueabihf/lib/libc.a(dl-load.o) (_dl_load_cache_lookup)
/usr/lib/gcc-cross/arm-linux-gnueabihf/14/../../../../arm-linux-gnueabihf/lib/libc.a(dl-tlsdesc.o)
                              /usr/lib/gcc-cross/arm-linux-gnueabihf/14/../../../../arm-linux-gnueabihf/lib/libc.a(dl-reloc.o) (_dl_tlsdesc_return)
/usr/lib/gcc-cross/arm-linux-gnueabihf/14/../../../../arm-linux-gnueabihf/lib/libc.a(dl-libc.o)
                              /usr/lib/gcc-cross/arm-linux-gnueabihf/14/../../../../arm-linux-gnueabihf/lib/libc.a(gconv_dl.o) (__libc_dlopen_mode)
/usr/lib/gcc-cross/arm-linux-gnueabihf/14/../../../../arm-linux-gnueabihf/lib/libc.a(gconv_open.o)
                              /usr/lib/gcc-cross/arm-linux-gnueabihf/14/../../../../arm-linux-gnueabihf/lib/libc.a(dcigettext.o) (__gconv_open)
/usr/lib/gcc-cross/arm-linux-gnueabihf/14/../../../../arm-linux-gnueabihf/lib/libc.a(gconv.o)
                              /usr/lib/gcc-cross/arm-linux-gnueabihf/14/../../../../arm-linux-gnueabihf/lib/libc.a(dcigettext.o) (__gconv)
/usr/lib/gcc-cross/arm-linux-gnueabihf/14/../../../../arm-linux-gnueabihf/lib/libc.a(gconv_close.o)
                              /usr/lib/gcc-cross/arm-linux-gnueabihf/14/../../../../arm-linux-gnueabihf/lib/libc.a(loadmsgcat.o) (__gconv_close)
/usr/lib/gcc-cross/arm-linux-gnueabihf/14/../../../../arm-linux-gnueabihf/lib/libc.a(gconv_charset.o)
                              /usr/lib/gcc-cross/arm-linux-gnueabihf/14/../../../../arm-linux-gnueabihf/lib/libc.a(dcigettext.o) (__gconv_create_spec)
/usr/lib/gcc-cross/arm-linux-gnueabihf/14/../../../../arm-linux-gnueabihf/lib/libc.a(findlocale.o)
                              /usr/lib/gcc-cross/arm-linux-gnueabihf/14/../../../../arm-linux-gnueabihf/lib/libc.a(setlocale.o) (_nl_find_locale)
/usr/lib/gcc-cross/arm-linux-gnueabihf/14/../../../../arm-linux-gnueabihf/lib/libc.a(loadarchive.o)
                              /usr/lib/gcc-cross/arm-linux-gnueabihf/14/../../../../arm-linux-gnueabihf/lib/libc.a(findlocale.o) (_nl_load_locale_from_archive)
/usr/lib/gcc-cross/arm-linux-gnueabihf/14/../../../../arm-linux-gnueabihf/lib/libc.a(loadlocale.o)
                              /usr/lib/gcc-cross/arm-linux-gnueabihf/14/../../../../arm-linux-gnueabihf/lib/libc.a(loadarchive.o) (_nl_intern_locale_data)
/usr/lib/gcc-cross/arm-linux-gnueabihf/14/../../../../arm-linux-gnueabihf/lib/libc.a(C-address.o)
                              /usr/lib/gcc-cross/arm-linux-gnueabihf/14/../../../../arm-linux-gnueabihf/lib/libc.a(xlocale.o) (_nl_C_LC_ADDRESS)
/usr/lib/gcc-cross/arm-linux-gnueabihf/14/../../../../arm-linux-gnueabihf/lib/libc.a(C-collate.o)
                              /usr/lib/gcc-cross/arm-linux-gnueabihf/14/../../../../arm-linux-gnueabihf/lib/libc.a(xlocale.o) (_nl_C_LC_COLLATE)
/usr/lib/gcc-cross/arm-linux-gnueabihf/14/../../../../arm-linux-gnueabihf/lib/libc.a(C-ctype.o)
                              /usr/lib/gcc-cross/arm-linux-gnueabihf/14/../../../../arm-linux-gnueabihf/lib/libc.a(xlocale.o) (_nl_C_LC_CTYPE)
/usr/lib/gcc-cross/arm-linux-gnueabihf/14/../../../../arm-linux-gnueabihf/lib/libc.a(C-identification.o)
                              /usr/lib/gcc-cross/arm-linux-gnueabihf/14/../../../../arm-linux-gnueabihf/lib/libc.a(xlocale.o) (_nl_C_LC_IDENTIFICATION)
/usr/lib/gcc-cross/arm-linux-gnueabihf/14/../../../../arm-linux-gnueabihf/lib/libc.a(C-measurement.o)
                              /usr/lib/gcc-cross/arm-linux-gnueabihf/14/../../../../arm-linux-gnueabihf/lib/libc.a(xlocale.o) (_nl_C_LC_MEASUREMENT)
/usr/lib/gcc-cross/arm-linux-gnueabihf/14/../../../../arm-linux-gnueabihf/lib/libc.a(C-messages.o)
                              /usr/lib/gcc-cross/arm-linux-gnueabihf/14/../../../../arm-linux-gnueabihf/lib/libc.a(xlocale.o) (_nl_C_LC_MESSAGES)
/usr/lib/gcc-cross/arm-linux-gnueabihf/14/../../../../arm-linux-gnueabihf/lib/libc.a(C-monetary.o)
                              /usr/lib/gcc-cross/arm-linux-gnueabihf/14/../../../../arm-linux-gnueabihf/lib/libc.a(xlocale.o) (_nl_C_LC_MONETARY)
/usr/lib/gcc-cross/arm-linux-gnueabihf/14/../../../../arm-linux-gnueabihf/lib/libc.a(C-name.o)
                              /usr/lib/gcc-cross/arm-linux-gnueabihf/14/../../../../arm-linux-gnueabihf/lib/libc.a(xlocale.o) (_nl_C_LC_NAME)
/usr/lib/gcc-cross/arm-linux-gnueabihf/14/../../../../arm-linux-gnueabihf/lib/libc.a(C-numeric.o)
                              /usr/lib/gcc-cross/arm-linux-gnueabihf/14/../../../../arm-linux-gnueabihf/lib/libc.a(xlocale.o) (_nl_C_LC_NUMERIC)
/usr/lib/gcc-cross/arm-linux-gnueabihf/14/../../../../arm-linux-gnueabihf/lib/libc.a(C-paper.o)
                              /usr/lib/gcc-cross/arm-linux-gnueabihf/14/../../../../arm-linux-gnueabihf/lib/libc.a(xlocale.o) (_nl_C_LC_PAPER)
/usr/lib/gcc-cross/arm-linux-gnueabihf/14/../../../../arm-linux-gnueabihf/lib/libc.a(C-telephone.o)
                              /usr/lib/gcc-cross/arm-linux-gnueabihf/14/../../../../arm-linux-gnueabihf/lib/libc.a(xlocale.o) (_nl_C_LC_TELEPHONE)
/usr/lib/gcc-cross/arm-linux-gnueabihf/14/../../../../arm-linux-gnueabihf/lib/libc.a(C-time.o)
                              /usr/lib/gcc-cross/arm-linux-gnueabihf/14/../../../../arm-linux-gnueabihf/lib/libc.a(xlocale.o) (_nl_C_LC_TIME)
/usr/lib/gcc-cross/arm-linux-gnueabihf/14/../../../../arm-linux-gnueabihf/lib/libc.a(localename.o)
                              /usr/lib/gcc-cross/arm-linux-gnueabihf/14/../../../../arm-linux-gnueabihf/lib/libc.a(dcigettext.o) (__current_locale_name)
/usr/lib/gcc-cross/arm-linux-gnueabihf/14/../../../../arm-linux-gnueabihf/lib/libc.a(__longjmp.o)
                              /usr/lib/gcc-cross/arm-linux-gnueabihf/14/../../../../arm-linux-gnueabihf/lib/libc.a(dl-catch.o) (__longjmp)
/usr/lib/gcc-cross/arm-linux-gnueabihf/14/../../../../arm-linux-gnueabihf/lib/libc.a(divrem.o)
                              /usr/lib/gcc-cross/arm-linux-gnueabihf/14/../../../../arm-linux-gnueabihf/lib/libc.a(printf_fp.o) (__mpn_divrem)
/usr/lib/gcc-cross/arm-linux-gnueabihf/14/../../../../arm-linux-gnueabihf/lib/libc.a(dbl2mpn.o)
                              /usr/lib/gcc-cross/arm-linux-gnueabihf/14/../../../../arm-linux-gnueabihf/lib/libc.a(printf_fp.o) (__mpn_extract_double)
/usr/lib/gcc-cross/arm-linux-gnueabihf/14/../../../../arm-linux-gnueabihf/lib/libc.a(printf_buffer_as_file.o)
                              /usr/lib/gcc-cross/arm-linux-gnueabihf/14/../../../../arm-linux-gnueabihf/lib/libc.a(printf_function_invoke.o) (__printf_buffer_as_file_init)
/usr/lib/gcc-cross/arm-linux-gnueabihf/14/../../../../arm-linux-gnueabihf/lib/libc.a(printf_buffer_flush.o)
                              /usr/lib/gcc-cross/arm-linux-gnueabihf/14/../../../../arm-linux-gnueabihf/lib/libc.a(printf_buffer_pad_1.o) (__printf_buffer_flush)
/usr/lib/gcc-cross/arm-linux-gnueabihf/14/../../../../arm-linux-gnueabihf/lib/libc.a(wprintf_buffer_done.o)
                              /usr/lib/gcc-cross/arm-linux-gnueabihf/14/../../../../arm-linux-gnueabihf/lib/libc.a(wprintf_buffer_to_file.o) (__wprintf_buffer_done)
/usr/lib/gcc-cross/arm-linux-gnueabihf/14/../../../../arm-linux-gnueabihf/lib/libc.a(wprintf_buffer_flush.o)
                              /usr/lib/gcc-cross/arm-linux-gnueabihf/14/../../../../arm-linux-gnueabihf/lib/libc.a(wprintf_buffer_putc_1.o) (__wprintf_buffer_flush)
/usr/lib/gcc-cross/arm-linux-gnueabihf/14/../../../../arm-linux-gnueabihf/lib/libc.a(iogetline.o)
                              /usr/lib/gcc-cross/arm-linux-gnueabihf/14/../../../../arm-linux-gnueabihf/lib/libc.a(iofgets_u.o) (_IO_getline)
/usr/lib/gcc-cross/arm-linux-gnueabihf/14/../../../../arm-linux-gnueabihf/lib/libc.a(vasprintf.o)
                              /usr/lib/gcc-cross/arm-linux-gnueabihf/14/../../../../arm-linux-gnueabihf/lib/libc.a(asprintf_chk.o) (__vasprintf_internal)
/usr/lib/gcc-cross/arm-linux-gnueabihf/14/../../../../arm-linux-gnueabihf/lib/libc.a(cleanup_compat.o)
                              /usr/lib/gcc-cross/arm-linux-gnueabihf/14/../../../../arm-linux-gnueabihf/lib/libc.a(pthread_once.o) (__pthread_cleanup_push)
/usr/lib/gcc-cross/arm-linux-gnueabihf/14/../../../../arm-linux-gnueabihf/lib/libc.a(nptl-stack.o)
                              /usr/lib/gcc-cross/arm-linux-gnueabihf/14/../../../../arm-linux-gnueabihf/lib/libc.a(pthread_mutex_conf.o) (__nptl_stack_hugetlb)
/usr/lib/gcc-cross/arm-linux-gnueabihf/14/../../../../arm-linux-gnueabihf/lib/libc.a(memmem.o)
                              /usr/lib/gcc-cross/arm-linux-gnueabihf/14/../../../../arm-linux-gnueabihf/lib/libc.a(findlocale.o) (__memmem)
/usr/lib/gcc-cross/arm-linux-gnueabihf/14/../../../../arm-linux-gnueabihf/lib/libc.a(strndup.o)
                              /usr/lib/gcc-cross/arm-linux-gnueabihf/14/../../../../arm-linux-gnueabihf/lib/libc.a(findlocale.o) (__strndup)
/usr/lib/gcc-cross/arm-linux-gnueabihf/14/../../../../arm-linux-gnueabihf/lib/libc.a(strsep.o)
                              /usr/lib/gcc-cross/arm-linux-gnueabihf/14/../../../../arm-linux-gnueabihf/lib/libc.a(dl-load.o) (__strsep)
/usr/lib/gcc-cross/arm-linux-gnueabihf/14/../../../../arm-linux-gnueabihf/lib/libc.a(strspn.o)
                              /usr/lib/gcc-cross/arm-linux-gnueabihf/14/../../../../arm-linux-gnueabihf/lib/libc.a(strtok_r.o) (strspn)
/usr/lib/gcc-cross/arm-linux-gnueabihf/14/../../../../arm-linux-gnueabihf/lib/libc.a(clock_nanosleep.o)
                              /usr/lib/gcc-cross/arm-linux-gnueabihf/14/../../../../arm-linux-gnueabihf/lib/libc.a(nanosleep.o) (__clock_nanosleep_time64)
/usr/lib/gcc-cross/arm-linux-gnueabihf/14/../../../../arm-linux-gnueabihf/lib/libc.a(lc-time-cleanup.o)
                              /usr/lib/gcc-cross/arm-linux-gnueabihf/14/../../../../arm-linux-gnueabihf/lib/libc.a(loadlocale.o) (_nl_cleanup_time)
/usr/lib/gcc-cross/arm-linux-gnueabihf/14/../../../../arm-linux-gnueabihf/lib/libc.a(fdopendir.o)
                              /usr/lib/gcc-cross/arm-linux-gnueabihf/14/../../../../arm-linux-gnueabihf/lib/libc.a(getcwd.o) (__fdopendir)
/usr/lib/gcc-cross/arm-linux-gnueabihf/14/../../../../arm-linux-gnueabihf/lib/libc.a(rewinddir.o)
                              /usr/lib/gcc-cross/arm-linux-gnueabihf/14/../../../../arm-linux-gnueabihf/lib/libc.a(getcwd.o) (__rewinddir)
/usr/lib/gcc-cross/arm-linux-gnueabihf/14/../../../../arm-linux-gnueabihf/lib/libc.a(sysconf.o)
                              /usr/lib/gcc-cross/arm-linux-gnueabihf/14/../../../../arm-linux-gnueabihf/lib/libc.a(loadarchive.o) (__sysconf)
/usr/lib/gcc-cross/arm-linux-gnueabihf/14/../../../../arm-linux-gnueabihf/lib/libc.a(stat64.o)
                              /usr/lib/gcc-cross/arm-linux-gnueabihf/14/../../../../arm-linux-gnueabihf/lib/libc.a(dl-load.o) (__stat64_time64)
/usr/lib/gcc-cross/arm-linux-gnueabihf/14/../../../../arm-linux-gnueabihf/lib/libc.a(getclktck.o)
                              /usr/lib/gcc-cross/arm-linux-gnueabihf/14/../../../../arm-linux-gnueabihf/lib/libc.a(sysconf.o) (__getclktck)
/usr/lib/gcc-cross/arm-linux-gnueabihf/14/../../../../arm-linux-gnueabihf/lib/libc.a(getdtsz.o)
                              /usr/lib/gcc-cross/arm-linux-gnueabihf/14/../../../../arm-linux-gnueabihf/lib/libc.a(sysconf.o) (__getdtablesize)
/usr/lib/gcc-cross/arm-linux-gnueabihf/14/../../../../arm-linux-gnueabihf/lib/libc.a(dl-close.o)
                              /usr/lib/gcc-cross/arm-linux-gnueabihf/14/../../../../arm-linux-gnueabihf/lib/libc.a(dl-libc.o) (_dl_close)
/usr/lib/gcc-cross/arm-linux-gnueabihf/14/../../../../arm-linux-gnueabihf/lib/libc.a(dl-execstack.o)
                              /usr/lib/gcc-cross/arm-linux-gnueabihf/14/../../../../arm-linux-gnueabihf/lib/libc.a(dl-execstack-tunable.o) (_dl_make_stack_executable)
/usr/lib/gcc-cross/arm-linux-gnueabihf/14/../../../../arm-linux-gnueabihf/lib/libc.a(dl-open.o)
                              /usr/lib/gcc-cross/arm-linux-gnueabihf/14/../../../../arm-linux-gnueabihf/lib/libc.a(dl-libc.o) (_dl_open)
/usr/lib/gcc-cross/arm-linux-gnueabihf/14/../../../../arm-linux-gnueabihf/lib/libc.a(dl-runtime.o)
                              /usr/lib/gcc-cross/arm-linux-gnueabihf/14/../../../../arm-linux-gnueabihf/lib/libc.a(dl-trampoline.o) (_dl_fixup)
/usr/lib/gcc-cross/arm-linux-gnueabihf/14/../../../../arm-linux-gnueabihf/lib/libc.a(dl-sort-maps.o)
                              /usr/lib/gcc-cross/arm-linux-gnueabihf/14/../../../../arm-linux-gnueabihf/lib/libc.a(dl-close.o) (_dl_sort_maps)
/usr/lib/gcc-cross/arm-linux-gnueabihf/14/../../../../arm-linux-gnueabihf/lib/libc.a(dl-version.o)
                              /usr/lib/gcc-cross/arm-linux-gnueabihf/14/../../../../arm-linux-gnueabihf/lib/libc.a(dl-open.o) (_dl_check_map_versions)
/usr/lib/gcc-cross/arm-linux-gnueabihf/14/../../../../arm-linux-gnueabihf/lib/libc.a(tlsdesc.o)
                              /usr/lib/gcc-cross/arm-linux-gnueabihf/14/../../../../arm-linux-gnueabihf/lib/libc.a(dl-close.o) (_dl_unmap)
/usr/lib/gcc-cross/arm-linux-gnueabihf/14/../../../../arm-linux-gnueabihf/lib/libc.a(dl-addr-obj.o)
                              /usr/lib/gcc-cross/arm-linux-gnueabihf/14/../../../../arm-linux-gnueabihf/lib/libc.a(dl-open.o) (_dl_addr_inside_object)
/usr/lib/gcc-cross/arm-linux-gnueabihf/14/../../../../arm-linux-gnueabihf/lib/libc.a(dl-find_object.o)
                              /usr/lib/gcc-cross/arm-linux-gnueabihf/14/../../../../arm-linux-gnueabihf/lib/libc.a(dl-open.o) (_dl_find_object_update)
/usr/lib/gcc-cross/arm-linux-gnueabihf/14/../../../../arm-linux-gnueabihf/lib/libc.a(rtld_static_init.o)
                              /usr/lib/gcc-cross/arm-linux-gnueabihf/14/../../../../arm-linux-gnueabihf/lib/libc.a(dl-open.o) (__rtld_static_init)
/usr/lib/gcc-cross/arm-linux-gnueabihf/14/../../../../arm-linux-gnueabihf/lib/libc.a(dladdr.o)
                              /usr/lib/gcc-cross/arm-linux-gnueabihf/14/../../../../arm-linux-gnueabihf/lib/libc.a(rtld_static_init.o) (__dladdr)
/usr/lib/gcc-cross/arm-linux-gnueabihf/14/../../../../arm-linux-gnueabihf/lib/libc.a(dladdr1.o)
                              /usr/lib/gcc-cross/arm-linux-gnueabihf/14/../../../../arm-linux-gnueabihf/lib/libc.a(rtld_static_init.o) (__dladdr1)
/usr/lib/gcc-cross/arm-linux-gnueabihf/14/../../../../arm-linux-gnueabihf/lib/libc.a(dlclose.o)
                              /usr/lib/gcc-cross/arm-linux-gnueabihf/14/../../../../arm-linux-gnueabihf/lib/libc.a(rtld_static_init.o) (__dlclose)
/usr/lib/gcc-cross/arm-linux-gnueabihf/14/../../../../arm-linux-gnueabihf/lib/libc.a(dlerror.o)
                              /usr/lib/gcc-cross/arm-linux-gnueabihf/14/../../../../arm-linux-gnueabihf/lib/libc.a(rtld_static_init.o) (__dlerror)
/usr/lib/gcc-cross/arm-linux-gnueabihf/14/../../../../arm-linux-gnueabihf/lib/libc.a(dlinfo.o)
                              /usr/lib/gcc-cross/arm-linux-gnueabihf/14/../../../../arm-linux-gnueabihf/lib/libc.a(rtld_static_init.o) (__dlinfo)
/usr/lib/gcc-cross/arm-linux-gnueabihf/14/../../../../arm-linux-gnueabihf/lib/libc.a(dlmopen.o)
                              /usr/lib/gcc-cross/arm-linux-gnueabihf/14/../../../../arm-linux-gnueabihf/lib/libc.a(rtld_static_init.o) (__dlmopen)
/usr/lib/gcc-cross/arm-linux-gnueabihf/14/../../../../arm-linux-gnueabihf/lib/libc.a(dlopen.o)
                              /usr/lib/gcc-cross/arm-linux-gnueabihf/14/../../../../arm-linux-gnueabihf/lib/libc.a(rtld_static_init.o) (__dlopen)
/usr/lib/gcc-cross/arm-linux-gnueabihf/14/../../../../arm-linux-gnueabihf/lib/libc.a(dlsym.o)
                              /usr/lib/gcc-cross/arm-linux-gnueabihf/14/../../../../arm-linux-gnueabihf/lib/libc.a(rtld_static_init.o) (__dlsym)
/usr/lib/gcc-cross/arm-linux-gnueabihf/14/../../../../arm-linux-gnueabihf/lib/libc.a(dlvsym.o)
                              /usr/lib/gcc-cross/arm-linux-gnueabihf/14/../../../../arm-linux-gnueabihf/lib/libc.a(rtld_static_init.o) (__dlvsym)
/usr/lib/gcc-cross/arm-linux-gnueabihf/14/../../../../arm-linux-gnueabihf/lib/libc.a(libc_dlerror_result.o)
                              /usr/lib/gcc-cross/arm-linux-gnueabihf/14/../../../../arm-linux-gnueabihf/lib/libc.a(dlerror.o) (__libc_dlerror_result)
/usr/lib/gcc-cross/arm-linux-gnueabihf/14/../../../../arm-linux-gnueabihf/lib/libc.a(get_child_max.o)
                              /usr/lib/gcc-cross/arm-linux-gnueabihf/14/../../../../arm-linux-gnueabihf/lib/libc.a(sysconf.o) (__get_child_max)
/usr/lib/gcc-cross/arm-linux-gnueabihf/14/../../../../arm-linux-gnueabihf/lib/libc.a(atomic_wide_counter.o)
                              /usr/lib/gcc-cross/arm-linux-gnueabihf/14/../../../../arm-linux-gnueabihf/lib/libc.a(dl-find_object.o) (__atomic_wide_counter_fetch_add_relaxed)
/usr/lib/gcc-cross/arm-linux-gnueabihf/14/../../../../arm-linux-gnueabihf/lib/libc.a(dl-call-libc-early-init.o)
                              /usr/lib/gcc-cross/arm-linux-gnueabihf/14/../../../../arm-linux-gnueabihf/lib/libc.a(dl-open.o) (_dl_call_libc_early_init)
/usr/lib/gcc-cross/arm-linux-gnueabihf/14/../../../../arm-linux-gnueabihf/lib/libc.a(dl-call_fini.o)
                              /usr/lib/gcc-cross/arm-linux-gnueabihf/14/../../../../arm-linux-gnueabihf/lib/libc.a(dl-close.o) (_dl_call_fini)
/usr/lib/gcc-cross/arm-linux-gnueabihf/14/../../../../arm-linux-gnueabihf/lib/libc.a(dl-deps.o)
                              /usr/lib/gcc-cross/arm-linux-gnueabihf/14/../../../../arm-linux-gnueabihf/lib/libc.a(dl-open.o) (_dl_map_object_deps)
/usr/lib/gcc-cross/arm-linux-gnueabihf/14/../../../../arm-linux-gnueabihf/lib/libc.a(dl-init.o)
                              /usr/lib/gcc-cross/arm-linux-gnueabihf/14/../../../../arm-linux-gnueabihf/lib/libc.a(dl-open.o) (_dl_init)
/usr/lib/gcc-cross/arm-linux-gnueabihf/14/../../../../arm-linux-gnueabihf/lib/libc.a(dl-lookup-direct.o)
                              /usr/lib/gcc-cross/arm-linux-gnueabihf/14/../../../../arm-linux-gnueabihf/lib/libc.a(rtld_static_init.o) (_dl_lookup_direct)
/usr/lib/gcc-cross/arm-linux-gnueabihf/14/../../../../arm-linux-gnueabihf/lib/libc.a(dl-addr.o)
                              /usr/lib/gcc-cross/arm-linux-gnueabihf/14/../../../../arm-linux-gnueabihf/lib/libc.a(dladdr.o) (_dl_addr)
/usr/lib/gcc-cross/arm-linux-gnueabihf/14/../../../../arm-linux-gnueabihf/lib/libc.a(dl-sym.o)
                              /usr/lib/gcc-cross/arm-linux-gnueabihf/14/../../../../arm-linux-gnueabihf/lib/libc.a(dlvsym.o) (_dl_vsym)
/usr/lib/gcc-cross/arm-linux-gnueabihf/14/../../../../arm-linux-gnueabihf/lib/libc.a(asprintf.o)
                              /usr/lib/gcc-cross/arm-linux-gnueabihf/14/../../../../arm-linux-gnueabihf/lib/libc.a(dlerror.o) (__asprintf)
/usr/lib/gcc-cross/arm-linux-gnueabihf/14/libgcc.a(_udivsi3.o)
                              build/memio.o (__aeabi_uidiv)
/usr/lib/gcc-cross/arm-linux-gnueabihf/14/libgcc.a(_divsi3.o)
                              build/am_map.o (__aeabi_idiv)
/usr/lib/gcc-cross/arm-linux-gnueabihf/14/libgcc.a(_aeabi_ldivmod.o)
                              build/i_timer.o (__aeabi_ldivmod)
/usr/lib/gcc-cross/arm-linux-gnueabihf/14/libgcc.a(_dvmd_lnx.o)
                              /usr/lib/gcc-cross/arm-linux-gnueabihf/14/libgcc.a(_aeabi_ldivmod.o) (__aeabi_ldiv0)
/usr/lib/gcc-cross/arm-linux-gnueabihf/14/libgcc.a(_udivmoddi4.o)
                              /usr/lib/gcc-cross/arm-linux-gnueabihf/14/libgcc.a(_aeabi_ldivmod.o) (__udivmoddi4)
/usr/lib/gcc-cross/arm-linux-gnueabihf/14/libgcc_eh.a(unwind-arm.o)
                              /usr/lib/gcc-cross/arm-linux-gnueabihf/14/../../../../arm-linux-gnueabihf/lib/libc.a(libc-start.o) (__aeabi_unwind_cpp_pr0)
/usr/lib/gcc-cross/arm-linux-gnueabihf/14/libgcc_eh.a(libunwind.o)
                              /usr/lib/gcc-cross/arm-linux-gnueabihf/14/libgcc_eh.a(unwind-arm.o) (restore_core_regs)
/usr/lib/gcc-cross/arm-linux-gnueabihf/14/libgcc_eh.a(pr-support.o)
                              /usr/lib/gcc-cross/arm-linux-gnueabihf/14/libgcc_eh.a(unwind-arm.o) (__gnu_unwind_execute)
/usr/lib/gcc-cross/arm-linux-gnueabihf/14/libgcc_eh.a(unwind-c.o)
                              /usr/lib/gcc-cross/arm-linux-gnueabihf/14/../../../../arm-linux-gnueabihf/lib/libc.a(iofclose.o) (__gcc_personality_v0)

Discarded input sections

 .gnu.warning.dlmopen
                0x00000000        0x0 /usr/lib/gcc-cross/arm-linux-gnueabihf/14/../../../../arm-linux-gnueabihf/lib/libc.a(dlmopen.o)
 .gnu.warning.dlopen
                0x00000000        0x0 /usr/lib/gcc-cross/arm-linux-gnueabihf/14/../../../../arm-linux-gnueabihf/lib/libc.a(dlopen.o)

Memory Configuration

Name             Origin             Length             Attributes
*default*        0x00000000         0xffffffff

Linker script and memory map

LOAD /usr/lib/gcc-cross/arm-linux-gnueabihf/14/../../../../arm-linux-gnueabihf/lib/crt1.o
LOAD /usr/lib/gcc-cross/arm-linux-gnueabihf/14/../../../../arm-linux-gnueabihf/lib/crti.o
LOAD /usr/lib/gcc-cross/arm-linux-gnueabihf/14/crtbeginT.o
LOAD build/i_video_fbdev.o
LOAD build/i_input_tty.o
LOAD build/i_main.o
LOAD build/dummy.o
LOAD build/am_map.o
LOAD build/doomdef.o
LOAD build/doomstat.o
LOAD build/dstrings.o
LOAD build/d_event.o
LOAD build/d_items.o
LOAD build/d_iwad.o
LOAD build/d_loop.o
LOAD build/d_main.o
LOAD build/d_mode.o
LOAD build/d_net.o
LOAD build/f_finale.o
LOAD build/f_wipe.o
LOAD build/g_game.o
LOAD build/hu_lib.o
LOAD build/hu_stuff.o
LOAD build/info.o
LOAD build/i_cdmus.o
LOAD build/i_endoom.o
LOAD build/i_joystick.o
LOAD build/i_scale.o
LOAD build/i_sound.o
LOAD build/i_system.o
LOAD build/i_timer.o
LOAD build/memio.o
LOAD build/m_argv.o
LOAD build/m_bbox.o
LOAD build/m_cheat.o
LOAD build/m_config.o
LOAD build/m_controls.o
LOAD build/m_fixed.o
LOAD build/m_menu.o
LOAD build/m_misc.o
LOAD build/m_random.o
LOAD build/p_ceilng.o
LOAD build/p_doors.o
LOAD build/p_enemy.o
LOAD build/p_floor.o
LOAD build/p_inter.o
LOAD build/p_lights.o
LOAD build/p_map.o
LOAD build/p_maputl.o
LOAD build/p_mobj.o
LOAD build/p_plats.o
LOAD build/p_pspr.o
LOAD build/p_saveg.o
LOAD build/p_setup.o
LOAD build/p_sight.o
LOAD build/p_spec.o
LOAD build/p_switch.o
LOAD build/p_telept.o
LOAD build/p_tick.o
LOAD build/p_user.o
LOAD build/r_bsp.o
LOAD build/r_data.o
LOAD build/r_draw.o
LOAD build/r_main.o
LOAD build/r_plane.o
LOAD build/r_segs.o
LOAD build/r_sky.o
LOAD build/r_things.o
LOAD build/sha1.o
LOAD build/sounds.o
LOAD build/statdump.o
LOAD build/st_lib.o
LOAD build/st_stuff.o
LOAD build/s_sound.o
LOAD build/tables.o
LOAD build/v_video.o
LOAD build/wi_stuff.o
LOAD build/w_checksum.o
LOAD build/w_file.o
LOAD build/w_file_stdc_unbuffered.o
LOAD build/w_main.o
LOAD build/w_wad.o
LOAD build/z_zone.o
LOAD /usr/lib/gcc-cross/arm-linux-gnueabihf/14/../../../../arm-linux-gnueabihf/lib/libm.a
LOAD /usr/lib/gcc-cross/arm-linux-gnueabihf/14/../../../../arm-linux-gnueabihf/lib/libc.a
START GROUP
LOAD /usr/lib/gcc-cross/arm-linux-gnueabihf/14/libgcc.a
LOAD /usr/lib/gcc-cross/arm-linux-gnueabihf/14/libgcc_eh.a
LOAD /usr/lib/gcc-cross/arm-linux-gnueabihf/14/../../../../arm-linux-gnueabihf/lib/libc.a
END GROUP
LOAD /usr/lib/gcc-cross/arm-linux-gnueabihf/14/crtend.o
LOAD /usr/lib/gcc-cross/arm-linux-gnueabihf/14/../../../../arm-linux-gnueabihf/lib/crtn.o
                [!provide]                        PROVIDE (__executable_start = SEGMENT_START ("text-segment", 0x10000))
                0x00010134                        . = (SEGMENT_START ("text-segment", 0x10000) + SIZEOF_HEADERS)

.note.gnu.build-id
                0x00010134       0x24
 *(.note.gnu.build-id)
 .note.gnu.build-id
                0x00010134       0x24 linker stubs

.interp
 *(.interp)

.hash
 *(.hash)

.gnu.hash
 *(.gnu.hash)

.dynsym
 *(.dynsym)

.dynstr
 *(.dynstr)

.gnu.version
 *(.gnu.version)

.gnu.version_d
 *(.gnu.version_d)

.gnu.version_r
 *(.gnu.version_r)

.rel.dyn        0x00010158       0x10
 *(.rel.init)
 *(.rel.text .rel.text.* .rel.gnu.linkonce.t.*)
 *(.rel.fini)
 *(.rel.rodata .rel.rodata.* .rel.gnu.linkonce.r.*)
 *(.rel.data.rel.ro .rel.data.rel.ro.* .rel.gnu.linkonce.d.rel.ro.*)
 *(.rel.data .rel.data.* .rel.gnu.linkonce.d.*)
 *(.rel.tdata .rel.tdata.* .rel.gnu.linkonce.td.*)
 *(.rel.tbss .rel.tbss.* .rel.gnu.linkonce.tb.*)
 *(.rel.ctors)
 *(.rel.dtors)
 *(.rel.got)
 .rel.got       0x00010158        0x0 /usr/lib/gcc-cross/arm-linux-gnueabihf/14/../../../../arm-linux-gnueabihf/lib/crt1.o
 *(.rel.bss .rel.bss.* .rel.gnu.linkonce.b.*)
                0x00010158                        PROVIDE (__rel_iplt_start = .)
 *(.rel.iplt)
 .rel.iplt      0x00010158       0x10 /usr/lib/gcc-cross/arm-linux-gnueabihf/14/../../../../arm-linux-gnueabihf/lib/crt1.o
                0x00010168                        PROVIDE (__rel_iplt_end = .)

.rela.dyn       0x00010168        0x0
 *(.rela.init)
 *(.rela.text .rela.text.* .rela.gnu.linkonce.t.*)
 *(.rela.fini)
 *(.rela.rodata .rela.rodata.* .rela.gnu.linkonce.r.*)
 *(.rela.data .rela.data.* .rela.gnu.linkonce.d.*)
 *(.rela.tdata .rela.tdata.* .rela.gnu.linkonce.td.*)
 *(.rela.tbss .rela.tbss.* .rela.gnu.linkonce.tb.*)
 *(.rela.ctors)
 *(.rela.dtors)
 *(.rela.got)
 *(.rela.bss .rela.bss.* .rela.gnu.linkonce.b.*)
                [!provide]                        PROVIDE (__rela_iplt_start = .)
 *(.rela.iplt)
                [!provide]                        PROVIDE (__rela_iplt_end = .)

.rel.plt
 *(.rel.plt)

.rela.plt
 *(.rela.plt)

.init           0x00010168        0xc
 *(SORT_NONE(.init))
 .init          0x00010168        0x8 /usr/lib/gcc-cross/arm-linux-gnueabihf/14/../../../../arm-linux-gnueabihf/lib/crti.o
                0x00010168                _init
 .init          0x00010170        0x4 /usr/lib/gcc-cross/arm-linux-gnueabihf/14/../../../../arm-linux-gnueabihf/lib/crtn.o

.plt
 *(.plt)

.iplt           0x00010174       0x20
 *(.iplt)
 .iplt          0x00010174       0x20 /usr/lib/gcc-cross/arm-linux-gnueabihf/14/../../../../arm-linux-gnueabihf/lib/crt1.o

.text           0x000101c0    0x7cd90
 *(.text.unlikely .text.*_unlikely .text.unlikely.*)
 .text.unlikely
                0x000101c0       0x68 /usr/lib/gcc-cross/arm-linux-gnueabihf/14/../../../../arm-linux-gnueabihf/lib/libc.a(abort.o)
                0x000101c0                abort
 .text.unlikely
                0x00010228        0x6 /usr/lib/gcc-cross/arm-linux-gnueabihf/14/../../../../arm-linux-gnueabihf/lib/libc.a(init-first.o)
                0x00010228                _dl_start
 .text.unlikely
                0x0001022e        0xc /usr/lib/gcc-cross/arm-linux-gnueabihf/14/libgcc_eh.a(pr-support.o)
                0x0001022e                _Unwind_GetDataRelBase
                0x00010234                _Unwind_GetTextRelBase
 *(.text.exit .text.exit.*)
 *(.text.startup .text.startup.*)
 *fill*         0x0001023a        0x2 
 .text.startup  0x0001023c       0x1c /usr/lib/gcc-cross/arm-linux-gnueabihf/14/../../../../arm-linux-gnueabihf/lib/libc.a(stdfiles.o)
 *(.text.hot .text.hot.*)
 *(SORT_BY_NAME(.text.sorted.*))
 *(.text .stub .text.* .gnu.linkonce.t.*)
 .text          0x00010258       0x34 /usr/lib/gcc-cross/arm-linux-gnueabihf/14/../../../../arm-linux-gnueabihf/lib/crt1.o
                0x00010258                _start
 .text          0x0001028c       0x24 /usr/lib/gcc-cross/arm-linux-gnueabihf/14/../../../../arm-linux-gnueabihf/lib/crti.o
 .text          0x000102b0       0xa8 /usr/lib/gcc-cross/arm-linux-gnueabihf/14/crtbeginT.o
 .text          0x00010358      0xad0 build/i_video_fbdev.o
                0x00010358                cmap_to_rgb565
                0x000103f0                cmap_to_fb
                0x000105b8                I_InitGraphics
                0x0001084c                I_ShutdownGraphics
                0x00010874                I_StartFrame
                0x00010890                I_StartTic
                0x0001089c                I_UpdateNoBlit
                0x000108aa                I_FinishUpdate
                0x00010bb0                I_ReadScreen
                0x00010bd8                I_SetPalette
                0x00010cb0                I_GetPaletteIndex
                0x00010d98                I_BeginRead
                0x00010da6                I_EndRead
                0x00010db4                I_SetWindowTitle
                0x00010dc8                I_GraphicsCheckCommandLine
                0x00010dd6                I_SetGrabMouseCallback
                0x00010dea                I_EnableLoadingDisk
                0x00010df8                I_BindVideoVariables
                0x00010e06                I_DisplayFPSDots
                0x00010e1a                I_CheckIsScreensaver
 .text          0x00010e28      0x52c build/i_input_tty.o
                0x00010e28                tty_is_kbd
                0x00010e9c                kbd_shutdown
                0x00011190                kbd_read
                0x000112ac                I_GetEvent
                0x00011348                I_InitInput
 .text          0x00011354       0x4c build/i_main.o
                0x00011354                main
 .text          0x000113a0        0xe build/dummy.o
                0x000113a0                I_InitTimidityConfig
 *fill*         0x000113ae        0x2 
 .text          0x000113b0     0x2608 build/am_map.o
                0x000113b0                AM_getIslope
                0x00011432                AM_activateNewScale
                0x00011574                AM_saveScaleAndLoc
                0x000115d4                AM_restoreScaleAndLoc
                0x00011720                AM_addMark
                0x000117c8                AM_findMinMaxBoundaries
                0x000119ec                AM_changeWindowLoc
                0x00011c0c                AM_initVariables
                0x00011e3c                AM_loadPics
                0x00011e8c                AM_unloadPics
                0x00011ec8                AM_clearMarks
                0x00011f0c                AM_LevelInit
                0x00011fdc                AM_Stop
                0x00012010                AM_Start
                0x0001209c                AM_minOutWindowScale
                0x000120dc                AM_maxOutWindowScale
                0x0001211c                AM_Responder
                0x0001263c                AM_changeWindowScale
                0x000126cc                AM_doFollowPlayer
                0x0001282c                AM_updateLightLev
                0x000128d4                AM_Ticker
                0x00012948                AM_clearFB
                0x00012984                AM_clipMline
                0x00012e24                AM_drawFline
                0x00012fc4                AM_drawMline
                0x00012ffc                AM_drawGrid
                0x0001316c                AM_drawWalls
                0x00013410                AM_rotate
                0x000134ac                AM_drawLineCharacter
                0x000135ac                AM_drawPlayers
                0x0001372c                AM_drawThings
                0x000137c0                AM_drawMarks
                0x000138e8                AM_drawCrosshair
                0x00013930                AM_Drawer
 .text          0x000139b8        0x0 build/doomdef.o
 .text          0x000139b8        0x0 build/doomstat.o
 .text          0x000139b8        0x0 build/dstrings.o
 .text          0x000139b8       0xd0 build/d_event.o
                0x000139b8                D_PostEvent
                0x00013a18                D_PopEvent
 .text          0x00013a88        0x0 build/d_items.o
 .text          0x00013a88      0x600 build/d_iwad.o
                0x00013cf8                D_FindWADByName
                0x00013dc0                D_TryFindWADByName
                0x00013de4                D_FindIWAD
                0x00013ea0                D_FindAllIWADs
                0x00013f40                D_SaveGameIWADName
                0x00013f98                D_SuggestIWADName
                0x0001400c                D_SuggestGameName
 .text          0x00014088      0x9ac build/d_loop.o
                0x00014268                NetUpdate
                0x00014368                D_ReceiveTic
                0x00014454                D_StartGameLoop
                0x00014484                D_StartNetGame
                0x000144e4                D_InitNetGame
                0x00014518                D_QuitNetGame
                0x0001477c                TryRunTics
                0x00014a14                D_RegisterLoopCallbacks
 .text          0x00014a34     0x1ec8 build/d_main.o
                0x00014a34                D_ProcessEvents
                0x00014a74                D_Display
                0x00014e78                D_BindVariables
                0x00015008                D_GrabMouseCallback
                0x00015080                D_DoomLoop
                0x00015188                D_PageTicker
                0x000151b8                D_PageDrawer
                0x000151e0                D_AdvanceDemo
                0x000151fc                D_DoAdvanceDemo
                0x000154a8                D_StartTitle
                0x000156ac                D_IdentifyVersion
                0x00015810                D_SetGameDescription
                0x00015a28                PrintDehackedBanners
                0x00015cbc                PrintGameVersion
                0x00015db4                D_DoomMain
 .text          0x000168fc      0x2dc build/d_mode.o
                0x000168fc                D_ValidGameMode
                0x00016958                D_ValidEpisodeMap
                0x00016a38                D_GetNumEpisodes
                0x00016a6c                D_ValidGameVersion
                0x00016ae8                D_IsEpisodeMap
                0x00016b2c                D_GameMissionString
 .text          0x00016bd8      0x590 build/d_net.o
                0x00016ff0                D_ConnectNetGame
                0x00017040                D_CheckNetGame
 .text          0x00017168     0x1168 build/f_finale.o
                0x00017168                F_StartFinale
                0x000172ec                F_Responder
                0x00017318                F_Ticker
                0x0001744c                F_TextWrite
                0x000175a4                F_StartCast
                0x00017670                F_CastTicker
                0x00017d10                F_CastResponder
                0x00017e24                F_CastPrint
                0x00017f1c                F_CastDrawer
                0x00017fe8                F_DrawPatchCol
                0x00018084                F_BunnyScroll
                0x00018298                F_Drawer
 .text          0x000182d0      0x730 build/f_wipe.o
                0x000182d0                wipe_shittyColMajorXform
                0x00018366                wipe_initColorXForm
                0x000183a0                wipe_doColorXForm
                0x0001848c                wipe_exitColorXForm
                0x000184a6                wipe_initMelt
                0x0001860c                wipe_doMelt
                0x00018848                wipe_exitMelt
                0x00018890                wipe_StartScreen
                0x000188d0                wipe_EndScreen
                0x00018928                wipe_ScreenWipe
 .text          0x00018a00     0x3b14 build/g_game.o
                0x00018a00                G_CmdChecksum
                0x00018c2c                G_BuildTiccmd
                0x00019794                G_DoLoadLevel
                0x00019bac                G_Responder
                0x00019ed8                G_Ticker
                0x0001a3d0                G_InitPlayer
                0x0001a3e6                G_PlayerFinishLevel
                0x0001a458                G_PlayerReborn
                0x0001a5e8                G_CheckSpot
                0x0001a8e4                G_DeathMatchSpawnPlayer
                0x0001a9c0                G_DoReborn
                0x0001aaec                G_ScreenShot
                0x0001ab08                G_ExitLevel
                0x0001ab30                G_SecretExitLevel
                0x0001ab88                G_DoCompleted
                0x0001b0a0                G_WorldDone
                0x0001b158                G_DoWorldDone
                0x0001b1a0                G_LoadGame
                0x0001b1d0                G_DoLoadGame
                0x0001b2cc                G_SaveGame
                0x0001b308                G_DoSaveGame
                0x0001b48c                G_DeferedInitNew
                0x0001b4d4                G_DoNewGame
                0x0001b5a8                G_InitNew
                0x0001b8c4                G_ReadDemoTiccmd
                0x0001ba68                G_WriteDemoTiccmd
                0x0001bbc4                G_RecordDemo
                0x0001bca0                G_VanillaVersionCode
                0x0001bcf4                G_BeginRecording
                0x0001bf08                G_DeferedPlayDemo
                0x0001c018                G_DoPlayDemo
                0x0001c2ac                G_TimeDemo
                0x0001c310                G_CheckDemoStatus
 .text          0x0001c514      0x6bc build/hu_lib.o
                0x0001c514                HUlib_init
                0x0001c522                HUlib_clearTextLine
                0x0001c548                HUlib_initTextLine
                0x0001c57c                HUlib_addCharToTextLine
                0x0001c5c6                HUlib_delCharFromTextLine
                0x0001c604                HUlib_drawTextLine
                0x0001c70a                HUlib_eraseTextLine
                0x0001c804                HUlib_initSText
                0x0001c87e                HUlib_addLineToSText
                0x0001c8f6                HUlib_addMessageToSText
                0x0001c968                HUlib_drawSText
                0x0001c9d2                HUlib_eraseSText
                0x0001ca42                HUlib_initIText
                0x0001ca7a                HUlib_delCharFromIText
                0x0001ca9e                HUlib_eraseLineFromIText
                0x0001cac6                HUlib_resetIText
                0x0001cae4                HUlib_addPrefixToIText
                0x0001cb18                HUlib_keyInIText
                0x0001cb6c                HUlib_drawIText
                0x0001cb94                HUlib_eraseIText
 .text          0x0001cbd0      0xaac build/hu_stuff.o
                0x0001cbd0                HU_Init
                0x0001cc28                HU_Stop
                0x0001cc44                HU_Start
                0x0001ceac                HU_Drawer
                0x0001cef8                HU_Erase
                0x0001cf2c                HU_Ticker
                0x0001d1f0                HU_queueChatChar
                0x0001d26c                HU_dequeueChatChar
                0x0001d2d0                HU_Responder
 .text          0x0001d67c        0x0 build/info.o
 .text          0x0001d67c       0xb0 build/i_cdmus.o
                0x0001d67c                I_CDMusInit
                0x0001d68c                I_CDMusPrintStartup
                0x0001d69a                I_CDMusPlay
                0x0001d6b0                I_CDMusStop
                0x0001d6c0                I_CDMusResume
                0x0001d6d0                I_CDMusSetVolume
                0x0001d6f4                I_CDMusFirstTrack
                0x0001d704                I_CDMusLastTrack
                0x0001d714                I_CDMusTrackLength
 .text          0x0001d72c       0x14 build/i_endoom.o
                0x0001d72c                I_Endoom
 .text          0x0001d740      0x138 build/i_joystick.o
                0x0001d740                I_ShutdownJoystick
                0x0001d74e                I_InitJoystick
                0x0001d75c                I_UpdateJoystick
                0x0001d76a                I_BindJoystickVariables
 .text          0x0001d878     0x24dc build/i_scale.o
                0x0001d878                I_InitScale
                0x0001e2d4                I_ResetScaleTables
 .text          0x0001fd54      0x624 build/i_sound.o
                0x0001fedc                I_InitSound
                0x0001ff98                I_ShutdownSound
                0x0001ffd8                I_GetSfxLumpNum
                0x0002000c                I_UpdateSound
                0x000200ae                I_UpdateSoundParams
                0x000200f4                I_StartSound
                0x00020140                I_StopSound
                0x00020170                I_SoundIsPlaying
                0x000201a4                I_PrecacheSounds
                0x000201e8                I_InitMusic
                0x000201f6                I_ShutdownMusic
                0x00020204                I_SetMusicVolume
                0x00020234                I_PauseSong
                0x00020258                I_ResumeSong
                0x0002027c                I_RegisterSong
                0x000202b4                I_UnRegisterSong
                0x000202e4                I_PlaySong
                0x00020318                I_StopSong
                0x0002033c                I_MusicIsPlaying
                0x00020368                I_BindSoundVariables
 .text          0x00020378      0x6dc build/i_system.o
                0x00020378                I_AtExit
                0x000203bc                I_Tactile
                0x00020430                I_ZoneBase
                0x000204b0                I_PrintBanner
                0x000204f0                I_PrintDivider
                0x0002051c                I_PrintStartupBanner
                0x0002054c                I_ConsoleStdout
                0x0002055c                I_Quit
                0x000206d0                I_Error
                0x00020808                I_GetMemoryValue
 .text          0x00020a54      0x11c build/i_timer.o
                0x00020a54                I_GetTicks
                0x00020a94                I_GetTime
                0x00020aec                I_GetTimeMS
                0x00020b2c                I_Sleep
                0x00020b4c                I_WaitVBL
                0x00020b60                I_InitTimer
 .text          0x00020b70      0x2a8 build/memio.o
                0x00020b70                mem_fopen_read
                0x00020ba8                mem_fread
                0x00020c38                mem_fopen_write
                0x00020c82                mem_fwrite
                0x00020d34                mem_get_buf
                0x00020d5c                mem_fclose
                0x00020d84                mem_ftell
                0x00020d9c                mem_fseek
 .text          0x00020e18      0x130 build/m_argv.o
                0x00020e18                M_CheckParmWithArgs
                0x00020e70                M_ParmExists
                0x00020e92                M_CheckParm
                0x00020ec0                M_FindResponseFile
                0x00020f0c                M_GetExecutableName
 .text          0x00020f48       0x9e build/m_bbox.o
                0x00020f48                M_ClearBox
                0x00020f7e                M_AddToBox
 .text          0x00020fe6       0xe4 build/m_cheat.o
                0x00020fe6                cht_CheckCheat
                0x000210a6                cht_GetParam
 *fill*         0x000210ca        0x2 
 .text          0x000210cc      0x60c build/m_config.o
                0x00021250                M_SetConfigFilenames
                0x00021280                M_SaveDefaults
                0x000212a4                M_SaveDefaultsAlternate
                0x00021304                M_LoadDefaults
                0x00021494                M_BindVariable
                0x000214ba                M_SetVariable
                0x000214f0                M_GetIntVariable
                0x00021530                M_GetStrVariable
                0x00021568                M_GetFloatVariable
                0x00021600                M_SetConfigDir
                0x00021670                M_GetSaveGameDir
 .text          0x000216d8      0xbb0 build/m_controls.o
                0x000216d8                M_BindBaseControls
                0x00021968                M_BindHereticControls
                0x00021a48                M_BindHexenControls
                0x00021b58                M_BindStrifeControls
                0x00021d28                M_BindWeaponControls
                0x00021e80                M_BindMapControls
                0x00021fa8                M_BindMenuControls
                0x00022208                M_BindChatControls
                0x00022278                M_ApplyPlatformDefaults
 .text          0x00022288       0xb8 build/m_fixed.o
                0x00022288                FixedMul
                0x000222d4                FixedDiv
 .text          0x00022340     0x2b48 build/m_menu.o
                0x00022340                M_ReadSaveStrings
                0x00022420                M_DrawLoad
                0x000224c0                M_DrawSaveLoadBorder
                0x00022550                M_LoadSelect
                0x00022596                M_LoadGame
                0x000225e0                M_DrawSave
                0x000226ec                M_DoSave
                0x00022738                M_SaveSelect
                0x000227e8                M_SaveGame
                0x00022844                M_QuickSaveResponse
                0x00022884                M_QuickSave
                0x0002293c                M_QuickLoadResponse
                0x0002297c                M_QuickLoad
                0x00022a18                M_DrawReadThis1
                0x00022b20                M_DrawReadThis2
                0x00022b50                M_DrawSound
                0x00022bd8                M_Sound
                0x00022bf8                M_SfxVol
                0x00022c6c                M_MusicVol
                0x00022ce0                M_DrawMainMenu
                0x00022d04                M_DrawNewGame
                0x00022d44                M_NewGame
                0x00022dc4                M_DrawEpisode
                0x00022de8                M_VerifyNightmare
                0x00022e2c                M_ChooseSkill
                0x00022e78                M_Episode
                0x00022f0c                M_DrawOptions
                0x00023020                M_Options
                0x00023040                M_ChangeMessages
                0x000230dc                M_EndGameResponse
                0x00023128                M_EndGame
                0x00023198                M_ReadThis
                0x000231bc                M_ReadThis2
                0x0002320c                M_FinishReadThis
                0x00023230                M_QuitResponse
                0x0002333c                M_QuitDOOM
                0x00023384                M_ChangeSensitivity
                0x000233f8                M_ChangeDetail
                0x000234a0                M_SizeDisplay
                0x00023558                M_DrawThermo
                0x00023610                M_DrawEmptyCell
                0x00023658                M_DrawSelCell
                0x000236a0                M_StartMessage
                0x0002370c                M_StopMessage
                0x0002373c                M_StringWidth
                0x000237b8                M_StringHeight
                0x00023818                M_WriteText
                0x000238fa                M_Responder
                0x00024924                M_StartControlPanel
                0x00024978                M_Drawer
                0x00024c68                M_ClearMenus
                0x00024c84                M_SetupNextMenu
                0x00024cbc                M_Ticker
                0x00024d20                M_Init
 .text          0x00024e88      0x6c8 build/m_misc.o
                0x00024e88                M_MakeDirectory
                0x00024ea2                M_FileExists
                0x00024ee8                M_FileLength
                0x00024f1e                M_WriteFile
                0x00024f74                M_ReadFile
                0x00024ffc                M_TempFile
                0x0002502c                M_StrToInt
                0x000250a4                M_ExtractFileBase
                0x00025140                M_ForceUppercase
                0x00025178                M_StrCaseStr
                0x000251e2                M_StringDuplicate
                0x0002521c                M_StringReplace
                0x00025310                M_StringCopy
                0x00025362                M_StringConcat
                0x000253a0                M_StringStartsWith
                0x000253e4                M_StringEndsWith
                0x00025434                M_StringJoin
                0x000254d0                M_vsnprintf
                0x00025520                M_snprintf
 .text          0x00025550       0xa8 build/m_random.o
                0x00025550                P_Random
                0x0002558c                M_Random
                0x000255c8                M_ClearRandom
 .text          0x000255f8      0x50c build/p_ceilng.o
                0x000255f8                T_MoveCeiling
                0x00025790                EV_DoCeiling
                0x000258f4                P_AddActiveCeiling
                0x0002593c                P_RemoveActiveCeiling
                0x000259b0                P_ActivateInStasisCeiling
                0x00025a50                EV_CeilingCrushStop
 .text          0x00025b04      0x978 build/p_doors.o
                0x00025b04                T_VerticalDoor
                0x00025d4a                EV_DoLockedDoor
                0x00025ed4                EV_DoDoor
                0x000260ac                EV_VerticalDoor
                0x0002639c                P_SpawnDoorCloseIn30
                0x000263fc                P_SpawnDoorRaiseIn5Mins
 .text          0x0002647c     0x2628 build/p_enemy.o
                0x0002647c                P_RecursiveSound
                0x000265a8                P_NoiseAlert
                0x000265f0                P_CheckMeleeRange
                0x00026660                P_CheckMissileRange
                0x00026764                P_Move
                0x000268c8                P_TryWalk
                0x000268f8                P_NewChaseDir
                0x00026b10                P_LookForPlayers
                0x00026c30                A_KeenDie
                0x00026cb4                A_Look
                0x00026dbc                A_Chase
                0x00026ff8                A_FaceTarget
                0x00027064                A_PosAttack
                0x000270f4                A_SPosAttack
                0x00027196                A_CPosAttack
                0x00027226                A_CPosRefire
                0x0002727a                A_SpidRefire
                0x000272ce                A_BspiAttack
                0x000272fc                A_TroopAttack
                0x0002736c                A_SargAttack
                0x000273cc                A_HeadAttack
                0x0002743e                A_CyberAttack
                0x0002746c                A_BruisAttack
                0x000274d6                A_SkelMissile
                0x00027544                A_Tracer
                0x0002772c                A_SkelWhoosh
                0x00027754                A_SkelFist
                0x000277c0                PIT_VileCheck
                0x000278e8                A_VileChase
                0x00027ac8                A_VileStart
                0x00027ae0                A_StartFire
                0x00027afe                A_FireCrackle
                0x00027b1c                A_Fire
                0x00027bcc                A_VileTarget
                0x00027c24                A_VileAttack
                0x00027d08                A_FatRaise
                0x00027d26                A_FatAttack1
                0x00027dcc                A_FatAttack2
                0x00027e70                A_FatAttack3
                0x00027f5c                A_SkullAttack
                0x0002804c                A_PainShootSkull
                0x0002816c                A_PainAttack
                0x00028198                A_PainDie
                0x000281de                A_Scream
                0x00028274                A_XScream
                0x0002828c                A_Pain
                0x000282b4                A_Fall
                0x000282d4                A_Explode
                0x000283f0                A_BossDeath
                0x000285a4                A_Hoof
                0x000285c2                A_Metal
                0x000285e0                A_BabyMetal
                0x000285fe                A_OpenShotgun2
                0x0002861c                A_LoadShotgun2
                0x0002863a                A_CloseShotgun2
                0x00028660                A_BrainAwake
                0x0002870c                A_BrainPain
                0x00028724                A_BrainScream
                0x000287c0                A_BrainExplode
                0x00028840                A_BrainDie
                0x00028854                A_BrainSpit
                0x00028930                A_SpawnSound
                0x0002894e                A_SpawnFly
                0x00028a62                A_PlayerScream
 .text          0x00028aa4      0x91c build/p_floor.o
                0x00028aa4                T_MovePlane
                0x00028cb6                T_MoveFloor
                0x00028d90                EV_DoFloor
                0x000291d0                EV_BuildStairs
 .text          0x000293c0     0x1324 build/p_inter.o
                0x000293c0                P_GiveAmmo
                0x00029588                P_GiveWeapon
                0x00029700                P_GiveBody
                0x00029748                P_GiveArmor
                0x00029784                P_GiveCard
                0x000297c2                P_GivePower
                0x00029890                P_TouchSpecialThing
                0x0002a0f4                P_KillMobj
                0x0002a38c                P_DamageMobj
 .text          0x0002a6e4      0x5b0 build/p_lights.o
                0x0002a6e4                T_FireFlicker
                0x0002a756                P_SpawnFireFlicker
                0x0002a7bc                T_LightFlash
                0x0002a830                P_SpawnLightFlash
                0x0002a8ac                T_StrobeFlash
                0x0002a910                P_SpawnStrobeFlash
                0x0002a9ac                EV_StartLightStrobing
                0x0002aa08                EV_TurnTagLightsOff
                0x0002aac0                EV_LightTurnOn
                0x0002ab78                T_Glow
                0x0002ac30                P_SpawnGlowingLight
 .text          0x0002ac94     0x1edc build/p_map.o
                0x0002ac94                PIT_StompThing
                0x0002ad64                P_TeleportMove
                0x0002af6c                PIT_CheckLine
                0x0002b120                PIT_CheckThing
                0x0002b404                P_CheckPosition
                0x0002b68c                P_TryMove
                0x0002b848                P_ThingHeightClip
                0x0002b8e0                P_HitSlideLine
                0x0002ba24                PTR_SlideTraverse
                0x0002bb60                P_SlideMove
                0x0002be30                PTR_AimTraverse
                0x0002c040                PTR_ShootTraverse
                0x0002c418                P_AimLineAttack
                0x0002c51c                P_LineAttack
                0x0002c5e8                PTR_UseTraverse
                0x0002c688                P_UseLines
                0x0002c714                PIT_RadiusAttack
                0x0002c7f8                P_RadiusAttack
                0x0002c8d8                PIT_ChangeSector
                0x0002c9d8                P_ChangeSector
 .text          0x0002cb70     0x1050 build/p_maputl.o
                0x0002cb70                P_AproxDistance
                0x0002cbbc                P_PointOnLineSide
                0x0002cc72                P_BoxOnLineSide
                0x0002cdb0                P_PointOnDivlineSide
                0x0002ce90                P_MakeDivline
                0x0002ceca                P_InterceptVector
                0x0002cf56                P_LineOpening
                0x0002d020                P_UnsetThingPosition
                0x0002d124                P_SetThingPosition
                0x0002d240                P_BlockLinesIterator
                0x0002d320                P_BlockThingsIterator
                0x0002d3b0                PIT_AddLineIntercepts
                0x0002d564                PIT_AddThingIntercepts
                0x0002d6e4                P_TraverseIntercepts
                0x0002d8e4                P_PathTraverse
 .text          0x0002dbc0     0x1514 build/p_mobj.o
                0x0002dbc0                P_SetMobjState
                0x0002dc44                P_ExplodeMissile
                0x0002dcd8                P_XYMovement
                0x0002dfcc                P_ZMovement
                0x0002e228                P_NightmareRespawn
                0x0002e332                P_MobjThinker
                0x0002e434                P_SpawnMobj
                0x0002e580                P_RemoveMobj
                0x0002e668                P_RespawnSpecials
                0x0002e7f4                P_SpawnPlayer
                0x0002e990                P_SpawnMapThing
                0x0002ec8c                P_SpawnPuff
                0x0002ed10                P_SpawnBlood
                0x0002ed98                P_CheckMissileSpawn
                0x0002ee16                P_SubstNullMobj
                0x0002ee6c                P_SpawnMissile
                0x0002efa4                P_SpawnPlayerMissile
 .text          0x0002f0d4      0x640 build/p_plats.o
                0x0002f0d4                T_PlatRaise
                0x0002f264                EV_DoPlat
                0x0002f4fc                P_ActivateInStasis
                0x0002f598                EV_StopPlat
                0x0002f644                P_AddActivePlat
                0x0002f698                P_RemoveActivePlat
 .text          0x0002f714     0x1070 build/p_pspr.o
                0x0002f714                P_SetPsprite
                0x0002f7b8                P_CalcSwing
                0x0002f84c                P_BringUpWeapon
                0x0002f8bc                P_CheckAmmo
                0x0002fa44                P_FireWeapon
                0x0002faac                P_DropWeapon
                0x0002fae8                A_WeaponReady
                0x0002fc34                A_ReFire
                0x0002fc88                A_CheckReload
                0x0002fca0                A_Lower
                0x0002fcfe                A_Raise
                0x0002fd5c                A_GunFlash
                0x0002fda4                A_Punch
                0x0002fe80                A_Saw
                0x00030054                A_FireMissile
                0x0003009c                A_FireBFG
                0x000300e4                A_FirePlasma
                0x00030154                P_BulletSlope
                0x000301e4                P_GunShot
                0x00030260                A_FirePistol
                0x000302f8                A_FireShotgun
                0x00030394                A_FireShotgun2
                0x0003049c                A_FireCGun
                0x00030580                A_Light0
                0x0003059e                A_Light1
                0x000305bc                A_Light2
                0x000305da                A_BFGSpray
                0x000306a8                A_BFGsound
                0x000306c6                P_SetupPsprites
                0x00030704                P_MovePsprites
 .text          0x00030784     0x2050 build/p_saveg.o
                0x00030784                P_TempSaveGameFile
                0x000307d4                P_SaveGameFile
                0x00031cb4                P_WriteSaveGameHeader
                0x00031de0                P_ReadSaveGameHeader
                0x00031f0c                P_ReadSaveGameEOF
                0x00031f2e                P_WriteSaveGameEOF
                0x00031f3c                P_ArchivePlayers
                0x00031f9c                P_UnArchivePlayers
                0x0003203c                P_ArchiveWorld
                0x000321bc                P_UnArchiveWorld
                0x00032340                P_ArchiveThinkers
                0x0003239c                P_UnArchiveThinkers
                0x00032488                P_ArchiveSpecials
                0x00032600                P_UnArchiveSpecials
 .text          0x000327d4     0x13c0 build/p_setup.o
                0x000327d4                P_LoadVertexes
                0x00032884                GetSectorAtNullAddress
                0x000328e4                P_LoadSegs
                0x00032ad8                P_LoadSubsectors
                0x00032ba0                P_LoadSectors
                0x00032cd4                P_LoadNodes
                0x00032e10                P_LoadThings
                0x00032f04                P_LoadLineDefs
                0x00033164                P_LoadSideDefs
                0x000332a0                P_LoadBlockMap
                0x000333f8                P_GroupLines
                0x000338e4                P_SetupLevel
                0x00033b6c                P_Init
 .text          0x00033b94      0x694 build/p_sight.o
                0x00033b94                P_DivlineSide
                0x00033c6e                P_InterceptVector2
                0x00033cfa                P_CrossSubsector
                0x00033fa0                P_CrossBSPNode
                0x0003407c                P_CheckSight
 .text          0x00034228     0x16f4 build/p_spec.o
                0x00034228                P_InitPicAnims
                0x000343d4                getSide
                0x00034434                getSector
                0x00034494                twoSided
                0x000344dc                getNextSector
                0x0003451a                P_FindLowestFloorSurrounding
                0x0003457a                P_FindHighestFloorSurrounding
                0x000345dc                P_FindNextHighestFloor
                0x000346b4                P_FindLowestCeilingSurrounding
                0x00034714                P_FindHighestCeilingSurrounding
                0x00034772                P_FindSectorFromLineTag
                0x000347d8                P_FindMinSurroundingLight
                0x0003483e                P_CrossSpecialLine
                0x00034f00                P_ShootSpecialLine
                0x00034f86                P_PlayerInSpecialSector
                0x000350fc                P_UpdateSpecials
                0x000354e8                EV_DoDonut
                0x0003568c                P_SpawnSpecials
 .text          0x0003591c      0xcfc build/p_switch.o
                0x0003591c                P_InitSwitchList
                0x00035a3c                P_StartButton
                0x00035b54                P_ChangeSwitchTexture
                0x00035d64                P_UseSpecialLine
 .text          0x00036618      0x1f8 build/p_telept.o
                0x00036618                EV_Teleport
 .text          0x00036810      0x1e8 build/p_tick.o
                0x00036810                P_InitThinkers
                0x00036844                P_AddThinker
                0x0003688c                P_RemoveThinker
                0x000368a8                P_AllocateThinker
                0x000368bc                P_RunThinkers
                0x00036924                P_Ticker
 .text          0x000369f8      0x70c build/p_user.o
                0x000369f8                P_Thrust
                0x00036a6c                P_CalcHeight
                0x00036c14                P_MovePlayer
                0x00036d04                P_DeathThink
                0x00036e58                P_PlayerThink
 .text          0x00037104      0x988 build/r_bsp.o
                0x00037104                R_ClearDrawSegs
                0x00037124                R_ClipSolidWallSegment
                0x00037280                R_ClipPassWallSegment
                0x00037334                R_ClearClipSegs
                0x000373a0                R_AddLine
                0x00037614                R_CheckBBox
                0x00037848                R_Subsector
                0x000379dc                R_RenderBSPNode
 .text          0x00037a8c     0x127c build/r_data.o
                0x00037a8c                R_DrawColumnInCache
                0x00037b0e                R_GenerateComposite
                0x00037c70                R_GenerateLookup
                0x00037ea8                R_GetColumn
                0x00038058                R_InitTextures
                0x000385b4                R_InitFlats
                0x00038674                R_InitSpriteLumps
                0x000387e4                R_InitColormaps
                0x00038818                R_InitData
                0x00038842                R_FlatNumForName
                0x00038898                R_CheckTextureNumForName
                0x00038910                R_TextureNumForName
                0x00038944                R_PrecacheLevel
 .text          0x00038d08     0x12bc build/r_draw.o
                0x00038d08                R_DrawColumn
                0x00038e3c                R_DrawColumnLow
                0x00038fb0                R_DrawFuzzColumn
                0x0003916c                R_DrawFuzzColumnLow
                0x00039388                R_DrawTranslatedColumn
                0x000394c8                R_DrawTranslatedColumnLow
                0x00039664                R_InitTranslationTables
                0x00039750                R_DrawSpan
                0x000398ac                R_DrawSpanLow
                0x00039a58                R_InitBuffer
                0x00039b28                R_FillBackScreen
                0x00039e90                R_VideoErase
                0x00039edc                R_DrawViewBorder
 .text          0x00039fc4      0xed8 build/r_main.o
                0x00039fc4                R_AddPointToBox
                0x0003a028                R_PointOnSide
                0x0003a100                R_PointOnSegSide
                0x0003a1e2                R_PointToAngle
                0x0003a360                R_PointToAngle2
                0x0003a398                R_PointToDist
                0x0003a43c                R_InitPointToAngle
                0x0003a44a                R_ScaleFromGlobalAngle
                0x0003a51c                R_InitTables
                0x0003a52a                R_InitTextureMapping
                0x0003a704                R_InitLightTables
                0x0003a7ac                R_SetViewSize
                0x0003a7e8                R_ExecuteSetViewSize
                0x0003abd0                R_Init
                0x0003ac48                R_PointInSubsector
                0x0003acd0                R_SetupFrame
                0x0003ae44                R_RenderPlayerView
 .text          0x0003ae9c      0x9a8 build/r_plane.o
                0x0003ae9c                R_InitPlanes
                0x0003aeaa                R_MapPlane
                0x0003b138                R_ClearPlanes
                0x0003b23c                R_FindPlane
                0x0003b340                R_CheckPlane
                0x0003b43c                R_MakeSpans
                0x0003b508                R_DrawPlanes
 .text          0x0003b844     0x19b8 build/r_segs.o
                0x0003b844                R_RenderMaskedSegRange
                0x0003bba8                R_RenderSegLoop
                0x0003c214                R_StoreWallRange
 .text          0x0003d1fc       0x1c build/r_sky.o
                0x0003d1fc                R_InitSkyMap
 .text          0x0003d218     0x1638 build/r_things.o
                0x0003d218                R_InstallSpriteLump
                0x0003d43c                R_InitSpriteDefs
                0x0003d78c                R_InitSprites
                0x0003d7c8                R_ClearSprites
                0x0003d7e8                R_NewVisSprite
                0x0003d840                R_DrawMaskedColumn
                0x0003d9ac                R_DrawVisSprite
                0x0003db4c                R_ProjectSprite
                0x0003dee4                R_AddSprites
                0x0003df9c                R_DrawPSprite
                0x0003e240                R_DrawPlayerSprites
                0x0003e320                R_SortVisSprites
                0x0003e484                R_DrawSprite
                0x0003e7a8                R_DrawMasked
 .text          0x0003e850     0x1a52 build/sha1.o
                0x0003e850                SHA1_Init
                0x0003fec0                SHA1_Update
                0x0003ffa8                SHA1_Final
                0x0004023e                SHA1_UpdateInt32
                0x0004027c                SHA1_UpdateString
 .text          0x000402a2        0x0 build/sounds.o
 *fill*         0x000402a2        0x2 
 .text          0x000402a4       0x7c build/statdump.o
                0x000402a4                StatCopy
                0x00040310                StatDump
 .text          0x00040320      0x508 build/st_lib.o
                0x00040320                STlib_init
                0x00040344                STlib_initNum
                0x00040388                STlib_drawNum
                0x00040528                STlib_updateNum
                0x0004054c                STlib_initPercent
                0x00040580                STlib_updatePercent
                0x000405c0                STlib_initMultIcon
                0x00040600                STlib_updateMultIcon
                0x00040714                STlib_initBinIcon
                0x00040752                STlib_updateBinIcon
 .text          0x00040828     0x1d88 build/st_stuff.o
                0x00040828                ST_refreshBackground
                0x000408b8                ST_Responder
                0x000410ac                ST_calcPainOffset
                0x00041124                ST_updateFaceWidget
                0x000415d4                ST_updateWidgets
                0x0004180c                ST_Ticker
                0x00041854                ST_doPaletteStuff
                0x00041994                ST_drawWidgets
                0x00041b00                ST_doRefresh
                0x00041b20                ST_diffDraw
                0x00041b2e                ST_Drawer
                0x00041f08                ST_loadGraphics
                0x00041f20                ST_loadData
                0x00041f66                ST_unloadGraphics
                0x00041f7c                ST_unloadData
                0x00041f88                ST_initData
                0x000420b0                ST_createWidgets
                0x0004251c                ST_Start
                0x0004254c                ST_Stop
                0x0004258c                ST_Init
 .text          0x000425b0      0xa68 build/s_sound.o
                0x000425b0                S_Init
                0x000426ac                S_Shutdown
                0x0004275c                S_Start
                0x00042838                S_StopSound
                0x00042b20                S_StartSound
                0x00042cbc                S_PauseSound
                0x00042cf0                S_ResumeSound
                0x00042d24                S_UpdateSounds
                0x00042e20                S_SetMusicVolume
                0x00042e54                S_SetSfxVolume
                0x00042e8c                S_StartMusic
                0x00042ea4                S_ChangeMusic
                0x00042fa0                S_MusicPlaying
                0x00042fae                S_StopMusic
 .text          0x00043018       0x44 build/tables.o
                0x00043018                SlopeDiv
 *fill*         0x0004305c        0x4 
 .text          0x00043060     0x1060 build/v_video.o
                0x00043060                V_MarkRect
                0x000430c8                V_CopyRect
                0x0004319c                V_SetPatchClipCallback
                0x000431bc                V_DrawPatch
                0x00043358                V_DrawPatchFlipped
                0x000434c8                V_DrawPatchDirect
                0x000434e6                V_DrawTLPatch
                0x00043624                V_DrawXlaPatch
                0x0004374c                V_DrawAltTLPatch
                0x0004388c                V_DrawShadowedPatch
                0x00043a14                V_LoadTintTable
                0x00043a38                V_LoadXlaTable
                0x00043a5c                V_DrawBlock
                0x00043af8                V_DrawFilledBox
                0x00043b7c                V_DrawHorizLine
                0x00043be0                V_DrawVertLine
                0x00043c48                V_DrawBox
                0x00043c9a                V_DrawRawScreen
                0x00043cc0                V_Init
                0x00043cce                V_UseBuffer
                0x00043cf0                V_RestoreBuffer
                0x00043d1c                WritePCXfile
                0x00043e7e                V_ScreenShot
                0x00043f1c                V_DrawMouseSpeedBox
 .text          0x000440c0     0x2f0c build/wi_stuff.o
                0x000440c0                WI_slamBackground
                0x000440dc                WI_Responder
                0x000440f2                WI_drawLF
                0x00044250                WI_drawEL
                0x00044320                WI_drawOnLnode
                0x00044494                WI_initAnimatedBack
                0x000445a4                WI_updateAnimatedBack
                0x0004474c                WI_drawAnimatedBack
                0x000447f8                WI_drawNum
                0x000448fc                WI_drawPercent
                0x0004493c                WI_drawTime
                0x00044a18                WI_End
                0x00044a24                WI_initNoState
                0x00044a58                WI_updateNoState
                0x00044a8c                WI_initShowNextLoc
                0x00044abc                WI_updateShowNextLoc
                0x00044b28                WI_drawShowNextLoc
                0x00044c24                WI_drawNoState
                0x00044c3c                WI_fragSum
                0x00044cd4                WI_initDeathmatchStats
                0x00044d88                WI_updateDeathmatchStats
                0x0004510c                WI_drawDeathmatchStats
                0x00045348                WI_initNetgameStats
                0x0004545c                WI_updateNetgameStats
                0x00045acc                WI_drawNetgameStats
                0x00045df4                WI_initStats
                0x00045e88                WI_updateStats
                0x00046554                WI_drawStats
                0x00046680                WI_checkForAccelerate
                0x0004673c                WI_Ticker
                0x00046d14                WI_loadData
                0x00046dde                WI_unloadData
                0x00046df4                WI_Drawer
                0x00046e5c                WI_initVariables
                0x00046f7c                WI_Start
 .text          0x00046fcc      0x184 build/w_checksum.o
                0x000470d8                W_Checksum
 .text          0x00047150       0xbc build/w_file.o
                0x00047150                W_OpenFile
                0x000471c8                W_CloseFile
                0x000471e2                W_Read
 .text          0x0004720c      0x158 build/w_file_stdc_unbuffered.o
                0x000472e4                W_StdC_Read
 .text          0x00047364       0x94 build/w_main.o
                0x00047364                W_ParseCommandLine
 .text          0x000473f8      0x87c build/w_wad.o
                0x000473f8                W_LumpNameHash
                0x0004758c                W_AddFile
                0x0004775c                W_NumLumps
                0x00047774                W_CheckNumForName
                0x0004784c                W_GetNumForName
                0x0004787c                W_LumpLength
                0x000478c4                W_ReadLump
                0x0004794c                W_CacheLumpNum
                0x00047a04                W_CacheLumpName
                0x00047a28                W_ReleaseLumpNum
                0x00047a90                W_ReleaseLumpName
                0x00047aae                W_GenerateHashTable
                0x00047bc4                W_CheckCorrectIWAD
 .text          0x00047c74      0x780 build/z_zone.o
                0x00047c74                Z_ClearZone
                0x00047cd0                Z_Init
                0x00047d90                Z_Free
                0x00047e8c                Z_Malloc
                0x00047fe8                Z_FreeTags
                0x00048054                Z_DumpHeap
                0x00048158                Z_FileDumpHeap
                0x00048240                Z_CheckHeap
                0x000482d4                Z_ChangeTag2
                0x00048338                Z_ChangeUser
                0x0004837c                Z_FreeMemory
                0x000483d8                Z_ZoneSize
 .text          0x000483f4      0x264 /usr/lib/gcc-cross/arm-linux-gnueabihf/14/../../../../arm-linux-gnueabihf/lib/libc.a(libc-start.o)
                0x00048494                __libc_start_main_impl
                0x00048494                __libc_start_main
 .text          0x00048658      0x160 /usr/lib/gcc-cross/arm-linux-gnueabihf/14/../../../../arm-linux-gnueabihf/lib/libc.a(libc-tls.o)
                0x00048658                __libc_setup_tls
                0x000487a8                __tls_get_addr
 *fill*         0x000487b8        0x8 
 .text          0x000487c0        0x8 /usr/lib/gcc-cross/arm-linux-gnueabihf/14/../../../../arm-linux-gnueabihf/lib/libc.a(libc-do-syscall.o)
                0x000487c0                __libc_do_syscall
 .text          0x000487c8       0x14 /usr/lib/gcc-cross/arm-linux-gnueabihf/14/../../../../arm-linux-gnueabihf/lib/libc.a(errno-loc.o)
                0x000487c8                __errno_location
 .text          0x000487dc      0x17c /usr/lib/gcc-cross/arm-linux-gnueabihf/14/../../../../arm-linux-gnueabihf/lib/libc.a(ctype.o)
                0x000487dc                isalnum
                0x000487f8                isalpha
                0x00048814                iscntrl
                0x00048830                isdigit
                0x0004884c                islower
                0x00048868                isgraph
                0x00048884                isprint
                0x000488a0                ispunct
                0x000488bc                isspace
                0x000488d8                isupper
                0x000488f4                isxdigit
                0x00048910                tolower
                0x00048934                toupper
 .text          0x00048958       0x78 /usr/lib/gcc-cross/arm-linux-gnueabihf/14/../../../../arm-linux-gnueabihf/lib/libc.a(ctype-info.o)
                0x00048958                __ctype_b_loc
                0x0004896c                __ctype_toupper_loc
                0x00048980                __ctype_tolower_loc
                0x00048994                __ctype_init
 .text          0x000489d0        0x8 /usr/lib/gcc-cross/arm-linux-gnueabihf/14/../../../../arm-linux-gnueabihf/lib/libc.a(bsd-_setjmp.o)
                0x000489d0                _setjmp
 .text          0x000489d8       0x84 /usr/lib/gcc-cross/arm-linux-gnueabihf/14/../../../../arm-linux-gnueabihf/lib/libc.a(abort.o)
                0x000489d8                __abort_fork_reset_child
                0x000489e8                __abort_lock_rdlock
                0x00048a10                __abort_lock_wrlock
                0x00048a38                __abort_lock_unlock
 .text          0x00048a5c        0x8 /usr/lib/gcc-cross/arm-linux-gnueabihf/14/../../../../arm-linux-gnueabihf/lib/libc.a(atof.o)
                0x00048a5c                atof
 .text          0x00048a64        0x8 /usr/lib/gcc-cross/arm-linux-gnueabihf/14/../../../../arm-linux-gnueabihf/lib/libc.a(atoi.o)
                0x00048a64                atoi
 .text          0x00048a6c      0x198 /usr/lib/gcc-cross/arm-linux-gnueabihf/14/../../../../arm-linux-gnueabihf/lib/libc.a(cxa_atexit.o)
                0x00048a6c                __new_exitfn
                0x00048b24                __internal_atexit
                0x00048bf8                __cxa_atexit
 .text          0x00048c04      0x2fc /usr/lib/gcc-cross/arm-linux-gnueabihf/14/../../../../arm-linux-gnueabihf/lib/libc.a(exit.o)
                0x00048c04                __run_exit_handlers
                0x00048eec                exit
 .text          0x00048f00       0x30 /usr/lib/gcc-cross/arm-linux-gnueabihf/14/../../../../arm-linux-gnueabihf/lib/libc.a(strtod.o)
                0x00048f00                __strtod_internal
                0x00048f18                strtod
                0x00048f18                strtof64
                0x00048f18                strtof32x
 .text          0x00048f30     0x23d8 /usr/lib/gcc-cross/arm-linux-gnueabihf/14/../../../../arm-linux-gnueabihf/lib/libc.a(strtod_l.o)
                0x00049508                ____strtod_l_internal
                0x0004b300                __strtod_l
                0x0004b300                strtof32x_l
                0x0004b300                strtod_l
                0x0004b300                strtof64_l
 .text          0x0004b308       0xd0 /usr/lib/gcc-cross/arm-linux-gnueabihf/14/../../../../arm-linux-gnueabihf/lib/libc.a(strtod_nan.o)
                0x0004b308                __strtod_nan
 .text          0x0004b3d8       0x74 /usr/lib/gcc-cross/arm-linux-gnueabihf/14/../../../../arm-linux-gnueabihf/lib/libc.a(strtol.o)
                0x0004b3d8                __strtol_internal
                0x0004b3fc                strtol
                0x0004b3fc                __strtol
                0x0004b424                __isoc23_strtol
 .text          0x0004b44c      0x410 /usr/lib/gcc-cross/arm-linux-gnueabihf/14/../../../../arm-linux-gnueabihf/lib/libc.a(strtol_l.o)
                0x0004b44c                ____strtol_l_internal
                0x0004b830                strtol_l
                0x0004b830                __strtol_l
                0x0004b848                __isoc23_strtol_l
 .text          0x0004b85c      0x520 /usr/lib/gcc-cross/arm-linux-gnueabihf/14/../../../../arm-linux-gnueabihf/lib/libc.a(strtoull_l.o)
                0x0004b85c                ____strtoull_l_internal
                0x0004bd50                __strtoull_l
                0x0004bd50                strtoull_l
                0x0004bd68                __isoc23_strtoull_l
 .text          0x0004bd7c      0x3c8 /usr/lib/gcc-cross/arm-linux-gnueabihf/14/../../../../arm-linux-gnueabihf/lib/libc.a(system.o)
                0x0004c128                system
                0x0004c128                __libc_system
 *fill*         0x0004c144        0xc 
 .text          0x0004c150       0x68 /usr/lib/gcc-cross/arm-linux-gnueabihf/14/../../../../arm-linux-gnueabihf/lib/libc.a(add_n.o)
                0x0004c150                __mpn_add_n
 .text          0x0004c1b8       0x3c /usr/lib/gcc-cross/arm-linux-gnueabihf/14/../../../../arm-linux-gnueabihf/lib/libc.a(cmp.o)
                0x0004c1b8                __mpn_cmp
 .text          0x0004c1f4       0x48 /usr/lib/gcc-cross/arm-linux-gnueabihf/14/../../../../arm-linux-gnueabihf/lib/libc.a(lshift.o)
                0x0004c1f4                __mpn_lshift
 .text          0x0004c23c      0x230 /usr/lib/gcc-cross/arm-linux-gnueabihf/14/../../../../arm-linux-gnueabihf/lib/libc.a(mul.o)
                0x0004c23c                __mpn_mul
 .text          0x0004c46c       0x40 /usr/lib/gcc-cross/arm-linux-gnueabihf/14/../../../../arm-linux-gnueabihf/lib/libc.a(mul_1.o)
                0x0004c46c                __mpn_mul_1
 .text          0x0004c4ac      0x624 /usr/lib/gcc-cross/arm-linux-gnueabihf/14/../../../../arm-linux-gnueabihf/lib/libc.a(mul_n.o)
                0x0004c4ac                __mpn_impn_mul_n_basecase
                0x0004c554                __mpn_impn_mul_n
                0x0004c7b8                __mpn_impn_sqr_n_basecase
                0x0004c858                __mpn_impn_sqr_n
                0x0004ca48                __mpn_mul_n
 .text          0x0004cad0       0x70 /usr/lib/gcc-cross/arm-linux-gnueabihf/14/../../../../arm-linux-gnueabihf/lib/libc.a(rshift.o)
                0x0004cad0                __mpn_rshift
 .text          0x0004cb40       0x64 /usr/lib/gcc-cross/arm-linux-gnueabihf/14/../../../../arm-linux-gnueabihf/lib/libc.a(sub_n.o)
                0x0004cb40                __mpn_sub_n
 *fill*         0x0004cba4        0xc 
 .text          0x0004cbb0       0x44 /usr/lib/gcc-cross/arm-linux-gnueabihf/14/../../../../arm-linux-gnueabihf/lib/libc.a(submul_1.o)
                0x0004cbb0                __mpn_submul_1
 .text          0x0004cbf4       0x24 /usr/lib/gcc-cross/arm-linux-gnueabihf/14/../../../../arm-linux-gnueabihf/lib/libc.a(mpn2dbl.o)
                0x0004cbf4                __mpn_construct_double
 .text          0x0004cc18      0x168 /usr/lib/gcc-cross/arm-linux-gnueabihf/14/../../../../arm-linux-gnueabihf/lib/libc.a(grouping.o)
                0x0004cc18                __correctly_grouped_prefixmb
 .text          0x0004cd80        0x0 /usr/lib/gcc-cross/arm-linux-gnueabihf/14/../../../../arm-linux-gnueabihf/lib/libc.a(tens_in_limb.o)
 .text          0x0004cd80        0x0 /usr/lib/gcc-cross/arm-linux-gnueabihf/14/../../../../arm-linux-gnueabihf/lib/libc.a(fpioconst.o)
 .text          0x0004cd80       0x58 /usr/lib/gcc-cross/arm-linux-gnueabihf/14/../../../../arm-linux-gnueabihf/lib/libc.a(fprintf.o)
                0x0004cd80                fprintf
                0x0004cd80                _IO_fprintf
                0x0004cd80                __fprintf
 .text          0x0004cdd8       0x8c /usr/lib/gcc-cross/arm-linux-gnueabihf/14/../../../../arm-linux-gnueabihf/lib/libc.a(isoc99_sscanf.o)
                0x0004cdd8                __isoc99_sscanf
 .text          0x0004ce64       0x68 /usr/lib/gcc-cross/arm-linux-gnueabihf/14/../../../../arm-linux-gnueabihf/lib/libc.a(printf.o)
                0x0004ce64                __printf
                0x0004ce64                printf
                0x0004ce64                _IO_printf
 .text          0x0004cecc       0x34 /usr/lib/gcc-cross/arm-linux-gnueabihf/14/../../../../arm-linux-gnueabihf/lib/libc.a(remove.o)
                0x0004cecc                remove
 .text          0x0004cf00       0x30 /usr/lib/gcc-cross/arm-linux-gnueabihf/14/../../../../arm-linux-gnueabihf/lib/libc.a(rename.o)
                0x0004cf00                rename
 .text          0x0004cf30       0x58 /usr/lib/gcc-cross/arm-linux-gnueabihf/14/../../../../arm-linux-gnueabihf/lib/libc.a(snprintf.o)
                0x0004cf30                snprintf
                0x0004cf30                __snprintf
 .text          0x0004cf88        0x8 /usr/lib/gcc-cross/arm-linux-gnueabihf/14/../../../../arm-linux-gnueabihf/lib/libc.a(vfprintf.o)
                0x0004cf88                __vfprintf
                0x0004cf88                _IO_vfprintf
                0x0004cf88                vfprintf
 .text          0x0004cf90     0x2bb4 /usr/lib/gcc-cross/arm-linux-gnueabihf/14/../../../../arm-linux-gnueabihf/lib/libc.a(vfprintf-internal.o)
                0x0004e3a4                __printf_buffer
                0x0004f988                __vfprintf_internal
 *fill*         0x0004fb44        0x4 
 .text          0x0004fb48     0x4c64 /usr/lib/gcc-cross/arm-linux-gnueabihf/14/../../../../arm-linux-gnueabihf/lib/libc.a(vfscanf-internal.o)
                0x0004fb80                __vfscanf_internal
 .text          0x000547ac       0x28 /usr/lib/gcc-cross/arm-linux-gnueabihf/14/../../../../arm-linux-gnueabihf/lib/libc.a(errname.o)
                0x000547ac                __get_errname
 .text          0x000547d4      0x904 /usr/lib/gcc-cross/arm-linux-gnueabihf/14/../../../../arm-linux-gnueabihf/lib/libc.a(printf-parsemb.o)
                0x000547d4                __parse_one_specmb
 .text          0x000550d8      0x1e8 /usr/lib/gcc-cross/arm-linux-gnueabihf/14/../../../../arm-linux-gnueabihf/lib/libc.a(iofclose.o)
                0x000550d8                _IO_fclose
                0x000550d8                _IO_new_fclose
                0x000550d8                fclose
                0x000550d8                __new_fclose
 .text          0x000552c0      0x120 /usr/lib/gcc-cross/arm-linux-gnueabihf/14/../../../../arm-linux-gnueabihf/lib/libc.a(iofflush.o)
                0x000552c0                _IO_fflush
                0x000552c0                fflush
 .text          0x000553e0      0x134 /usr/lib/gcc-cross/arm-linux-gnueabihf/14/../../../../arm-linux-gnueabihf/lib/libc.a(iofread.o)
                0x000553e0                _IO_fread
                0x000553e0                fread
 .text          0x00055514      0x180 /usr/lib/gcc-cross/arm-linux-gnueabihf/14/../../../../arm-linux-gnueabihf/lib/libc.a(ioftell.o)
                0x00055514                _IO_ftell
                0x00055514                ftell
 .text          0x00055694      0x190 /usr/lib/gcc-cross/arm-linux-gnueabihf/14/../../../../arm-linux-gnueabihf/lib/libc.a(iofwrite.o)
                0x00055694                _IO_fwrite
                0x00055694                fwrite
 .text          0x00055824      0x18c /usr/lib/gcc-cross/arm-linux-gnueabihf/14/../../../../arm-linux-gnueabihf/lib/libc.a(ioputs.o)
                0x00055824                puts
                0x00055824                _IO_puts
 .text          0x000559b0      0x1c0 /usr/lib/gcc-cross/arm-linux-gnueabihf/14/../../../../arm-linux-gnueabihf/lib/libc.a(ioseekoff.o)
                0x000559b0                _IO_seekoff_unlocked
                0x00055a60                _IO_seekoff
 .text          0x00055b70        0x8 /usr/lib/gcc-cross/arm-linux-gnueabihf/14/../../../../arm-linux-gnueabihf/lib/libc.a(iofopen64.o)
                0x00055b70                _IO_fopen64
                0x00055b70                fopen64
 .text          0x00055b78      0x128 /usr/lib/gcc-cross/arm-linux-gnueabihf/14/../../../../arm-linux-gnueabihf/lib/libc.a(putchar.o)
                0x00055b78                putchar
 .text          0x00055ca0      0x968 /usr/lib/gcc-cross/arm-linux-gnueabihf/14/../../../../arm-linux-gnueabihf/lib/libc.a(wgenops.o)
                0x00055dd4                _IO_least_wmarker
                0x00055df0                _IO_switch_to_main_wget_area
                0x00055e14                _IO_switch_to_wbackup_area
                0x00055e38                _IO_wsetb
                0x00055e80                _IO_wdefault_pbackfail
                0x00055f60                _IO_wdefault_finish
                0x00055fa4                _IO_wdefault_uflow
                0x00055fd8                __woverflow
                0x0005601c                _IO_wdefault_xsputn
                0x000560e0                _IO_wdoallocbuf
                0x00056148                _IO_wdefault_doallocate
                0x00056198                _IO_switch_to_wget_mode
                0x000561e4                _IO_free_wbackup_area
                0x0005621c                __wuflow
                0x000562d4                __wunderflow
                0x0005638c                _IO_wdefault_xsgetn
                0x00056428                _IO_sputbackwc
                0x0005647c                _IO_sungetwc
                0x000564c8                _IO_adjust_wcolumn
                0x00056508                _IO_init_wmarker
                0x0005653c                _IO_wmarker_delta
                0x00056560                _IO_seekwmark
                0x000565c4                _IO_unsave_wmarkers
 .text          0x00056608      0x2c8 /usr/lib/gcc-cross/arm-linux-gnueabihf/14/../../../../arm-linux-gnueabihf/lib/libc.a(iofwide.o)
                0x00056608                _IO_fwide
                0x000566f0                __libio_codecvt_out
                0x00056788                __libio_codecvt_in
                0x00056820                __libio_codecvt_encoding
                0x00056838                __libio_codecvt_length
 .text          0x000568d0      0x11c /usr/lib/gcc-cross/arm-linux-gnueabihf/14/../../../../arm-linux-gnueabihf/lib/libc.a(fseek.o)
                0x000568d0                fseek
 *fill*         0x000569ec        0x4 
 .text          0x000569f0      0x1a4 /usr/lib/gcc-cross/arm-linux-gnueabihf/14/../../../../arm-linux-gnueabihf/lib/libc.a(vsnprintf.o)
                0x000569f0                __printf_buffer_flush_snprintf
                0x00056a2c                __printf_buffer_snprintf_init
                0x00056a50                __printf_buffer_snprintf_done
                0x00056a70                __vsnprintf_internal
                0x00056b04                vsnprintf
                0x00056b04                ___vsnprintf
                0x00056b04                __vsnprintf
 .text          0x00056b94      0x144 /usr/lib/gcc-cross/arm-linux-gnueabihf/14/../../../../arm-linux-gnueabihf/lib/libc.a(libc_fatal.o)
                0x00056b94                __libc_message_impl
                0x00056cc8                __libc_fatal
 .text          0x00056cd8       0x24 /usr/lib/gcc-cross/arm-linux-gnueabihf/14/../../../../arm-linux-gnueabihf/lib/libc.a(vtables.o)
                0x00056cd8                _IO_vtable_check
 *fill*         0x00056cfc        0x4 
 .text          0x00056d00     0x1940 /usr/lib/gcc-cross/arm-linux-gnueabihf/14/../../../../arm-linux-gnueabihf/lib/libc.a(fileops.o)
                0x00057100                _IO_new_file_init_internal
                0x00057130                _IO_new_file_init
                0x00057130                _IO_file_init
                0x00057160                _IO_file_open
                0x00057214                _IO_new_file_attach
                0x00057214                _IO_file_attach
                0x000572b0                _IO_file_setbuf
                0x000572b0                _IO_new_file_setbuf
                0x000572cc                _IO_file_setbuf_mmap
                0x00057318                _IO_new_do_write
                0x00057318                _IO_do_write
                0x00057330                _IO_new_file_close_it
                0x00057330                _IO_file_close_it
                0x00057418                _IO_new_file_fopen
                0x00057418                _IO_file_fopen
                0x0005779c                _IO_file_finish
                0x0005779c                _IO_new_file_finish
                0x000577f8                _IO_file_underflow
                0x000577f8                _IO_new_file_underflow
                0x00057a80                _IO_file_underflow_mmap
                0x00057ad4                _IO_file_underflow_maybe_mmap
                0x00057b08                _IO_file_overflow
                0x00057b08                _IO_new_file_overflow
                0x00057c24                _IO_file_sync
                0x00057c24                _IO_new_file_sync
                0x00057cc4                _IO_file_sync_mmap
                0x00057d1c                _IO_file_seekoff
                0x00057d1c                _IO_new_file_seekoff
                0x00058160                _IO_file_seekoff_mmap
                0x00058228                _IO_file_seekoff_maybe_mmap
                0x0005826c                _IO_file_read
                0x0005827c                _IO_file_seek
                0x00058284                _IO_file_stat
                0x0005828c                _IO_file_close_mmap
                0x000582ac                _IO_file_close
                0x000582b4                _IO_file_write
                0x000582b4                _IO_new_file_write
                0x0005830c                _IO_new_file_xsputn
                0x0005830c                _IO_file_xsputn
                0x00058410                _IO_file_xsgetn
                0x00058554                _IO_file_xsgetn_mmap
                0x00058608                _IO_file_xsgetn_maybe_mmap
 .text          0x00058640     0x1a2c /usr/lib/gcc-cross/arm-linux-gnueabihf/14/../../../../arm-linux-gnueabihf/lib/libc.a(genops.o)
                0x00058a80                _IO_un_link
                0x00058a8c                _IO_link_in
                0x00058cec                _IO_switch_to_main_get_area
                0x00058d10                _IO_switch_to_backup_area
                0x00058d34                _IO_switch_to_get_mode
                0x00058d94                _IO_free_backup_area
                0x00058dc8                __overflow
                0x00058e0c                __underflow
                0x00058ed0                __uflow
                0x00058fa0                _IO_setb
                0x00058fd8                _IO_doallocbuf
                0x00059044                _IO_default_underflow
                0x0005904c                _IO_default_uflow
                0x00059080                _IO_default_xsputn
                0x0005910c                _IO_sgetn
                0x00059148                _IO_default_xsgetn
                0x000591c4                _IO_default_setbuf
                0x00059248                _IO_default_seekpos
                0x00059284                _IO_default_doallocate
                0x000592cc                _IO_init_internal
                0x00059328                _IO_init
                0x00059384                _IO_enable_locks
                0x000593bc                _IO_old_init
                0x0005940c                _IO_no_init
                0x00059494                _IO_default_sync
                0x00059498                _IO_default_finish
                0x000594e8                _IO_default_seekoff
                0x000594f4                _IO_sputbackc
                0x00059550                _IO_sungetc
                0x00059598                _IO_adjust_column
                0x000595c4                _IO_flush_all
                0x0005981c                _IO_flush_all_linebuffered
                0x0005981c                _flushlbf
                0x00059a74                __libio_freemem
                0x00059a98                _IO_cleanup
                0x00059d58                _IO_init_marker
                0x00059d88                _IO_remove_marker
                0x00059da8                _IO_marker_difference
                0x00059db0                _IO_marker_delta
                0x00059dd0                _IO_seekmark
                0x00059e34                _IO_unsave_markers
                0x00059e74                _IO_default_pbackfail
                0x00059f44                _IO_default_seek
                0x00059f50                _IO_default_stat
                0x00059f58                _IO_default_read
                0x00059f60                _IO_default_write
                0x00059f64                _IO_default_showmanyc
                0x00059f6c                _IO_default_imbue
                0x00059f70                _IO_iter_begin
                0x00059f7c                _IO_iter_end
                0x00059f80                _IO_iter_next
                0x00059f84                _IO_iter_file
                0x00059f88                _IO_list_lock
                0x0005a004                _IO_list_unlock
                0x0005a058                _IO_list_resetlock
 .text          0x0005a06c        0x0 /usr/lib/gcc-cross/arm-linux-gnueabihf/14/../../../../arm-linux-gnueabihf/lib/libc.a(stdfiles.o)
 .text          0x0005a06c        0x0 /usr/lib/gcc-cross/arm-linux-gnueabihf/14/../../../../arm-linux-gnueabihf/lib/libc.a(stdio.o)
 .text          0x0005a06c      0x55c /usr/lib/gcc-cross/arm-linux-gnueabihf/14/../../../../arm-linux-gnueabihf/lib/libc.a(strops.o)
                0x0005a17c                _IO_str_init_static_internal
                0x0005a1c8                _IO_str_init_static
                0x0005a218                _IO_str_init_readonly
                0x0005a260                _IO_str_overflow
                0x0005a36c                _IO_str_underflow
                0x0005a3a0                _IO_str_count
                0x0005a3b4                _IO_str_seekoff
                0x0005a584                _IO_str_pbackfail
                0x0005a5a4                _IO_str_finish
 .text          0x0005a5c8       0xa8 /usr/lib/gcc-cross/arm-linux-gnueabihf/14/../../../../arm-linux-gnueabihf/lib/libc.a(libc-cleanup.o)
                0x0005a5c8                __libc_cleanup_push_defer
                0x0005a610                __libc_cleanup_pop_restore
 .text          0x0005a670       0xc8 /usr/lib/gcc-cross/arm-linux-gnueabihf/14/../../../../arm-linux-gnueabihf/lib/libc.a(lowlevellock.o)
                0x0005a670                __lll_lock_wait_private
                0x0005a6bc                __lll_lock_wait
                0x0005a70c                __lll_lock_wake_private
                0x0005a720                __lll_lock_wake
 .text          0x0005a738       0xe8 /usr/lib/gcc-cross/arm-linux-gnueabihf/14/../../../../arm-linux-gnueabihf/lib/libc.a(nptl_deallocate_tsd.o)
                0x0005a738                __nptl_deallocate_tsd
 .text          0x0005a820        0x0 /usr/lib/gcc-cross/arm-linux-gnueabihf/14/../../../../arm-linux-gnueabihf/lib/libc.a(nptl_nthreads.o)
 .text          0x0005a820        0x0 /usr/lib/gcc-cross/arm-linux-gnueabihf/14/../../../../arm-linux-gnueabihf/lib/libc.a(pthread_keys.o)
 .text          0x0005a820      0x140 /usr/lib/gcc-cross/arm-linux-gnueabihf/14/../../../../arm-linux-gnueabihf/lib/libc.a(pthread_kill.o)
                0x0005a924                __pthread_raise_internal
                0x0005a94c                __pthread_kill_internal
                0x0005a950                pthread_kill
                0x0005a950                __pthread_kill
 .text          0x0005a960       0x30 /usr/lib/gcc-cross/arm-linux-gnueabihf/14/../../../../arm-linux-gnueabihf/lib/libc.a(pthread_rwlock_init.o)
                0x0005a960                pthread_rwlock_init
                0x0005a960                __pthread_rwlock_init
                0x0005a960                ___pthread_rwlock_init
 .text          0x0005a990      0x1a4 /usr/lib/gcc-cross/arm-linux-gnueabihf/14/../../../../arm-linux-gnueabihf/lib/libc.a(pthread_rwlock_rdlock.o)
                0x0005a990                pthread_rwlock_rdlock
                0x0005a990                __pthread_rwlock_rdlock
                0x0005a990                ___pthread_rwlock_rdlock
 .text          0x0005ab34      0x178 /usr/lib/gcc-cross/arm-linux-gnueabihf/14/../../../../arm-linux-gnueabihf/lib/libc.a(pthread_rwlock_unlock.o)
                0x0005ab34                pthread_rwlock_unlock
                0x0005ab34                __pthread_rwlock_unlock
                0x0005ab34                ___pthread_rwlock_unlock
 .text          0x0005acac      0x334 /usr/lib/gcc-cross/arm-linux-gnueabihf/14/../../../../arm-linux-gnueabihf/lib/libc.a(pthread_rwlock_wrlock.o)
                0x0005acac                ___pthread_rwlock_wrlock
                0x0005acac                __pthread_rwlock_wrlock
                0x0005acac                pthread_rwlock_wrlock
 .text          0x0005afe0      0x104 /usr/lib/gcc-cross/arm-linux-gnueabihf/14/../../../../arm-linux-gnueabihf/lib/libc.a(pthread_setcancelstate.o)
                0x0005afe0                __pthread_setcancelstate
                0x0005afe0                pthread_setcancelstate
 *fill*         0x0005b0e4        0x4 
 .text          0x0005b0e8     0x4d6c /usr/lib/gcc-cross/arm-linux-gnueabihf/14/../../../../arm-linux-gnueabihf/lib/libc.a(malloc.o)
                0x0005e560                __glibc_morecore
                0x0005e57c                __malloc_fork_lock_parent
                0x0005e5e0                __malloc_fork_unlock_parent
                0x0005e64c                __malloc_fork_unlock_child
                0x0005e6c4                malloc
                0x0005e6c4                __malloc
                0x0005e6c4                __libc_malloc
                0x0005ec0c                __free
                0x0005ec0c                __libc_free
                0x0005ec0c                free
                0x0005ed74                __malloc_arena_thread_freeres
                0x0005ee6c                __libc_realloc
                0x0005ee6c                realloc
                0x0005ee6c                __realloc
                0x0005f340                __libc_memalign
                0x0005f340                __memalign
                0x0005f340                memalign
                0x0005f370                aligned_alloc
                0x0005f3c0                __libc_valloc
                0x0005f3c0                valloc
                0x0005f3c0                __valloc
                0x0005f3f4                pvalloc
                0x0005f3f4                __libc_pvalloc
                0x0005f3f4                __pvalloc
                0x0005f448                __calloc
                0x0005f448                calloc
                0x0005f448                __libc_calloc
                0x0005f7ac                __malloc_trim
                0x0005f7ac                malloc_trim
                0x0005f994                malloc_usable_size
                0x0005f994                __malloc_usable_size
                0x0005f9b8                __mallinfo2
                0x0005f9b8                mallinfo2
                0x0005f9b8                __libc_mallinfo2
                0x0005fa8c                __mallinfo
                0x0005fa8c                __libc_mallinfo
                0x0005fa8c                mallinfo
                0x0005fafc                malloc_stats
                0x0005fafc                __malloc_stats
                0x0005fcb0                __libc_mallopt
                0x0005fcb0                mallopt
                0x0005fcb0                __mallopt
                0x0005fdc8                __posix_memalign
                0x0005fdc8                posix_memalign
                0x0005fe20                __malloc_info
                0x0005fe20                malloc_info
 .text          0x0005fe54       0x70 /usr/lib/gcc-cross/arm-linux-gnueabihf/14/../../../../arm-linux-gnueabihf/lib/libc.a(scratch_buffer_grow_preserve.o)
                0x0005fe54                __libc_scratch_buffer_grow_preserve
 .text          0x0005fec4       0x7c /usr/lib/gcc-cross/arm-linux-gnueabihf/14/../../../../arm-linux-gnueabihf/lib/libc.a(scratch_buffer_set_array_size.o)
                0x0005fec4                __libc_scratch_buffer_set_array_size
 .text          0x0005ff40       0x58 /usr/lib/gcc-cross/arm-linux-gnueabihf/14/../../../../arm-linux-gnueabihf/lib/libc.a(_strerror.o)
                0x0005ff40                __strerror_r
                0x0005ff40                strerror_r
 .text          0x0005ff98      0x2dc /usr/lib/gcc-cross/arm-linux-gnueabihf/14/../../../../arm-linux-gnueabihf/lib/libc.a(memcmp.o)
                0x0005ff98                bcmp
                0x0005ff98                __memcmpeq
                0x0005ff98                memcmp
 .text          0x00060274       0x18 /usr/lib/gcc-cross/arm-linux-gnueabihf/14/../../../../arm-linux-gnueabihf/lib/libc.a(memcpy.o)
                0x00060274                memcpy
 *fill*         0x0006028c        0x4 
 .text          0x00060290      0x320 /usr/lib/gcc-cross/arm-linux-gnueabihf/14/../../../../arm-linux-gnueabihf/lib/libc.a(memmove.o)
                0x00060290                memmove
 .text          0x000605b0       0x7c /usr/lib/gcc-cross/arm-linux-gnueabihf/14/../../../../arm-linux-gnueabihf/lib/libc.a(memset.o)
                0x000605b0                memset
 .text          0x0006062c       0x40 /usr/lib/gcc-cross/arm-linux-gnueabihf/14/../../../../arm-linux-gnueabihf/lib/libc.a(strcasecmp.o)
                0x0006062c                strcasecmp
                0x0006062c                __strcasecmp
 *fill*         0x0006066c        0x4 
 .text          0x00060670       0xa8 /usr/lib/gcc-cross/arm-linux-gnueabihf/14/../../../../arm-linux-gnueabihf/lib/libc.a(strchr.o)
                0x00060670                index
                0x00060670                strchr
 .text          0x00060718       0x5c /usr/lib/gcc-cross/arm-linux-gnueabihf/14/../../../../arm-linux-gnueabihf/lib/libc.a(strchrnul.o)
                0x00060718                __strchrnul
                0x00060718                strchrnul
 *fill*         0x00060774        0xc 
 .text          0x00060780      0x2f4 /usr/lib/gcc-cross/arm-linux-gnueabihf/14/../../../../arm-linux-gnueabihf/lib/libc.a(strcmp.o)
                0x00060790                strcmp
 .text          0x00060a74       0x20 /usr/lib/gcc-cross/arm-linux-gnueabihf/14/../../../../arm-linux-gnueabihf/lib/libc.a(strdup.o)
                0x00060a74                __strdup
                0x00060a74                strdup
 *fill*         0x00060a94       0x2c 
 .text          0x00060ac0       0xdc /usr/lib/gcc-cross/arm-linux-gnueabihf/14/../../../../arm-linux-gnueabihf/lib/libc.a(strlen.o)
                0x00060ac0                strlen
 .text          0x00060b9c       0x48 /usr/lib/gcc-cross/arm-linux-gnueabihf/14/../../../../arm-linux-gnueabihf/lib/libc.a(strncase.o)
                0x00060b9c                __strncasecmp
                0x00060b9c                strncasecmp
 .text          0x00060be4       0x38 /usr/lib/gcc-cross/arm-linux-gnueabihf/14/../../../../arm-linux-gnueabihf/lib/libc.a(strncase_l.o)
                0x00060be4                strncasecmp_l
                0x00060be4                __strncasecmp_l
 .text          0x00060c1c      0x1ac /usr/lib/gcc-cross/arm-linux-gnueabihf/14/../../../../arm-linux-gnueabihf/lib/libc.a(strncmp.o)
                0x00060c1c                strncmp
 .text          0x00060dc8       0x30 /usr/lib/gcc-cross/arm-linux-gnueabihf/14/../../../../arm-linux-gnueabihf/lib/libc.a(strncpy.o)
                0x00060dc8                strncpy
 .text          0x00060df8       0x18 /usr/lib/gcc-cross/arm-linux-gnueabihf/14/../../../../arm-linux-gnueabihf/lib/libc.a(strnlen.o)
                0x00060df8                __strnlen
                0x00060df8                strnlen
 .text          0x00060e10       0xa4 /usr/lib/gcc-cross/arm-linux-gnueabihf/14/../../../../arm-linux-gnueabihf/lib/libc.a(strrchr.o)
                0x00060e10                strrchr
                0x00060e10                rindex
 .text          0x00060eb4      0x4d0 /usr/lib/gcc-cross/arm-linux-gnueabihf/14/../../../../arm-linux-gnueabihf/lib/libc.a(strstr.o)
                0x0006119c                strstr
 *fill*         0x00061384       0x3c 
 .text          0x000613c0      0x4e0 /usr/lib/gcc-cross/arm-linux-gnueabihf/14/../../../../arm-linux-gnueabihf/lib/libc.a(memcpy_neon.o)
                0x000613c0                __memcpy_neon
 *fill*         0x000618a0       0x20 
 .text          0x000618c0      0x5e0 /usr/lib/gcc-cross/arm-linux-gnueabihf/14/../../../../arm-linux-gnueabihf/lib/libc.a(memcpy_vfp.o)
                0x000618c0                __memcpy_vfp
 .text          0x00061ea0       0x20 /usr/lib/gcc-cross/arm-linux-gnueabihf/14/../../../../arm-linux-gnueabihf/lib/libc.a(mbrlen.o)
                0x00061ea0                mbrlen
                0x00061ea0                __mbrlen
 .text          0x00061ec0      0x194 /usr/lib/gcc-cross/arm-linux-gnueabihf/14/../../../../arm-linux-gnueabihf/lib/libc.a(mbrtowc.o)
                0x00061ec0                mbrtowc
                0x00061ec0                __mbrtowc
 .text          0x00062054      0x14c /usr/lib/gcc-cross/arm-linux-gnueabihf/14/../../../../arm-linux-gnueabihf/lib/libc.a(wcrtomb.o)
                0x00062054                __wcrtomb_internal
                0x00062198                __wcrtomb
                0x00062198                wcrtomb
 .text          0x000621a0      0x408 /usr/lib/gcc-cross/arm-linux-gnueabihf/14/../../../../arm-linux-gnueabihf/lib/libc.a(wcsmbsload.o)
                0x000621a0                __wcsmbs_getfct
                0x00062208                __wcsmbs_load_conv
                0x00062404                __wcsmbs_clone_conv
                0x000624b0                __wcsmbs_named_conv
                0x00062570                _nl_cleanup_ctype
 .text          0x000625a8      0x210 /usr/lib/gcc-cross/arm-linux-gnueabihf/14/../../../../arm-linux-gnueabihf/lib/libc.a(wcsrtombs.o)
                0x000625a8                wcsrtombs
                0x000625a8                __wcsrtombs
 .text          0x000627b8        0x8 /usr/lib/gcc-cross/arm-linux-gnueabihf/14/../../../../arm-linux-gnueabihf/lib/libc.a(wmemcpy.o)
                0x000627b8                wmemcpy
                0x000627b8                __wmemcpy
 .text          0x000627c0        0x8 /usr/lib/gcc-cross/arm-linux-gnueabihf/14/../../../../arm-linux-gnueabihf/lib/libc.a(wmemmove.o)
                0x000627c0                __wmemmove
                0x000627c0                wmemmove
 .text          0x000627c8       0x10 /usr/lib/gcc-cross/arm-linux-gnueabihf/14/../../../../arm-linux-gnueabihf/lib/libc.a(wmempcpy.o)
                0x000627c8                wmempcpy
                0x000627c8                __wmempcpy
 .text          0x000627d8      0x10c /usr/lib/gcc-cross/arm-linux-gnueabihf/14/../../../../arm-linux-gnueabihf/lib/libc.a(gettimeofday.o)
                0x000627d8                __gettimeofday64
                0x00062854                __gettimeofday
                0x00062854                gettimeofday
 .text          0x000628e4      0x17c /usr/lib/gcc-cross/arm-linux-gnueabihf/14/../../../../arm-linux-gnueabihf/lib/libc.a(clock_gettime.o)
                0x000628e4                __clock_gettime64
                0x000629f0                clock_gettime
                0x000629f0                __clock_gettime
 .text          0x00062a60       0x24 /usr/lib/gcc-cross/arm-linux-gnueabihf/14/../../../../arm-linux-gnueabihf/lib/libc.a(_exit.o)
                0x00062a60                _Exit
                0x00062a60                _exit
 *fill*         0x00062a84        0xc 
 .text          0x00062a90        0xc /usr/lib/gcc-cross/arm-linux-gnueabihf/14/../../../../arm-linux-gnueabihf/lib/libc.a(getpid.o)
                0x00062a90                __getpid
                0x00062a90                getpid
 .text          0x00062a9c       0x18 /usr/lib/gcc-cross/arm-linux-gnueabihf/14/../../../../arm-linux-gnueabihf/lib/libc.a(spawn.o)
                0x00062a9c                posix_spawn
                0x00062a9c                __posix_spawn
 .text          0x00062ab4        0x4 /usr/lib/gcc-cross/arm-linux-gnueabihf/14/../../../../arm-linux-gnueabihf/lib/libc.a(spawnattr_destroy.o)
                0x00062ab4                __posix_spawnattr_destroy
                0x00062ab4                posix_spawnattr_destroy
 .text          0x00062ab8       0x10 /usr/lib/gcc-cross/arm-linux-gnueabihf/14/../../../../arm-linux-gnueabihf/lib/libc.a(spawnattr_init.o)
                0x00062ab8                posix_spawnattr_init
                0x00062ab8                __posix_spawnattr_init
 .text          0x00062ac8       0x10 /usr/lib/gcc-cross/arm-linux-gnueabihf/14/../../../../arm-linux-gnueabihf/lib/libc.a(spawnattr_setdefault.o)
                0x00062ac8                __posix_spawnattr_setsigdefault
                0x00062ac8                posix_spawnattr_setsigdefault
 .text          0x00062ad8       0x14 /usr/lib/gcc-cross/arm-linux-gnueabihf/14/../../../../arm-linux-gnueabihf/lib/libc.a(spawnattr_setflags.o)
                0x00062ad8                __posix_spawnattr_setflags
                0x00062ad8                posix_spawnattr_setflags
 .text          0x00062aec       0x10 /usr/lib/gcc-cross/arm-linux-gnueabihf/14/../../../../arm-linux-gnueabihf/lib/libc.a(spawnattr_setsigmask.o)
                0x00062aec                posix_spawnattr_setsigmask
                0x00062aec                __posix_spawnattr_setsigmask
 .text          0x00062afc      0x654 /usr/lib/gcc-cross/arm-linux-gnueabihf/14/../../../../arm-linux-gnueabihf/lib/libc.a(spawni.o)
                0x00063120                __spawni
 .text          0x00063150       0x18 /usr/lib/gcc-cross/arm-linux-gnueabihf/14/../../../../arm-linux-gnueabihf/lib/libc.a(waitid.o)
                0x00063150                __waitid
                0x00063150                __libc_waitid
                0x00063150                waitid
 .text          0x00063168        0x8 /usr/lib/gcc-cross/arm-linux-gnueabihf/14/../../../../arm-linux-gnueabihf/lib/libc.a(waitpid.o)
                0x00063168                waitpid
                0x00063168                __waitpid
 .text          0x00063170        0x0 /usr/lib/gcc-cross/arm-linux-gnueabihf/14/../../../../arm-linux-gnueabihf/lib/libc.a(environ.o)
 .text          0x00063170       0x18 /usr/lib/gcc-cross/arm-linux-gnueabihf/14/../../../../arm-linux-gnueabihf/lib/libc.a(chdir.o)
                0x00063170                chdir
                0x00063170                __chdir
 .text          0x00063188       0x1c /usr/lib/gcc-cross/arm-linux-gnueabihf/14/../../../../arm-linux-gnueabihf/lib/libc.a(close.o)
                0x00063188                __libc_close
                0x00063188                __close
                0x00063188                close
 .text          0x000631a4       0x30 /usr/lib/gcc-cross/arm-linux-gnueabihf/14/../../../../arm-linux-gnueabihf/lib/libc.a(dup2.o)
                0x000631a4                __dup2
                0x000631a4                dup2
 *fill*         0x000631d4        0xc 
 .text          0x000631e0       0x18 /usr/lib/gcc-cross/arm-linux-gnueabihf/14/../../../../arm-linux-gnueabihf/lib/libc.a(fchdir.o)
                0x000631e0                fchdir
                0x000631e0                __fchdir
 .text          0x000631f8      0x134 /usr/lib/gcc-cross/arm-linux-gnueabihf/14/../../../../arm-linux-gnueabihf/lib/libc.a(fcntl.o)
                0x000631f8                __libc_fcntl
                0x000631f8                __fcntl
                0x000631f8                fcntl
 .text          0x0006332c       0x80 /usr/lib/gcc-cross/arm-linux-gnueabihf/14/../../../../arm-linux-gnueabihf/lib/libc.a(fcntl64.o)
                0x0006332c                fcntl64
                0x0006332c                __fcntl_time64
                0x0006332c                __fcntl64
                0x0006332c                __libc_fcntl64
 .text          0x000633ac       0xa8 /usr/lib/gcc-cross/arm-linux-gnueabihf/14/../../../../arm-linux-gnueabihf/lib/libc.a(fstat64.o)
                0x000633ac                __fstat64_time64
                0x000633dc                fstat64
                0x000633dc                __fstat64
 .text          0x00063454      0x23c /usr/lib/gcc-cross/arm-linux-gnueabihf/14/../../../../arm-linux-gnueabihf/lib/libc.a(fstatat64.o)
                0x00063454                __fstatat64_time64
                0x00063638                fstatat64
                0x00063638                __fstatat64
 .text          0x00063690       0x84 /usr/lib/gcc-cross/arm-linux-gnueabihf/14/../../../../arm-linux-gnueabihf/lib/libc.a(lseek64.o)
                0x00063690                __lseek64
                0x00063690                __libc_lseek64
                0x00063690                lseek64
 .text          0x00063714       0x30 /usr/lib/gcc-cross/arm-linux-gnueabihf/14/../../../../arm-linux-gnueabihf/lib/libc.a(mkdir.o)
                0x00063714                __mkdir
                0x00063714                mkdir
 .text          0x00063744       0x78 /usr/lib/gcc-cross/arm-linux-gnueabihf/14/../../../../arm-linux-gnueabihf/lib/libc.a(open.o)
                0x00063744                __open
                0x00063744                __libc_open
                0x00063744                open
 .text          0x000637bc       0x7c /usr/lib/gcc-cross/arm-linux-gnueabihf/14/../../../../arm-linux-gnueabihf/lib/libc.a(open64.o)
                0x000637bc                __libc_open64
                0x000637bc                open64
                0x000637bc                __open64
 .text          0x00063838       0x18 /usr/lib/gcc-cross/arm-linux-gnueabihf/14/../../../../arm-linux-gnueabihf/lib/libc.a(read.o)
                0x00063838                __read
                0x00063838                __libc_read
                0x00063838                read
 .text          0x00063850       0x30 /usr/lib/gcc-cross/arm-linux-gnueabihf/14/../../../../arm-linux-gnueabihf/lib/libc.a(rmdir.o)
                0x00063850                rmdir
                0x00063850                __rmdir
 .text          0x00063880       0x30 /usr/lib/gcc-cross/arm-linux-gnueabihf/14/../../../../arm-linux-gnueabihf/lib/libc.a(unlink.o)
                0x00063880                __unlink
                0x00063880                unlink
 .text          0x000638b0       0x18 /usr/lib/gcc-cross/arm-linux-gnueabihf/14/../../../../arm-linux-gnueabihf/lib/libc.a(write.o)
                0x000638b0                __write
                0x000638b0                write
                0x000638b0                __libc_write
 .text          0x000638c8       0x30 /usr/lib/gcc-cross/arm-linux-gnueabihf/14/../../../../arm-linux-gnueabihf/lib/libc.a(close_nocancel.o)
                0x000638c8                __close_nocancel
 .text          0x000638f8      0x154 /usr/lib/gcc-cross/arm-linux-gnueabihf/14/../../../../arm-linux-gnueabihf/lib/libc.a(fcntl_nocancel.o)
                0x000638f8                __fcntl64_nocancel
                0x000639a8                __fcntl64_nocancel_adjusted
 .text          0x00063a4c       0x8c /usr/lib/gcc-cross/arm-linux-gnueabihf/14/../../../../arm-linux-gnueabihf/lib/libc.a(open_nocancel.o)
                0x00063a4c                __open_nocancel
 .text          0x00063ad8       0x30 /usr/lib/gcc-cross/arm-linux-gnueabihf/14/../../../../arm-linux-gnueabihf/lib/libc.a(read_nocancel.o)
                0x00063ad8                __read_nocancel
 .text          0x00063b08       0xac /usr/lib/gcc-cross/arm-linux-gnueabihf/14/../../../../arm-linux-gnueabihf/lib/libc.a(stat_t64_cp.o)
                0x00063b08                __cp_stat64_t64_stat64
 .text          0x00063bb4       0x30 /usr/lib/gcc-cross/arm-linux-gnueabihf/14/../../../../arm-linux-gnueabihf/lib/libc.a(write_nocancel.o)
                0x00063bb4                __write_nocancel
 .text          0x00063be4      0x1ac /usr/lib/gcc-cross/arm-linux-gnueabihf/14/../../../../arm-linux-gnueabihf/lib/libc.a(tcsetattr.o)
                0x00063be4                __tcsetattr
                0x00063be4                tcsetattr
 .text          0x00063d90       0xd0 /usr/lib/gcc-cross/arm-linux-gnueabihf/14/../../../../arm-linux-gnueabihf/lib/libc.a(tcgetattr.o)
                0x00063d90                __tcgetattr
                0x00063d90                tcgetattr
 .text          0x00063e60       0x18 /usr/lib/gcc-cross/arm-linux-gnueabihf/14/../../../../arm-linux-gnueabihf/lib/libc.a(tcsetpgrp.o)
                0x00063e60                __tcsetpgrp
                0x00063e60                tcsetpgrp
 .text          0x00063e78       0x38 /usr/lib/gcc-cross/arm-linux-gnueabihf/14/../../../../arm-linux-gnueabihf/lib/libc.a(getrlimit64.o)
                0x00063e78                getrlimit64
                0x00063e78                __getrlimit64
 .text          0x00063eb0       0x3c /usr/lib/gcc-cross/arm-linux-gnueabihf/14/../../../../arm-linux-gnueabihf/lib/libc.a(brk.o)
                0x00063eb0                __brk
                0x00063eb0                brk
 .text          0x00063eec       0x38 /usr/lib/gcc-cross/arm-linux-gnueabihf/14/../../../../arm-linux-gnueabihf/lib/libc.a(getpagesize.o)
                0x00063eec                getpagesize
                0x00063eec                __getpagesize
 .text          0x00063f24      0x448 /usr/lib/gcc-cross/arm-linux-gnueabihf/14/../../../../arm-linux-gnueabihf/lib/libc.a(getsysstats.o)
                0x0006423c                __get_nprocs
                0x0006423c                get_nprocs
                0x00064264                __get_nprocs_conf
                0x00064264                get_nprocs_conf
                0x0006428c                get_phys_pages
                0x0006428c                __get_phys_pages
                0x000642fc                get_avphys_pages
                0x000642fc                __get_avphys_pages
 .text          0x0006436c       0x78 /usr/lib/gcc-cross/arm-linux-gnueabihf/14/../../../../arm-linux-gnueabihf/lib/libc.a(ioctl.o)
                0x0006436c                ioctl
                0x0006436c                __ioctl
                0x0006436c                __ioctl_time64
 *fill*         0x000643e4        0xc 
 .text          0x000643f0       0x18 /usr/lib/gcc-cross/arm-linux-gnueabihf/14/../../../../arm-linux-gnueabihf/lib/libc.a(madvise.o)
                0x000643f0                madvise
                0x000643f0                __madvise
 .text          0x00064408       0x50 /usr/lib/gcc-cross/arm-linux-gnueabihf/14/../../../../arm-linux-gnueabihf/lib/libc.a(mmap.o)
                0x00064408                __mmap
                0x00064408                mmap
 .text          0x00064458       0x64 /usr/lib/gcc-cross/arm-linux-gnueabihf/14/../../../../arm-linux-gnueabihf/lib/libc.a(mmap64.o)
                0x00064458                __mmap64
                0x00064458                mmap64
 *fill*         0x000644bc        0x4 
 .text          0x000644c0       0x18 /usr/lib/gcc-cross/arm-linux-gnueabihf/14/../../../../arm-linux-gnueabihf/lib/libc.a(mprotect.o)
                0x000644c0                __mprotect
                0x000644c0                mprotect
 *fill*         0x000644d8        0x8 
 .text          0x000644e0       0x18 /usr/lib/gcc-cross/arm-linux-gnueabihf/14/../../../../arm-linux-gnueabihf/lib/libc.a(munmap.o)
                0x000644e0                munmap
                0x000644e0                __munmap
 .text          0x000644f8       0x58 /usr/lib/gcc-cross/arm-linux-gnueabihf/14/../../../../arm-linux-gnueabihf/lib/libc.a(sbrk.o)
                0x000644f8                sbrk
                0x000644f8                __sbrk
 .text          0x00064550        0x0 /usr/lib/gcc-cross/arm-linux-gnueabihf/14/../../../../arm-linux-gnueabihf/lib/libc.a(single_threaded.o)
 .text          0x00064550       0x74 /usr/lib/gcc-cross/arm-linux-gnueabihf/14/../../../../arm-linux-gnueabihf/lib/libc.a(usleep.o)
                0x00064550                usleep
 .text          0x000645c4       0xf8 /usr/lib/gcc-cross/arm-linux-gnueabihf/14/../../../../arm-linux-gnueabihf/lib/libc.a(clone-internal.o)
                0x000645c4                __clone_internal_fallback
                0x000645fc                __clone3_internal
                0x00064650                __clone_internal
 .text          0x000646bc       0x44 /usr/lib/gcc-cross/arm-linux-gnueabihf/14/../../../../arm-linux-gnueabihf/lib/libc.a(clone-pidfd-support.o)
                0x000646bc                __clone_pidfd_supported
 .text          0x00064700       0x30 /usr/lib/gcc-cross/arm-linux-gnueabihf/14/../../../../arm-linux-gnueabihf/lib/libc.a(clone3.o)
                0x00064700                __clone3
 .text          0x00064730      0x180 /usr/lib/gcc-cross/arm-linux-gnueabihf/14/../../../../arm-linux-gnueabihf/lib/libc.a(closefrom_fallback.o)
                0x00064730                __closefrom_fallback
 .text          0x000648b0       0x9c /usr/lib/gcc-cross/arm-linux-gnueabihf/14/../../../../arm-linux-gnueabihf/lib/libc.a(mremap.o)
                0x000648b0                mremap
                0x000648b0                __mremap
 .text          0x0006494c       0x88 /usr/lib/gcc-cross/arm-linux-gnueabihf/14/../../../../arm-linux-gnueabihf/lib/libc.a(setvmaname.o)
                0x0006494c                __set_vma_name
 *fill*         0x000649d4        0xc 
 .text          0x000649e0       0x18 /usr/lib/gcc-cross/arm-linux-gnueabihf/14/../../../../arm-linux-gnueabihf/lib/libc.a(sysinfo.o)
                0x000649e0                sysinfo
                0x000649e0                __sysinfo
 *fill*         0x000649f8        0x8 
 .text          0x00064a00        0xc /usr/lib/gcc-cross/arm-linux-gnueabihf/14/../../../../arm-linux-gnueabihf/lib/libc.a(gettid.o)
                0x00064a00                gettid
                0x00064a00                __gettid
 .text          0x00064a0c      0x31c /usr/lib/gcc-cross/arm-linux-gnueabihf/14/../../../../arm-linux-gnueabihf/lib/libc.a(malloc-hugepages.o)
                0x00064a0c                __malloc_default_thp_pagesize
                0x00064a98                __malloc_thp_mode
                0x00064b44                __malloc_hugepage_config
 .text          0x00064d28       0x4c /usr/lib/gcc-cross/arm-linux-gnueabihf/14/../../../../arm-linux-gnueabihf/lib/libc.a(wctrans.o)
                0x00064d28                __wctrans
                0x00064d28                wctrans
 .text          0x00064d74       0x40 /usr/lib/gcc-cross/arm-linux-gnueabihf/14/../../../../arm-linux-gnueabihf/lib/libc.a(towctrans.o)
                0x00064d74                towctrans
                0x00064d74                __towctrans
 .text          0x00064db4       0x10 /usr/lib/gcc-cross/arm-linux-gnueabihf/14/../../../../arm-linux-gnueabihf/lib/libc.a(chk_fail.o)
                0x00064db4                __chk_fail
 .text          0x00064dc4       0x10 /usr/lib/gcc-cross/arm-linux-gnueabihf/14/../../../../arm-linux-gnueabihf/lib/libc.a(fortify_fail.o)
                0x00064dc4                __fortify_fail
 .text          0x00064dd4       0x60 /usr/lib/gcc-cross/arm-linux-gnueabihf/14/../../../../arm-linux-gnueabihf/lib/libc.a(fprintf_chk.o)
                0x00064dd4                __fprintf_chk
                0x00064dd4                ___fprintf_chk
 .text          0x00064e34       0x10 /usr/lib/gcc-cross/arm-linux-gnueabihf/14/../../../../arm-linux-gnueabihf/lib/libc.a(memcpy_chk.o)
                0x00064e34                __memcpy_chk
 .text          0x00064e44      0x164 /usr/lib/gcc-cross/arm-linux-gnueabihf/14/../../../../arm-linux-gnueabihf/lib/libc.a(readonly-area.o)
                0x00064e44                __readonly_area
 .text          0x00064fa8       0x10 /usr/lib/gcc-cross/arm-linux-gnueabihf/14/../../../../arm-linux-gnueabihf/lib/libc.a(stack_chk_fail.o)
                0x00064fa8                __stack_chk_fail_local
                0x00064fa8                __stack_chk_fail
 .text          0x00064fb8       0xc4 /usr/lib/gcc-cross/arm-linux-gnueabihf/14/../../../../arm-linux-gnueabihf/lib/libc.a(dl-debug.o)
                0x00064fb8                _dl_debug_state
                0x00064fbc                _dl_debug_update
                0x00065004                _dl_debug_initialize
 .text          0x0006507c        0x0 /usr/lib/gcc-cross/arm-linux-gnueabihf/14/../../../../arm-linux-gnueabihf/lib/libc.a(dl-debug-symbols.o)
 .text          0x0006507c      0x9c0 /usr/lib/gcc-cross/arm-linux-gnueabihf/14/../../../../arm-linux-gnueabihf/lib/libc.a(dl-tls.o)
                0x00065300                _dl_tls_static_surplus_init
                0x0006536c                _dl_assign_tls_modid
                0x00065440                _dl_count_modids
                0x00065498                _dl_determine_tlsoffset
                0x00065618                _dl_get_tls_static_info
                0x00065644                _dl_allocate_tls_storage
                0x00065704                _dl_allocate_tls_init
                0x00065714                _dl_allocate_tls
                0x0006575c                _dl_deallocate_tls
                0x000657bc                _dl_tls_get_addr_soft
                0x00065828                _dl_tls_initial_modid_limit_setup
                0x00065868                _dl_add_to_slotinfo
                0x00065970                _dl_init_static_tls
 .text          0x00065a3c      0x124 /usr/lib/gcc-cross/arm-linux-gnueabihf/14/../../../../arm-linux-gnueabihf/lib/libc.a(dl-tls_init_tp.o)
                0x00065a3c                __tls_pre_init_tp
                0x00065a6c                __tls_init_tp
 .text          0x00065b60      0x698 /usr/lib/gcc-cross/arm-linux-gnueabihf/14/../../../../arm-linux-gnueabihf/lib/libc.a(dl-tunables.o)
                0x00065cec                __tunable_is_initialized
                0x00065d00                __tunable_set_val
                0x00065d1c                __tunables_init
                0x00066044                __tunables_print
                0x000660e8                __tunable_get_default
                0x00066158                __tunable_get_val
 .text          0x000661f8        0x0 /usr/lib/gcc-cross/arm-linux-gnueabihf/14/../../../../arm-linux-gnueabihf/lib/libc.a(dl-rseq-symbols.o)
 .text          0x000661f8       0x58 /usr/lib/gcc-cross/arm-linux-gnueabihf/14/../../../../arm-linux-gnueabihf/lib/libc.a(dl-early_allocate.o)
                0x000661f8                _dl_early_allocate
 .text          0x00066250      0x7d0 /usr/lib/gcc-cross/arm-linux-gnueabihf/14/../../../../arm-linux-gnueabihf/lib/libc.a(dl-support.o)
                0x00066250                _dl_aux_init
                0x00066374                _dl_non_dynamic_init
                0x00066a10                _dl_get_dl_main_map
                0x00066a1c                _dl_audit_pltexit
 .text          0x00066a20        0x0 /usr/lib/gcc-cross/arm-linux-gnueabihf/14/../../../../arm-linux-gnueabihf/lib/libc.a(enbl-secure.o)
 .text          0x00066a20       0xcc /usr/lib/gcc-cross/arm-linux-gnueabihf/14/../../../../arm-linux-gnueabihf/lib/libc.a(libc_early_init.o)
                0x00066a20                __libc_early_init
 .text          0x00066aec       0xa0 /usr/lib/gcc-cross/arm-linux-gnueabihf/14/../../../../arm-linux-gnueabihf/lib/libc.a(check_fds.o)
                0x00066b68                __libc_check_standard_fds
 .text          0x00066b8c       0x38 /usr/lib/gcc-cross/arm-linux-gnueabihf/14/../../../../arm-linux-gnueabihf/lib/libc.a(init-first.o)
                0x00066b8c                __libc_init_first
 *fill*         0x00066bc4        0xc 
 .text          0x00066bd0       0x1c /usr/lib/gcc-cross/arm-linux-gnueabihf/14/../../../../arm-linux-gnueabihf/lib/libc.a(sysdep.o)
                0x00066bd0                __syscall_error
 .text          0x00066bec        0x0 /usr/lib/gcc-cross/arm-linux-gnueabihf/14/../../../../arm-linux-gnueabihf/lib/libc.a(errno.o)
 .text          0x00066bec      0xba4 /usr/lib/gcc-cross/arm-linux-gnueabihf/14/../../../../arm-linux-gnueabihf/lib/libc.a(gconv_db.o)
                0x00066bec                __gconv_alias_compare
                0x00066cb4                __gconv_get_modules_db
                0x00066cc0                __gconv_get_alias_db
                0x00066ccc                __gconv_release_step
                0x000673b4                __gconv_compare_alias
                0x00067460                __gconv_find_transform
                0x00067644                __gconv_close_transform
                0x0006772c                __gconv_db_freemem
 .text          0x00067790      0xac4 /usr/lib/gcc-cross/arm-linux-gnueabihf/14/../../../../arm-linux-gnueabihf/lib/libc.a(gconv_conf.o)
                0x0006821c                __gconv_load_conf
                0x00068234                __gconv_conf_freemem
 .text          0x00068254       0x74 /usr/lib/gcc-cross/arm-linux-gnueabihf/14/../../../../arm-linux-gnueabihf/lib/libc.a(gconv_builtin.o)
                0x00068254                __gconv_get_builtin_trans
 .text          0x000682c8     0x4854 /usr/lib/gcc-cross/arm-linux-gnueabihf/14/../../../../arm-linux-gnueabihf/lib/libc.a(gconv_simple.o)
                0x000682c8                __gconv_btwoc_ascii
                0x000682d8                __gconv_transform_internal_ucs4
                0x000686b4                __gconv_transform_ucs4_internal
                0x00068b90                __gconv_transform_internal_ucs4le
                0x00068f5c                __gconv_transform_ucs4le_internal
                0x00069444                __gconv_transform_ascii_internal
                0x00069770                __gconv_transform_internal_ascii
                0x00069f00                __gconv_transform_internal_utf8
                0x0006a7d4                __gconv_transform_utf8_internal
                0x0006b0fc                __gconv_transform_ucs2_internal
                0x0006b610                __gconv_transform_internal_ucs2
                0x0006be20                __gconv_transform_ucs2reverse_internal
                0x0006c330                __gconv_transform_internal_ucs2reverse
 .text          0x0006cb1c      0x2d4 /usr/lib/gcc-cross/arm-linux-gnueabihf/14/../../../../arm-linux-gnueabihf/lib/libc.a(gconv_trans.o)
                0x0006cb1c                __gconv_transliterate
 .text          0x0006cdf0      0x644 /usr/lib/gcc-cross/arm-linux-gnueabihf/14/../../../../arm-linux-gnueabihf/lib/libc.a(gconv_cache.o)
                0x0006cf40                __gconv_get_cache
                0x0006cf4c                __gconv_load_cache
                0x0006d0ac                __gconv_compare_alias_cache
                0x0006d12c                __gconv_lookup_cache
                0x0006d404                __gconv_release_cache
                0x0006d418                __gconv_cache_freemem
 .text          0x0006d434      0x1fc /usr/lib/gcc-cross/arm-linux-gnueabihf/14/../../../../arm-linux-gnueabihf/lib/libc.a(gconv_dl.o)
                0x0006d4b4                __gconv_find_shlib
                0x0006d5f8                __gconv_release_shlib
                0x0006d610                __gconv_dl_freemem
 .text          0x0006d630      0x924 /usr/lib/gcc-cross/arm-linux-gnueabihf/14/../../../../arm-linux-gnueabihf/lib/libc.a(setlocale.o)
                0x0006d7f0                setlocale
                0x0006dcf8                _nl_locale_subfreeres
 .text          0x0006df54       0x70 /usr/lib/gcc-cross/arm-linux-gnueabihf/14/../../../../arm-linux-gnueabihf/lib/libc.a(lc-ctype.o)
                0x0006df54                _nl_postload_ctype
 .text          0x0006dfc4        0x0 /usr/lib/gcc-cross/arm-linux-gnueabihf/14/../../../../arm-linux-gnueabihf/lib/libc.a(lc-numeric.o)
 .text          0x0006dfc4        0x0 /usr/lib/gcc-cross/arm-linux-gnueabihf/14/../../../../arm-linux-gnueabihf/lib/libc.a(C_name.o)
 .text          0x0006dfc4        0x0 /usr/lib/gcc-cross/arm-linux-gnueabihf/14/../../../../arm-linux-gnueabihf/lib/libc.a(SYS_libc.o)
 .text          0x0006dfc4        0x0 /usr/lib/gcc-cross/arm-linux-gnueabihf/14/../../../../arm-linux-gnueabihf/lib/libc.a(global-locale.o)
 .text          0x0006dfc4        0x0 /usr/lib/gcc-cross/arm-linux-gnueabihf/14/../../../../arm-linux-gnueabihf/lib/libc.a(xlocale.o)
 .text          0x0006dfc4       0x4c /usr/lib/gcc-cross/arm-linux-gnueabihf/14/../../../../arm-linux-gnueabihf/lib/libc.a(__libc_assert_fail.o)
                0x0006dfc4                __libc_assert_fail
 .text          0x0006e010       0x18 /usr/lib/gcc-cross/arm-linux-gnueabihf/14/../../../../arm-linux-gnueabihf/lib/libc.a(dcgettext.o)
                0x0006e010                __dcgettext
                0x0006e010                dcgettext
 .text          0x0006e028      0xdcc /usr/lib/gcc-cross/arm-linux-gnueabihf/14/../../../../arm-linux-gnueabihf/lib/libc.a(dcigettext.o)
                0x0006e168                _nl_find_msg
                0x0006e7e8                __dcigettext
                0x0006ed64                __intl_freemem
 .text          0x0006edf4      0x1d4 /usr/lib/gcc-cross/arm-linux-gnueabihf/14/../../../../arm-linux-gnueabihf/lib/libc.a(finddomain.o)
                0x0006edf4                _nl_find_domain
                0x0006ef9c                _nl_finddomain_subfreeres
 .text          0x0006efc8     0x1188 /usr/lib/gcc-cross/arm-linux-gnueabihf/14/../../../../arm-linux-gnueabihf/lib/libc.a(loadmsgcat.o)
                0x0006efc8                _nl_load_domain
                0x000700d4                _nl_unload_domain
 .text          0x00070150      0x468 /usr/lib/gcc-cross/arm-linux-gnueabihf/14/../../../../arm-linux-gnueabihf/lib/libc.a(localealias.o)
                0x00070468                _nl_expand_alias
                0x0007059c                __libc_localealias_freemem
 .text          0x000705b8      0x410 /usr/lib/gcc-cross/arm-linux-gnueabihf/14/../../../../arm-linux-gnueabihf/lib/libc.a(l10nflist.o)
                0x000705b8                _nl_make_l10nflist
                0x00070900                _nl_normalize_codeset
 .text          0x000709c8      0x158 /usr/lib/gcc-cross/arm-linux-gnueabihf/14/../../../../arm-linux-gnueabihf/lib/libc.a(explodename.o)
                0x000709c8                _nl_explode_name
 .text          0x00070b20      0x74c /usr/lib/gcc-cross/arm-linux-gnueabihf/14/../../../../arm-linux-gnueabihf/lib/libc.a(plural.o)
                0x00070b20                __gettext_free_exp
                0x00070b54                __gettextparse
 .text          0x0007126c       0xd0 /usr/lib/gcc-cross/arm-linux-gnueabihf/14/../../../../arm-linux-gnueabihf/lib/libc.a(plural-exp.o)
                0x0007126c                __gettext_extract_plural
 .text          0x0007133c       0x28 /usr/lib/gcc-cross/arm-linux-gnueabihf/14/../../../../arm-linux-gnueabihf/lib/libc.a(hash-string.o)
                0x0007133c                __hash_string
 *fill*         0x00071364        0xc 
 .text          0x00071370       0x68 /usr/lib/gcc-cross/arm-linux-gnueabihf/14/../../../../arm-linux-gnueabihf/lib/libc.a(setjmp.o)
                0x00071370                __sigsetjmp
 .text          0x000713d8       0x28 /usr/lib/gcc-cross/arm-linux-gnueabihf/14/../../../../arm-linux-gnueabihf/lib/libc.a(sigjmp.o)
                0x000713d8                __sigjmp_save
 .text          0x00071400       0x28 /usr/lib/gcc-cross/arm-linux-gnueabihf/14/../../../../arm-linux-gnueabihf/lib/libc.a(raise.o)
                0x00071400                gsignal
                0x00071400                raise
 .text          0x00071428       0xac /usr/lib/gcc-cross/arm-linux-gnueabihf/14/../../../../arm-linux-gnueabihf/lib/libc.a(sigaction.o)
                0x00071428                sigaction
                0x00071428                __sigaction
 .text          0x000714d4      0x104 /usr/lib/gcc-cross/arm-linux-gnueabihf/14/../../../../arm-linux-gnueabihf/lib/libc.a(libc_sigaction.o)
                0x000714d4                __libc_sigaction
 .text          0x000715d8       0x20 /usr/lib/gcc-cross/arm-linux-gnueabihf/14/../../../../arm-linux-gnueabihf/lib/libc.a(sigprocmask.o)
                0x000715d8                __sigprocmask
                0x000715d8                sigprocmask
 *fill*         0x000715f8        0x8 
 .text          0x00071600       0x28 /usr/lib/gcc-cross/arm-linux-gnueabihf/14/../../../../arm-linux-gnueabihf/lib/libc.a(sigrestorer.o)
                0x00071610                __default_sa_restorer
                0x00071620                __default_rt_sa_restorer
 .text          0x00071628       0x94 /usr/lib/gcc-cross/arm-linux-gnueabihf/14/../../../../arm-linux-gnueabihf/lib/libc.a(getenv.o)
                0x00071628                getenv
 .text          0x000716bc       0x58 /usr/lib/gcc-cross/arm-linux-gnueabihf/14/../../../../arm-linux-gnueabihf/lib/libc.a(getrandom.o)
                0x000716bc                __getrandom_early_init
                0x000716c0                __getrandom_reset_state
                0x000716c4                __getrandom_vdso_release
                0x000716c8                __getrandom_fork_subprocess
                0x000716cc                __getrandom_nocancel
                0x000716fc                __getrandom
                0x000716fc                getrandom
 .text          0x00071714      0x6a0 /usr/lib/gcc-cross/arm-linux-gnueabihf/14/../../../../arm-linux-gnueabihf/lib/libc.a(qsort.o)
                0x00071b1c                __qsort_r
                0x00071b1c                qsort_r
                0x00071da4                qsort
 .text          0x00071db4      0x47c /usr/lib/gcc-cross/arm-linux-gnueabihf/14/../../../../arm-linux-gnueabihf/lib/libc.a(setenv.o)
                0x00071db4                __add_to_environ
                0x00072024                setenv
                0x00072024                __setenv
                0x00072060                unsetenv
                0x00072060                __unsetenv
                0x00072140                clearenv
                0x00072140                __clearenv
                0x000721dc                __libc_setenv_freemem
 .text          0x00072230       0x30 /usr/lib/gcc-cross/arm-linux-gnueabihf/14/../../../../arm-linux-gnueabihf/lib/libc.a(strtof.o)
                0x00072230                __strtof_internal
                0x00072248                strtof32
                0x00072248                strtof
 .text          0x00072260     0x2178 /usr/lib/gcc-cross/arm-linux-gnueabihf/14/../../../../arm-linux-gnueabihf/lib/libc.a(strtof_l.o)
                0x000727b4                ____strtof_l_internal
                0x000743d0                strtof32_l
                0x000743d0                strtof_l
                0x000743d0                __strtof_l
 .text          0x000743d8       0xd0 /usr/lib/gcc-cross/arm-linux-gnueabihf/14/../../../../arm-linux-gnueabihf/lib/libc.a(strtof_nan.o)
                0x000743d8                __strtof_nan
 .text          0x000744a8       0x30 /usr/lib/gcc-cross/arm-linux-gnueabihf/14/../../../../arm-linux-gnueabihf/lib/libc.a(strtold.o)
                0x000744a8                __strtold_internal
                0x000744c0                strtold
 .text          0x000744d8        0xc /usr/lib/gcc-cross/arm-linux-gnueabihf/14/../../../../arm-linux-gnueabihf/lib/libc.a(strtold_l.o)
                0x000744d8                ____strtold_l_internal
                0x000744dc                __strtold_l
                0x000744dc                strtold_l
 .text          0x000744e4       0x74 /usr/lib/gcc-cross/arm-linux-gnueabihf/14/../../../../arm-linux-gnueabihf/lib/libc.a(strtoll.o)
                0x000744e4                __strtoll_internal
                0x00074508                strtoimax
                0x00074508                strtoll
                0x00074508                __strtoll
                0x00074508                strtoq
                0x00074530                __isoc23_strtoimax
                0x00074530                __isoc23_strtoll
 .text          0x00074558      0x578 /usr/lib/gcc-cross/arm-linux-gnueabihf/14/../../../../arm-linux-gnueabihf/lib/libc.a(strtoll_l.o)
                0x00074558                ____strtoll_l_internal
                0x00074aa4                strtoll_l
                0x00074aa4                __strtoll_l
                0x00074abc                __isoc23_strtoll_l
 .text          0x00074ad0       0x74 /usr/lib/gcc-cross/arm-linux-gnueabihf/14/../../../../arm-linux-gnueabihf/lib/libc.a(strtoul.o)
                0x00074ad0                __strtoul_internal
                0x00074af4                strtoul
                0x00074af4                __strtoul
                0x00074b1c                __isoc23_strtoul
 .text          0x00074b44      0x394 /usr/lib/gcc-cross/arm-linux-gnueabihf/14/../../../../arm-linux-gnueabihf/lib/libc.a(strtoul_l.o)
                0x00074b44                ____strtoul_l_internal
                0x00074eac                strtoul_l
                0x00074eac                __strtoul_l
                0x00074ec4                __isoc23_strtoul_l
 .text          0x00074ed8       0x74 /usr/lib/gcc-cross/arm-linux-gnueabihf/14/../../../../arm-linux-gnueabihf/lib/libc.a(strtoull.o)
                0x00074ed8                __strtoull_internal
                0x00074efc                strtoumax
                0x00074efc                strtoull
                0x00074efc                strtouq
                0x00074efc                __strtoull
                0x00074f24                __isoc23_strtoull
                0x00074f24                __isoc23_strtoumax
 *fill*         0x00074f4c        0x4 
 .text          0x00074f50       0x38 /usr/lib/gcc-cross/arm-linux-gnueabihf/14/../../../../arm-linux-gnueabihf/lib/libc.a(addmul_1.o)
                0x00074f50                __mpn_addmul_1
 .text          0x00074f88       0x18 /usr/lib/gcc-cross/arm-linux-gnueabihf/14/../../../../arm-linux-gnueabihf/lib/libc.a(mpn2flt.o)
                0x00074f88                __mpn_construct_float
 .text          0x00074fa0      0x4cc /usr/lib/gcc-cross/arm-linux-gnueabihf/14/../../../../arm-linux-gnueabihf/lib/libc.a(_itoa.o)
                0x00074fa0                _itoa_word
                0x00075034                _itoa
                0x00075400                _fitoa_word
                0x00075434                _fitoa
 .text          0x0007546c       0x3c /usr/lib/gcc-cross/arm-linux-gnueabihf/14/../../../../arm-linux-gnueabihf/lib/libc.a(funlockfile.o)
                0x0007546c                _IO_funlockfile
                0x0007546c                funlockfile
                0x0007546c                __funlockfile
 .text          0x000754a8       0xf8 /usr/lib/gcc-cross/arm-linux-gnueabihf/14/../../../../arm-linux-gnueabihf/lib/libc.a(grouping_iterator.o)
                0x000754a8                __grouping_iterator_init_none
                0x000754bc                __grouping_iterator_init
                0x00075550                __grouping_iterator_next
 .text          0x000755a0        0x0 /usr/lib/gcc-cross/arm-linux-gnueabihf/14/../../../../arm-linux-gnueabihf/lib/libc.a(itoa-digits.o)
 .text          0x000755a0        0x0 /usr/lib/gcc-cross/arm-linux-gnueabihf/14/../../../../arm-linux-gnueabihf/lib/libc.a(itoa-udigits.o)
 .text          0x000755a0       0x58 /usr/lib/gcc-cross/arm-linux-gnueabihf/14/../../../../arm-linux-gnueabihf/lib/libc.a(printf_buffer_done.o)
                0x000755a0                __printf_buffer_done
 .text          0x000755f8       0x60 /usr/lib/gcc-cross/arm-linux-gnueabihf/14/../../../../arm-linux-gnueabihf/lib/libc.a(printf_buffer_pad_1.o)
                0x000755f8                __printf_buffer_pad_1
 .text          0x00075658       0x40 /usr/lib/gcc-cross/arm-linux-gnueabihf/14/../../../../arm-linux-gnueabihf/lib/libc.a(printf_buffer_putc_1.o)
                0x00075658                __printf_buffer_putc_1
 .text          0x00075698       0x68 /usr/lib/gcc-cross/arm-linux-gnueabihf/14/../../../../arm-linux-gnueabihf/lib/libc.a(printf_buffer_puts_1.o)
                0x00075698                __printf_buffer_puts_1
 .text          0x00075700      0x148 /usr/lib/gcc-cross/arm-linux-gnueabihf/14/../../../../arm-linux-gnueabihf/lib/libc.a(printf_buffer_to_file.o)
                0x00075700                __printf_buffer_to_file_switch
                0x0007571c                __printf_buffer_flush_to_file
                0x00075800                __printf_buffer_to_file_init
                0x0007582c                __printf_buffer_to_file_done
 .text          0x00075848       0x64 /usr/lib/gcc-cross/arm-linux-gnueabihf/14/../../../../arm-linux-gnueabihf/lib/libc.a(printf_buffer_write.o)
                0x00075848                __printf_buffer_write
 *fill*         0x000758ac        0x4 
 .text          0x000758b0     0x170c /usr/lib/gcc-cross/arm-linux-gnueabihf/14/../../../../arm-linux-gnueabihf/lib/libc.a(printf_fp.o)
                0x00076c6c                __printf_buffer_flush_fp
                0x00076cec                __printf_fp_l_buffer
                0x00076dfc                __printf_buffer_flush_fp_to_wide
                0x00076e6c                __wprintf_fp_l_buffer
                0x00076f24                ___printf_fp
                0x00076f24                __printf_fp
 *fill*         0x00076fbc        0x4 
 .text          0x00076fc0      0x7b8 /usr/lib/gcc-cross/arm-linux-gnueabihf/14/../../../../arm-linux-gnueabihf/lib/libc.a(printf_fphex.o)
                0x0007769c                __printf_fphex_l_buffer
                0x000776a4                __printf_buffer_flush_fphex_to_wide
                0x000776f0                __wprintf_fphex_l_buffer
 .text          0x00077778       0xd0 /usr/lib/gcc-cross/arm-linux-gnueabihf/14/../../../../arm-linux-gnueabihf/lib/libc.a(printf_function_invoke.o)
                0x00077778                __printf_function_invoke
 .text          0x00077848      0x2a0 /usr/lib/gcc-cross/arm-linux-gnueabihf/14/../../../../arm-linux-gnueabihf/lib/libc.a(reg-modifier.o)
                0x00077848                __register_printf_modifier
                0x00077848                register_printf_modifier
                0x00077938                __handle_registered_modifier_mb
                0x000779f8                __handle_registered_modifier_wc
                0x00077aac                __libc_printf_freemem
 .text          0x00077ae8       0xac /usr/lib/gcc-cross/arm-linux-gnueabihf/14/../../../../arm-linux-gnueabihf/lib/libc.a(reg-printf.o)
                0x00077ae8                __register_printf_specifier
                0x00077ae8                register_printf_specifier
                0x00077b90                __register_printf_function
                0x00077b90                register_printf_function
 .text          0x00077b94       0xb4 /usr/lib/gcc-cross/arm-linux-gnueabihf/14/../../../../arm-linux-gnueabihf/lib/libc.a(reg-type.o)
                0x00077b94                __register_printf_type
                0x00077b94                register_printf_type
 .text          0x00077c48       0x58 /usr/lib/gcc-cross/arm-linux-gnueabihf/14/../../../../arm-linux-gnueabihf/lib/libc.a(translated_number_width.o)
                0x00077c48                __translated_number_width
 .text          0x00077ca0       0x40 /usr/lib/gcc-cross/arm-linux-gnueabihf/14/../../../../arm-linux-gnueabihf/lib/libc.a(wprintf_buffer_putc_1.o)
                0x00077ca0                __wprintf_buffer_putc_1
 .text          0x00077ce0       0x94 /usr/lib/gcc-cross/arm-linux-gnueabihf/14/../../../../arm-linux-gnueabihf/lib/libc.a(wprintf_buffer_to_file.o)
                0x00077ce0                __wprintf_buffer_flush_to_file
                0x00077d30                __wprintf_buffer_to_file_init
                0x00077d58                __wprintf_buffer_to_file_done
 .text          0x00077d74       0x24 /usr/lib/gcc-cross/arm-linux-gnueabihf/14/../../../../arm-linux-gnueabihf/lib/libc.a(errlist.o)
                0x00077d74                __get_errlist
 .text          0x00077d98        0x0 /usr/lib/gcc-cross/arm-linux-gnueabihf/14/../../../../arm-linux-gnueabihf/lib/libc.a(errlist-data.o)
 .text          0x00077d98      0x100 /usr/lib/gcc-cross/arm-linux-gnueabihf/14/../../../../arm-linux-gnueabihf/lib/libc.a(filedoalloc.o)
                0x00077d98                _IO_file_doallocate
 .text          0x00077e98       0xec /usr/lib/gcc-cross/arm-linux-gnueabihf/14/../../../../arm-linux-gnueabihf/lib/libc.a(iofopen.o)
                0x00077e98                __fopen_maybe_mmap
                0x00077edc                __fopen_internal
                0x00077f80                _IO_new_fopen
                0x00077f80                fopen
                0x00077f80                _IO_fopen
                0x00077f80                __new_fopen
 .text          0x00077f84      0x144 /usr/lib/gcc-cross/arm-linux-gnueabihf/14/../../../../arm-linux-gnueabihf/lib/libc.a(iofputs.o)
                0x00077f84                _IO_fputs
                0x00077f84                fputs
 .text          0x000780c8      0x274 /usr/lib/gcc-cross/arm-linux-gnueabihf/14/../../../../arm-linux-gnueabihf/lib/libc.a(iogetdelim.o)
                0x000780c8                __getdelim
                0x000780c8                getdelim
 .text          0x0007833c     0x11a0 /usr/lib/gcc-cross/arm-linux-gnueabihf/14/../../../../arm-linux-gnueabihf/lib/libc.a(wfileops.o)
                0x00078404                _IO_wdo_write
                0x00078518                _IO_wfile_underflow
                0x00078a48                _IO_wfile_underflow_mmap
                0x00078b5c                _IO_wfile_underflow_maybe_mmap
                0x00078b7c                _IO_wfile_overflow
                0x00078d08                _IO_wfile_sync
                0x00078dfc                _IO_wfile_seekoff
                0x000793ec                _IO_wfile_xsputn
 .text          0x000794dc       0x68 /usr/lib/gcc-cross/arm-linux-gnueabihf/14/../../../../arm-linux-gnueabihf/lib/libc.a(iofgets_u.o)
                0x000794dc                __fgets_unlocked
                0x000794dc                fgets_unlocked
 .text          0x00079544       0x24 /usr/lib/gcc-cross/arm-linux-gnueabihf/14/../../../../arm-linux-gnueabihf/lib/libc.a(alloca_cutoff.o)
                0x00079544                __libc_alloca_cutoff
 .text          0x00079568       0xf8 /usr/lib/gcc-cross/arm-linux-gnueabihf/14/../../../../arm-linux-gnueabihf/lib/libc.a(cancellation.o)
                0x00079568                __syscall_do_cancel
                0x000795b8                __internal_syscall_cancel
                0x00079628                __syscall_cancel
 .text          0x00079660      0x258 /usr/lib/gcc-cross/arm-linux-gnueabihf/14/../../../../arm-linux-gnueabihf/lib/libc.a(futex-internal.o)
                0x000797a0                __futex_abstimed_wait64
                0x000797b4                __futex_abstimed_wait_cancelable64
                0x000797c8                __futex_lock_pi64
 .text          0x000798b8       0xa8 /usr/lib/gcc-cross/arm-linux-gnueabihf/14/../../../../arm-linux-gnueabihf/lib/libc.a(pthread_mutex_conf.o)
                0x000798f0                __pthread_tunables_init
 .text          0x00079960      0x780 /usr/lib/gcc-cross/arm-linux-gnueabihf/14/../../../../arm-linux-gnueabihf/lib/libc.a(pthread_mutex_lock.o)
                0x00079ea8                __pthread_mutex_lock
                0x00079ea8                ___pthread_mutex_lock
                0x00079ea8                pthread_mutex_lock
 .text          0x0007a0e0      0x49c /usr/lib/gcc-cross/arm-linux-gnueabihf/14/../../../../arm-linux-gnueabihf/lib/libc.a(pthread_mutex_unlock.o)
                0x0007a470                __pthread_mutex_unlock_usercnt
                0x0007a578                __pthread_mutex_unlock
                0x0007a578                pthread_mutex_unlock
                0x0007a578                ___pthread_mutex_unlock
 .text          0x0007a57c      0x1b0 /usr/lib/gcc-cross/arm-linux-gnueabihf/14/../../../../arm-linux-gnueabihf/lib/libc.a(pthread_once.o)
                0x0007a714                __pthread_once
                0x0007a714                pthread_once
                0x0007a714                ___pthread_once
 .text          0x0007a72c        0xc /usr/lib/gcc-cross/arm-linux-gnueabihf/14/../../../../arm-linux-gnueabihf/lib/libc.a(pthread_self.o)
                0x0007a72c                pthread_self
                0x0007a72c                __pthread_self
 .text          0x0007a738       0x84 /usr/lib/gcc-cross/arm-linux-gnueabihf/14/../../../../arm-linux-gnueabihf/lib/libc.a(pthread_sigmask.o)
                0x0007a738                __pthread_sigmask
                0x0007a738                pthread_sigmask
 *fill*         0x0007a7bc        0x4 
 .text          0x0007a7c0       0x28 /usr/lib/gcc-cross/arm-linux-gnueabihf/14/../../../../arm-linux-gnueabihf/lib/libc.a(syscall_cancel.o)
                0x0007a7c0                __syscall_cancel_arch
                0x0007a7c4                __syscall_cancel_arch_start
                0x0007a7d8                __syscall_cancel_arch_end
 .text          0x0007a7e8      0x3cc /usr/lib/gcc-cross/arm-linux-gnueabihf/14/../../../../arm-linux-gnueabihf/lib/libc.a(tpp.o)
                0x0007a7e8                __init_sched_fifo_prio
                0x0007a804                __pthread_tpp_change_priority
                0x0007aadc                __pthread_current_priority
 .text          0x0007abb4        0x0 /usr/lib/gcc-cross/arm-linux-gnueabihf/14/../../../../arm-linux-gnueabihf/lib/libc.a(vars.o)
 .text          0x0007abb4       0x80 /usr/lib/gcc-cross/arm-linux-gnueabihf/14/../../../../arm-linux-gnueabihf/lib/libc.a(argz-addsep.o)
                0x0007abb4                argz_add_sep
                0x0007abb4                __argz_add_sep
 .text          0x0007ac34       0x80 /usr/lib/gcc-cross/arm-linux-gnueabihf/14/../../../../arm-linux-gnueabihf/lib/libc.a(argz-ctsep.o)
                0x0007ac34                __argz_create_sep
                0x0007ac34                argz_create_sep
 .text          0x0007acb4       0x18 /usr/lib/gcc-cross/arm-linux-gnueabihf/14/../../../../arm-linux-gnueabihf/lib/libc.a(memchr.o)
                0x0007acb4                memchr
 .text          0x0007accc       0x30 /usr/lib/gcc-cross/arm-linux-gnueabihf/14/../../../../arm-linux-gnueabihf/lib/libc.a(strcasecmp_l.o)
                0x0007accc                strcasecmp_l
                0x0007accc                __strcasecmp_l
 *fill*         0x0007acfc        0x4 
 .text          0x0007ad00      0x21c /usr/lib/gcc-cross/arm-linux-gnueabihf/14/../../../../arm-linux-gnueabihf/lib/libc.a(strcpy.o)
                0x0007ad00                stpcpy
                0x0007ad00                __stpcpy
                0x0007ad10                strcpy
 .text          0x0007af1c       0xdc /usr/lib/gcc-cross/arm-linux-gnueabihf/14/../../../../arm-linux-gnueabihf/lib/libc.a(strcspn.o)
                0x0007af1c                strcspn
 .text          0x0007aff8       0x44 /usr/lib/gcc-cross/arm-linux-gnueabihf/14/../../../../arm-linux-gnueabihf/lib/libc.a(strtok_r.o)
                0x0007aff8                strtok_r
                0x0007aff8                __strtok_r
 *fill*         0x0007b03c        0x4 
 .text          0x0007b040       0xe8 /usr/lib/gcc-cross/arm-linux-gnueabihf/14/../../../../arm-linux-gnueabihf/lib/libc.a(memchr_neon.o)
                0x0007b040                __memchr_neon
 *fill*         0x0007b128        0x8 
 .text          0x0007b130       0x9c /usr/lib/gcc-cross/arm-linux-gnueabihf/14/../../../../arm-linux-gnueabihf/lib/libc.a(memchr_noneon.o)
                0x0007b130                __memchr_noneon
 .text          0x0007b1cc       0x30 /usr/lib/gcc-cross/arm-linux-gnueabihf/14/../../../../arm-linux-gnueabihf/lib/libc.a(wcslen.o)
                0x0007b1cc                wcslen
                0x0007b1cc                __wcslen
 .text          0x0007b1fc       0x1c /usr/lib/gcc-cross/arm-linux-gnueabihf/14/../../../../arm-linux-gnueabihf/lib/libc.a(wcsnlen.o)
                0x0007b1fc                wcsnlen
                0x0007b1fc                __wcsnlen
 .text          0x0007b218       0x64 /usr/lib/gcc-cross/arm-linux-gnueabihf/14/../../../../arm-linux-gnueabihf/lib/libc.a(wmemchr.o)
                0x0007b218                wmemchr
                0x0007b218                __wmemchr
 .text          0x0007b27c       0x2c /usr/lib/gcc-cross/arm-linux-gnueabihf/14/../../../../arm-linux-gnueabihf/lib/libc.a(closedir.o)
                0x0007b27c                __closedir
                0x0007b27c                closedir
 .text          0x0007b2a8       0x38 /usr/lib/gcc-cross/arm-linux-gnueabihf/14/../../../../arm-linux-gnueabihf/lib/libc.a(getdents64.o)
                0x0007b2a8                getdents64
                0x0007b2a8                __getdents64
 .text          0x0007b2e0      0x178 /usr/lib/gcc-cross/arm-linux-gnueabihf/14/../../../../arm-linux-gnueabihf/lib/libc.a(opendir.o)
                0x0007b384                __opendirat
                0x0007b3b4                __opendir
                0x0007b3b4                opendir
                0x0007b3e4                __alloc_dir
 .text          0x0007b458       0xb8 /usr/lib/gcc-cross/arm-linux-gnueabihf/14/../../../../arm-linux-gnueabihf/lib/libc.a(readdir64.o)
                0x0007b458                __readdir64
                0x0007b458                readdir64
 .text          0x0007b510       0x18 /usr/lib/gcc-cross/arm-linux-gnueabihf/14/../../../../arm-linux-gnueabihf/lib/libc.a(execve.o)
                0x0007b510                execve
                0x0007b510                __execve
 .text          0x0007b528      0x2ac /usr/lib/gcc-cross/arm-linux-gnueabihf/14/../../../../arm-linux-gnueabihf/lib/libc.a(execvpe.o)
                0x0007b7b4                execvpe
                0x0007b7b4                __execvpe
                0x0007b7c4                __execvpex
 *fill*         0x0007b7d4        0xc 
 .text          0x0007b7e0        0xc /usr/lib/gcc-cross/arm-linux-gnueabihf/14/../../../../arm-linux-gnueabihf/lib/libc.a(getgid.o)
                0x0007b7e0                getgid
                0x0007b7e0                __getgid
 *fill*         0x0007b7ec        0x4 
 .text          0x0007b7f0       0x18 /usr/lib/gcc-cross/arm-linux-gnueabihf/14/../../../../arm-linux-gnueabihf/lib/libc.a(getpgid.o)
                0x0007b7f0                __getpgid
                0x0007b7f0                getpgid
 *fill*         0x0007b808        0x8 
 .text          0x0007b810        0xc /usr/lib/gcc-cross/arm-linux-gnueabihf/14/../../../../arm-linux-gnueabihf/lib/libc.a(getuid.o)
                0x0007b810                getuid
                0x0007b810                __getuid
 .text          0x0007b81c       0xb8 /usr/lib/gcc-cross/arm-linux-gnueabihf/14/../../../../arm-linux-gnueabihf/lib/libc.a(nanosleep.o)
                0x0007b81c                __nanosleep64
                0x0007b844                nanosleep
                0x0007b844                __nanosleep
 .text          0x0007b8d4       0x34 /usr/lib/gcc-cross/arm-linux-gnueabihf/14/../../../../arm-linux-gnueabihf/lib/libc.a(sched_cpucount.o)
                0x0007b8d4                __sched_cpucount
 *fill*         0x0007b908        0x8 
 .text          0x0007b910       0x18 /usr/lib/gcc-cross/arm-linux-gnueabihf/14/../../../../arm-linux-gnueabihf/lib/libc.a(sched_getp.o)
                0x0007b910                __sched_getparam
                0x0007b910                sched_getparam
 *fill*         0x0007b928        0x8 
 .text          0x0007b930       0x18 /usr/lib/gcc-cross/arm-linux-gnueabihf/14/../../../../arm-linux-gnueabihf/lib/libc.a(sched_gets.o)
                0x0007b930                sched_getscheduler
                0x0007b930                __sched_getscheduler
 *fill*         0x0007b948        0x8 
 .text          0x0007b950       0x18 /usr/lib/gcc-cross/arm-linux-gnueabihf/14/../../../../arm-linux-gnueabihf/lib/libc.a(sched_primax.o)
                0x0007b950                __sched_get_priority_max
                0x0007b950                sched_get_priority_max
 *fill*         0x0007b968        0x8 
 .text          0x0007b970       0x18 /usr/lib/gcc-cross/arm-linux-gnueabihf/14/../../../../arm-linux-gnueabihf/lib/libc.a(sched_primin.o)
                0x0007b970                sched_get_priority_min
                0x0007b970                __sched_get_priority_min
 *fill*         0x0007b988        0x8 
 .text          0x0007b990       0x18 /usr/lib/gcc-cross/arm-linux-gnueabihf/14/../../../../arm-linux-gnueabihf/lib/libc.a(sched_setp.o)
                0x0007b990                __sched_setparam
                0x0007b990                sched_setparam
 *fill*         0x0007b9a8        0x8 
 .text          0x0007b9b0       0x18 /usr/lib/gcc-cross/arm-linux-gnueabihf/14/../../../../arm-linux-gnueabihf/lib/libc.a(sched_sets.o)
                0x0007b9b0                sched_setscheduler
                0x0007b9b0                __sched_setscheduler
 *fill*         0x0007b9c8        0x8 
 .text          0x0007b9d0       0x18 /usr/lib/gcc-cross/arm-linux-gnueabihf/14/../../../../arm-linux-gnueabihf/lib/libc.a(setpgid.o)
                0x0007b9d0                setpgid
                0x0007b9d0                __setpgid
 *fill*         0x0007b9e8        0x8 
 .text          0x0007b9f0       0x18 /usr/lib/gcc-cross/arm-linux-gnueabihf/14/../../../../arm-linux-gnueabihf/lib/libc.a(setsid.o)
                0x0007b9f0                __setsid
                0x0007b9f0                setsid
 .text          0x0007ba08      0x188 /usr/lib/gcc-cross/arm-linux-gnueabihf/14/../../../../arm-linux-gnueabihf/lib/libc.a(wait4.o)
                0x0007ba08                __wait4_time64
                0x0007bacc                __wait4
                0x0007bacc                wait4
 .text          0x0007bb90      0x5f4 /usr/lib/gcc-cross/arm-linux-gnueabihf/14/../../../../arm-linux-gnueabihf/lib/libc.a(getcwd.o)
                0x0007bb90                __getcwd
                0x0007bb90                getcwd
 .text          0x0007c184       0x4c /usr/lib/gcc-cross/arm-linux-gnueabihf/14/../../../../arm-linux-gnueabihf/lib/libc.a(isatty.o)
                0x0007c184                isatty
                0x0007c184                __isatty
 .text          0x0007c1d0       0x94 /usr/lib/gcc-cross/arm-linux-gnueabihf/14/../../../../arm-linux-gnueabihf/lib/libc.a(lseek.o)
                0x0007c1d0                lseek
                0x0007c1d0                __lseek
                0x0007c1d0                __libc_lseek
 .text          0x0007c264       0x70 /usr/lib/gcc-cross/arm-linux-gnueabihf/14/../../../../arm-linux-gnueabihf/lib/libc.a(lstat64.o)
                0x0007c264                __lstat64_time64
                0x0007c274                __lstat64
                0x0007c274                lstat64
 .text          0x0007c2d4       0x74 /usr/lib/gcc-cross/arm-linux-gnueabihf/14/../../../../arm-linux-gnueabihf/lib/libc.a(openat64.o)
                0x0007c2d4                __openat64
                0x0007c2d4                openat64
                0x0007c2d4                __libc_openat64
 .text          0x0007c348       0x90 /usr/lib/gcc-cross/arm-linux-gnueabihf/14/../../../../arm-linux-gnueabihf/lib/libc.a(open64_nocancel.o)
                0x0007c348                __open64_nocancel
 .text          0x0007c3d8       0x94 /usr/lib/gcc-cross/arm-linux-gnueabihf/14/../../../../arm-linux-gnueabihf/lib/libc.a(openat_nocancel.o)
                0x0007c3d8                __openat_nocancel
 .text          0x0007c46c       0x30 /usr/lib/gcc-cross/arm-linux-gnueabihf/14/../../../../arm-linux-gnueabihf/lib/libc.a(pread64_nocancel.o)
                0x0007c46c                __pread64_nocancel
 .text          0x0007c49c       0x30 /usr/lib/gcc-cross/arm-linux-gnueabihf/14/../../../../arm-linux-gnueabihf/lib/libc.a(getrlimit.o)
                0x0007c49c                getrlimit
                0x0007c49c                __new_getrlimit
                0x0007c49c                __getrlimit
 .text          0x0007c4cc      0x780 /usr/lib/gcc-cross/arm-linux-gnueabihf/14/../../../../arm-linux-gnueabihf/lib/libc.a(tsearch.o)
                0x0007c6f4                tsearch
                0x0007c6f4                __tsearch
                0x0007c7d8                tfind
                0x0007c7d8                __tfind
                0x0007c810                tdelete
                0x0007c810                __tdelete
                0x0007cc28                __twalk
                0x0007cc28                twalk
                0x0007cc38                twalk_r
                0x0007cc38                __twalk_r
                0x0007cc44                __tdestroy
                0x0007cc44                tdestroy
 .text          0x0007cc4c       0x28 /usr/lib/gcc-cross/arm-linux-gnueabihf/14/../../../../arm-linux-gnueabihf/lib/libc.a(init-misc.o)
                0x0007cc4c                __init_misc
 *fill*         0x0007cc74        0xc 
 .text          0x0007cc80       0x48 /usr/lib/gcc-cross/arm-linux-gnueabihf/14/../../../../arm-linux-gnueabihf/lib/libc.a(clone.o)
                0x0007cc80                __clone
                0x0007cc80                clone
 .text          0x0007ccc8       0x60 /usr/lib/gcc-cross/arm-linux-gnueabihf/14/../../../../arm-linux-gnueabihf/lib/libc.a(asprintf_chk.o)
                0x0007ccc8                ___asprintf_chk
                0x0007ccc8                __asprintf_chk
 .text          0x0007cd28       0x10 /usr/lib/gcc-cross/arm-linux-gnueabihf/14/../../../../arm-linux-gnueabihf/lib/libc.a(memmove_chk.o)
                0x0007cd28                __memmove_chk
 .text          0x0007cd38      0x1a4 /usr/lib/gcc-cross/arm-linux-gnueabihf/14/../../../../arm-linux-gnueabihf/lib/libc.a(dl-catch.o)
                0x0007cdd0                _dl_signal_exception
                0x0007cdfc                _dl_signal_error
                0x0007ce40                _dl_catch_exception
                0x0007ceb0                _dl_catch_error
 .text          0x0007cedc      0x298 /usr/lib/gcc-cross/arm-linux-gnueabihf/14/../../../../arm-linux-gnueabihf/lib/libc.a(dl-exception.o)
                0x0007ceec                _dl_error_free
                0x0007cf00                _dl_exception_create
                0x0007cf68                _dl_exception_create_format
                0x0007d160                _dl_exception_free
 .text          0x0007d174       0x5c /usr/lib/gcc-cross/arm-linux-gnueabihf/14/../../../../arm-linux-gnueabihf/lib/libc.a(dl-execstack-tunable.o)
                0x0007d174                _dl_handle_execstack_tunable
 .text          0x0007d1d0     0x2798 /usr/lib/gcc-cross/arm-linux-gnueabihf/14/../../../../arm-linux-gnueabihf/lib/libc.a(dl-load.o)
                0x0007dab4                _dl_dst_count
                0x0007db20                _dl_dst_substitute
                0x0007dfc8                _dl_init_paths
                0x0007e240                _dl_process_pt_gnu_property
                0x0007effc                _dl_map_object
                0x0007f844                _dl_rtld_di_serinfo
 .text          0x0007f968      0xf2c /usr/lib/gcc-cross/arm-linux-gnueabihf/14/../../../../arm-linux-gnueabihf/lib/libc.a(dl-lookup.o)
                0x00080104                _dl_lookup_symbol_x
 .text          0x00080894      0x20c /usr/lib/gcc-cross/arm-linux-gnueabihf/14/../../../../arm-linux-gnueabihf/lib/libc.a(dl-misc.o)
                0x00080894                _dl_sysdep_read_whole_file
                0x000808e8                _dl_name_match_p
                0x00080914                _dl_higher_prime_number
                0x0008094c                _dl_strtoul
 .text          0x00080aa0      0x230 /usr/lib/gcc-cross/arm-linux-gnueabihf/14/../../../../arm-linux-gnueabihf/lib/libc.a(dl-object.o)
                0x00080aa0                _dl_add_to_namespace_list
                0x00080b14                _dl_new_object
 .text          0x00080cd0       0xfc /usr/lib/gcc-cross/arm-linux-gnueabihf/14/../../../../arm-linux-gnueabihf/lib/libc.a(dl-origin.o)
                0x00080cd0                _dl_get_origin
 .text          0x00080dcc      0x44c /usr/lib/gcc-cross/arm-linux-gnueabihf/14/../../../../arm-linux-gnueabihf/lib/libc.a(dl-printf.o)
                0x00081148                _dl_debug_printf
                0x00081170                _dl_debug_printf_c
                0x0008119c                _dl_dprintf
                0x000811bc                _dl_printf
                0x000811dc                _dl_error_printf
                0x000811fc                _dl_fatal_printf
 .text          0x00081218     0x1200 /usr/lib/gcc-cross/arm-linux-gnueabihf/14/../../../../arm-linux-gnueabihf/lib/libc.a(dl-reloc.o)
                0x00081328                _dl_try_allocate_static_tls
                0x000813d8                _dl_allocate_static_tls
                0x00081468                _dl_protect_relro
                0x000814cc                _dl_reloc_bad_type
                0x0008150c                _dl_relocate_object_no_relro
                0x000823f8                _dl_relocate_object
 .text          0x00082418       0x7c /usr/lib/gcc-cross/arm-linux-gnueabihf/14/../../../../arm-linux-gnueabihf/lib/libc.a(dl-scope.o)
                0x00082418                _dl_scope_free
 .text          0x00082494       0x90 /usr/lib/gcc-cross/arm-linux-gnueabihf/14/../../../../arm-linux-gnueabihf/lib/libc.a(dl-setup_hash.o)
                0x00082494                _dl_setup_hash
 .text          0x00082524      0x154 /usr/lib/gcc-cross/arm-linux-gnueabihf/14/../../../../arm-linux-gnueabihf/lib/libc.a(dl-thread_gscope_wait.o)
                0x00082524                __thread_gscope_wait
 .text          0x00082678       0x24 /usr/lib/gcc-cross/arm-linux-gnueabihf/14/../../../../arm-linux-gnueabihf/lib/libc.a(dl-trampoline.o)
                0x00082678                _dl_runtime_resolve
 .text          0x0008269c      0x3ec /usr/lib/gcc-cross/arm-linux-gnueabihf/14/../../../../arm-linux-gnueabihf/lib/libc.a(dl-cache.o)
                0x0008269c                _dl_cache_libcmp
                0x0008282c                _dl_load_cache_lookup
                0x00082a68                _dl_unload_cache
 .text          0x00082a88       0x10 /usr/lib/gcc-cross/arm-linux-gnueabihf/14/../../../../arm-linux-gnueabihf/lib/libc.a(dl-tlsdesc.o)
                0x00082a88                _dl_tlsdesc_return
                0x00082a8c                _dl_tlsdesc_undefweak
 .text          0x00082a98      0x554 /usr/lib/gcc-cross/arm-linux-gnueabihf/14/../../../../arm-linux-gnueabihf/lib/libc.a(dl-libc.o)
                0x00082c6c                __libc_dlopen_mode
                0x00082ce8                __libc_dlsym_private
                0x00082d5c                __libc_dlsym
                0x00082dd0                __libc_dlvsym
                0x00082e94                __libc_dlclose
                0x00082f14                __dl_libc_freemem
 .text          0x00082fec      0x27c /usr/lib/gcc-cross/arm-linux-gnueabihf/14/../../../../arm-linux-gnueabihf/lib/libc.a(gconv_open.o)
                0x00082fec                __gconv_open
 .text          0x00083268      0x134 /usr/lib/gcc-cross/arm-linux-gnueabihf/14/../../../../arm-linux-gnueabihf/lib/libc.a(gconv.o)
                0x00083268                __gconv
 .text          0x0008339c       0x44 /usr/lib/gcc-cross/arm-linux-gnueabihf/14/../../../../arm-linux-gnueabihf/lib/libc.a(gconv_close.o)
                0x0008339c                __gconv_close
 .text          0x000833e0      0x324 /usr/lib/gcc-cross/arm-linux-gnueabihf/14/../../../../arm-linux-gnueabihf/lib/libc.a(gconv_charset.o)
                0x000834ec                __gconv_create_spec
                0x000836f0                __gconv_destroy_spec
 .text          0x00083704      0x5a4 /usr/lib/gcc-cross/arm-linux-gnueabihf/14/../../../../arm-linux-gnueabihf/lib/libc.a(findlocale.o)
                0x00083704                _nl_find_locale
                0x00083c74                _nl_remove_locale
 .text          0x00083ca8      0x764 /usr/lib/gcc-cross/arm-linux-gnueabihf/14/../../../../arm-linux-gnueabihf/lib/libc.a(loadarchive.o)
                0x00083cb0                _nl_load_locale_from_archive
                0x0008436c                _nl_archive_subfreeres
 .text          0x0008440c      0x6d4 /usr/lib/gcc-cross/arm-linux-gnueabihf/14/../../../../arm-linux-gnueabihf/lib/libc.a(loadlocale.o)
                0x0008440c                _nl_intern_locale_data
                0x000848a4                _nl_load_locale
                0x00084a94                _nl_unload_locale
 .text          0x00084ae0        0x0 /usr/lib/gcc-cross/arm-linux-gnueabihf/14/../../../../arm-linux-gnueabihf/lib/libc.a(C-address.o)
 .text          0x00084ae0        0x0 /usr/lib/gcc-cross/arm-linux-gnueabihf/14/../../../../arm-linux-gnueabihf/lib/libc.a(C-collate.o)
 .text          0x00084ae0        0x0 /usr/lib/gcc-cross/arm-linux-gnueabihf/14/../../../../arm-linux-gnueabihf/lib/libc.a(C-ctype.o)
 .text          0x00084ae0        0x0 /usr/lib/gcc-cross/arm-linux-gnueabihf/14/../../../../arm-linux-gnueabihf/lib/libc.a(C-identification.o)
 .text          0x00084ae0        0x0 /usr/lib/gcc-cross/arm-linux-gnueabihf/14/../../../../arm-linux-gnueabihf/lib/libc.a(C-measurement.o)
 .text          0x00084ae0        0x0 /usr/lib/gcc-cross/arm-linux-gnueabihf/14/../../../../arm-linux-gnueabihf/lib/libc.a(C-messages.o)
 .text          0x00084ae0        0x0 /usr/lib/gcc-cross/arm-linux-gnueabihf/14/../../../../arm-linux-gnueabihf/lib/libc.a(C-monetary.o)
 .text          0x00084ae0        0x0 /usr/lib/gcc-cross/arm-linux-gnueabihf/14/../../../../arm-linux-gnueabihf/lib/libc.a(C-name.o)
 .text          0x00084ae0        0x0 /usr/lib/gcc-cross/arm-linux-gnueabihf/14/../../../../arm-linux-gnueabihf/lib/libc.a(C-numeric.o)
 .text          0x00084ae0        0x0 /usr/lib/gcc-cross/arm-linux-gnueabihf/14/../../../../arm-linux-gnueabihf/lib/libc.a(C-paper.o)
 .text          0x00084ae0        0x0 /usr/lib/gcc-cross/arm-linux-gnueabihf/14/../../../../arm-linux-gnueabihf/lib/libc.a(C-telephone.o)
 .text          0x00084ae0        0x0 /usr/lib/gcc-cross/arm-linux-gnueabihf/14/../../../../arm-linux-gnueabihf/lib/libc.a(C-time.o)
 .text          0x00084ae0       0x18 /usr/lib/gcc-cross/arm-linux-gnueabihf/14/../../../../arm-linux-gnueabihf/lib/libc.a(localename.o)
                0x00084ae0                __current_locale_name
 *fill*         0x00084af8        0x8 
 .text          0x00084b00       0x68 /usr/lib/gcc-cross/arm-linux-gnueabihf/14/../../../../arm-linux-gnueabihf/lib/libc.a(__longjmp.o)
                0x00084b00                __longjmp
 .text          0x00084b68      0x538 /usr/lib/gcc-cross/arm-linux-gnueabihf/14/../../../../arm-linux-gnueabihf/lib/libc.a(divrem.o)
                0x00084b68                __mpn_divrem
 .text          0x000850a0       0xa8 /usr/lib/gcc-cross/arm-linux-gnueabihf/14/../../../../arm-linux-gnueabihf/lib/libc.a(dbl2mpn.o)
                0x000850a0                __mpn_extract_double
 .text          0x00085148      0x1a0 /usr/lib/gcc-cross/arm-linux-gnueabihf/14/../../../../arm-linux-gnueabihf/lib/libc.a(printf_buffer_as_file.o)
                0x000851e8                __printf_buffer_as_file_overflow
                0x00085258                __printf_buffer_as_file_xsputn
                0x0008528c                __printf_buffer_as_file_init
                0x000852d0                __printf_buffer_as_file_terminate
 .text          0x000852e8       0xb4 /usr/lib/gcc-cross/arm-linux-gnueabihf/14/../../../../arm-linux-gnueabihf/lib/libc.a(printf_buffer_flush.o)
                0x000852e8                __printf_buffer_flush
 .text          0x0008539c       0x58 /usr/lib/gcc-cross/arm-linux-gnueabihf/14/../../../../arm-linux-gnueabihf/lib/libc.a(wprintf_buffer_done.o)
                0x0008539c                __wprintf_buffer_done
 .text          0x000853f4       0x6c /usr/lib/gcc-cross/arm-linux-gnueabihf/14/../../../../arm-linux-gnueabihf/lib/libc.a(wprintf_buffer_flush.o)
                0x000853f4                __wprintf_buffer_flush
 .text          0x00085460      0x100 /usr/lib/gcc-cross/arm-linux-gnueabihf/14/../../../../arm-linux-gnueabihf/lib/libc.a(iogetline.o)
                0x00085460                _IO_getline_info
                0x0008554c                _IO_getline
 .text          0x00085560      0x154 /usr/lib/gcc-cross/arm-linux-gnueabihf/14/../../../../arm-linux-gnueabihf/lib/libc.a(vasprintf.o)
                0x00085560                __printf_buffer_flush_asprintf
                0x000855e4                __vasprintf_internal
                0x000856ac                __vasprintf
                0x000856ac                vasprintf
 .text          0x000856b4       0x34 /usr/lib/gcc-cross/arm-linux-gnueabihf/14/../../../../arm-linux-gnueabihf/lib/libc.a(cleanup_compat.o)
                0x000856b4                __pthread_cleanup_push
                0x000856b4                _pthread_cleanup_push
                0x000856d0                __pthread_cleanup_pop
                0x000856d0                _pthread_cleanup_pop
 .text          0x000856e8      0x21c /usr/lib/gcc-cross/arm-linux-gnueabihf/14/../../../../arm-linux-gnueabihf/lib/libc.a(nptl-stack.o)
                0x000856e8                __nptl_stack_list_del
                0x00085718                __nptl_stack_list_add
                0x00085750                __nptl_free_stacks
                0x000857e8                __nptl_deallocate_stack
                0x000858c8                __pthread_get_minstack
 .text          0x00085904      0x464 /usr/lib/gcc-cross/arm-linux-gnueabihf/14/../../../../arm-linux-gnueabihf/lib/libc.a(memmem.o)
                0x00085bc4                memmem
                0x00085bc4                __memmem
 .text          0x00085d68       0x24 /usr/lib/gcc-cross/arm-linux-gnueabihf/14/../../../../arm-linux-gnueabihf/lib/libc.a(strndup.o)
                0x00085d68                strndup
                0x00085d68                __strndup
 .text          0x00085d8c       0x28 /usr/lib/gcc-cross/arm-linux-gnueabihf/14/../../../../arm-linux-gnueabihf/lib/libc.a(strsep.o)
                0x00085d8c                __strsep
                0x00085d8c                strsep
                0x00085d8c                __strsep_g
 .text          0x00085db4       0xe8 /usr/lib/gcc-cross/arm-linux-gnueabihf/14/../../../../arm-linux-gnueabihf/lib/libc.a(strspn.o)
                0x00085db4                strspn
 .text          0x00085e9c      0x128 /usr/lib/gcc-cross/arm-linux-gnueabihf/14/../../../../arm-linux-gnueabihf/lib/libc.a(clock_nanosleep.o)
                0x00085e9c                __clock_nanosleep_time64
                0x00085f54                __clock_nanosleep
                0x00085f54                clock_nanosleep
 .text          0x00085fc4       0x2c /usr/lib/gcc-cross/arm-linux-gnueabihf/14/../../../../arm-linux-gnueabihf/lib/libc.a(lc-time-cleanup.o)
                0x00085fc4                _nl_cleanup_time
 .text          0x00085ff0       0xb8 /usr/lib/gcc-cross/arm-linux-gnueabihf/14/../../../../arm-linux-gnueabihf/lib/libc.a(fdopendir.o)
                0x00085ff0                fdopendir
                0x00085ff0                __fdopendir
 .text          0x000860a8       0x5c /usr/lib/gcc-cross/arm-linux-gnueabihf/14/../../../../arm-linux-gnueabihf/lib/libc.a(rewinddir.o)
                0x000860a8                rewinddir
                0x000860a8                __rewinddir
 .text          0x00086104      0x784 /usr/lib/gcc-cross/arm-linux-gnueabihf/14/../../../../arm-linux-gnueabihf/lib/libc.a(sysconf.o)
                0x00086104                sysconf
                0x00086104                __sysconf
 .text          0x00086888       0x6c /usr/lib/gcc-cross/arm-linux-gnueabihf/14/../../../../arm-linux-gnueabihf/lib/libc.a(stat64.o)
                0x00086888                __stat64_time64
                0x00086898                stat64
                0x00086898                __stat64
 .text          0x000868f4       0x1c /usr/lib/gcc-cross/arm-linux-gnueabihf/14/../../../../arm-linux-gnueabihf/lib/libc.a(getclktck.o)
                0x000868f4                __getclktck
 .text          0x00086910       0x54 /usr/lib/gcc-cross/arm-linux-gnueabihf/14/../../../../arm-linux-gnueabihf/lib/libc.a(getdtsz.o)
                0x00086910                __getdtablesize
                0x00086910                getdtablesize
 .text          0x00086964      0xaf0 /usr/lib/gcc-cross/arm-linux-gnueabihf/14/../../../../arm-linux-gnueabihf/lib/libc.a(dl-close.o)
                0x00086a2c                _dl_close_worker
                0x00087404                _dl_close
 .text          0x00087454       0x48 /usr/lib/gcc-cross/arm-linux-gnueabihf/14/../../../../arm-linux-gnueabihf/lib/libc.a(dl-execstack.o)
                0x00087454                _dl_make_stack_executable
 .text          0x0008749c      0xb70 /usr/lib/gcc-cross/arm-linux-gnueabihf/14/../../../../arm-linux-gnueabihf/lib/libc.a(dl-open.o)
                0x00087758                _dl_find_dso_for_object
                0x000877d0                _dl_open
                0x000878f4                _dl_show_scope
 .text          0x0008800c      0x16c /usr/lib/gcc-cross/arm-linux-gnueabihf/14/../../../../arm-linux-gnueabihf/lib/libc.a(dl-runtime.o)
                0x0008800c                _dl_fixup
 .text          0x00088178      0x3e4 /usr/lib/gcc-cross/arm-linux-gnueabihf/14/../../../../arm-linux-gnueabihf/lib/libc.a(dl-sort-maps.o)
                0x000881fc                _dl_sort_maps_init
                0x00088228                _dl_sort_maps
 .text          0x0008855c      0x674 /usr/lib/gcc-cross/arm-linux-gnueabihf/14/../../../../arm-linux-gnueabihf/lib/libc.a(dl-version.o)
                0x0008855c                _dl_check_map_versions
                0x00088ba0                _dl_check_all_versions
 .text          0x00088bd0        0xc /usr/lib/gcc-cross/arm-linux-gnueabihf/14/../../../../arm-linux-gnueabihf/lib/libc.a(tlsdesc.o)
                0x00088bd0                _dl_unmap
 .text          0x00088bdc       0x48 /usr/lib/gcc-cross/arm-linux-gnueabihf/14/../../../../arm-linux-gnueabihf/lib/libc.a(dl-addr-obj.o)
                0x00088bdc                _dl_addr_inside_object
 *fill*         0x00088c24        0x4 
 .text          0x00088c28      0xb48 /usr/lib/gcc-cross/arm-linux-gnueabihf/14/../../../../arm-linux-gnueabihf/lib/libc.a(dl-find_object.o)
                0x00088ec4                __dl_find_object
                0x00088ec4                _dl_find_object
                0x00089178                _dlfo_sort_mappings
                0x00089180                _dl_find_object_init
                0x0008928c                _dl_find_object_update
                0x0008969c                _dl_find_object_dlclose
                0x00089728                _dl_find_object_freeres
 .text          0x00089770       0xf8 /usr/lib/gcc-cross/arm-linux-gnueabihf/14/../../../../arm-linux-gnueabihf/lib/libc.a(rtld_static_init.o)
                0x00089770                __rtld_static_init
 .text          0x00089868        0x8 /usr/lib/gcc-cross/arm-linux-gnueabihf/14/../../../../arm-linux-gnueabihf/lib/libc.a(dladdr.o)
                0x00089868                __dladdr
                0x00089868                dladdr
 .text          0x00089870       0x1c /usr/lib/gcc-cross/arm-linux-gnueabihf/14/../../../../arm-linux-gnueabihf/lib/libc.a(dladdr1.o)
                0x00089870                dladdr1
                0x00089870                __dladdr1
 .text          0x0008988c       0x1c /usr/lib/gcc-cross/arm-linux-gnueabihf/14/../../../../arm-linux-gnueabihf/lib/libc.a(dlclose.o)
                0x0008988c                dlclose
                0x0008988c                __dlclose
 .text          0x000898a8      0x2c0 /usr/lib/gcc-cross/arm-linux-gnueabihf/14/../../../../arm-linux-gnueabihf/lib/libc.a(dlerror.o)
                0x000898a8                dlerror
                0x000898a8                __dlerror
                0x00089a20                _dlerror_run
 .text          0x00089b68       0xf8 /usr/lib/gcc-cross/arm-linux-gnueabihf/14/../../../../arm-linux-gnueabihf/lib/libc.a(dlinfo.o)
                0x00089c04                __dlinfo
                0x00089c04                dlinfo
 .text          0x00089c60      0x130 /usr/lib/gcc-cross/arm-linux-gnueabihf/14/../../../../arm-linux-gnueabihf/lib/libc.a(dlmopen.o)
                0x00089cd0                __dlmopen
                0x00089d30                dlmopen
                0x00089d30                ___dlmopen
 .text          0x00089d90      0x144 /usr/lib/gcc-cross/arm-linux-gnueabihf/14/../../../../arm-linux-gnueabihf/lib/libc.a(dlopen.o)
                0x00089e18                __dlopen
                0x00089e74                ___dlopen
                0x00089e74                dlopen
 .text          0x00089ed4      0x100 /usr/lib/gcc-cross/arm-linux-gnueabihf/14/../../../../arm-linux-gnueabihf/lib/libc.a(dlsym.o)
                0x00089ee8                __dlsym
                0x00089f60                ___dlsym
                0x00089f60                dlsym
 .text          0x00089fd4      0x10c /usr/lib/gcc-cross/arm-linux-gnueabihf/14/../../../../arm-linux-gnueabihf/lib/libc.a(dlvsym.o)
                0x00089fe8                __dlvsym
                0x0008a064                ___dlvsym
                0x0008a064                dlvsym
 .text          0x0008a0e0       0x54 /usr/lib/gcc-cross/arm-linux-gnueabihf/14/../../../../arm-linux-gnueabihf/lib/libc.a(libc_dlerror_result.o)
                0x0008a0e0                __libc_dlerror_result_free
 .text          0x0008a134       0x50 /usr/lib/gcc-cross/arm-linux-gnueabihf/14/../../../../arm-linux-gnueabihf/lib/libc.a(get_child_max.o)
                0x0008a134                __get_child_max
 .text          0x0008a184       0x84 /usr/lib/gcc-cross/arm-linux-gnueabihf/14/../../../../arm-linux-gnueabihf/lib/libc.a(atomic_wide_counter.o)
                0x0008a184                __atomic_wide_counter_fetch_add_relaxed
                0x0008a1d8                __atomic_wide_counter_load_relaxed
 .text          0x0008a208       0x70 /usr/lib/gcc-cross/arm-linux-gnueabihf/14/../../../../arm-linux-gnueabihf/lib/libc.a(dl-call-libc-early-init.o)
                0x0008a208                _dl_call_libc_early_init
 .text          0x0008a278       0x74 /usr/lib/gcc-cross/arm-linux-gnueabihf/14/../../../../arm-linux-gnueabihf/lib/libc.a(dl-call_fini.o)
                0x0008a278                _dl_call_fini
 .text          0x0008a2ec      0x9a8 /usr/lib/gcc-cross/arm-linux-gnueabihf/14/../../../../arm-linux-gnueabihf/lib/libc.a(dl-deps.o)
                0x0008a318                _dl_map_object_deps
 .text          0x0008ac94      0x1bc /usr/lib/gcc-cross/arm-linux-gnueabihf/14/../../../../arm-linux-gnueabihf/lib/libc.a(dl-init.o)
                0x0008ad7c                _dl_init
 .text          0x0008ae50      0x18c /usr/lib/gcc-cross/arm-linux-gnueabihf/14/../../../../arm-linux-gnueabihf/lib/libc.a(dl-lookup-direct.o)
                0x0008aef4                _dl_lookup_direct
 .text          0x0008afdc      0x264 /usr/lib/gcc-cross/arm-linux-gnueabihf/14/../../../../arm-linux-gnueabihf/lib/libc.a(dl-addr.o)
                0x0008afdc                _dl_addr
 .text          0x0008b240      0x2b0 /usr/lib/gcc-cross/arm-linux-gnueabihf/14/../../../../arm-linux-gnueabihf/lib/libc.a(dl-sym.o)
                0x0008b438                _dl_vsym
                0x0008b4dc                _dl_sym
 .text          0x0008b4f0       0x58 /usr/lib/gcc-cross/arm-linux-gnueabihf/14/../../../../arm-linux-gnueabihf/lib/libc.a(asprintf.o)
                0x0008b4f0                __asprintf
                0x0008b4f0                asprintf
                0x0008b4f0                ___asprintf
 .text          0x0008b548      0x274 /usr/lib/gcc-cross/arm-linux-gnueabihf/14/libgcc.a(_udivsi3.o)
                0x0008b548                __udivsi3
                0x0008b548                __aeabi_uidiv
                0x0008b7a4                __aeabi_uidivmod
 *fill*         0x0008b7bc        0x4 
 .text          0x0008b7c0      0x2ac /usr/lib/gcc-cross/arm-linux-gnueabihf/14/libgcc.a(_divsi3.o)
                0x0008b7c0                __aeabi_idiv
                0x0008b7c0                __divsi3
                0x0008ba54                __aeabi_idivmod
 .text          0x0008ba6c       0xa0 /usr/lib/gcc-cross/arm-linux-gnueabihf/14/libgcc.a(_aeabi_ldivmod.o)
                0x0008ba6c                __aeabi_ldivmod
 .text          0x0008bb0c        0xc /usr/lib/gcc-cross/arm-linux-gnueabihf/14/libgcc.a(_dvmd_lnx.o)
                0x0008bb0c                __aeabi_ldiv0
                0x0008bb0c                __aeabi_idiv0
 .text          0x0008bb18      0x108 /usr/lib/gcc-cross/arm-linux-gnueabihf/14/libgcc.a(_udivmoddi4.o)
                0x0008bb18                __udivmoddi4
 .text          0x0008bc20      0xae0 /usr/lib/gcc-cross/arm-linux-gnueabihf/14/libgcc_eh.a(unwind-arm.o)
                0x0008bee8                _Unwind_GetCFA
                0x0008beec                __gnu_Unwind_RaiseException
                0x0008bf58                __gnu_Unwind_ForcedUnwind
                0x0008bf6c                __gnu_Unwind_Resume
                0x0008bfb0                __gnu_Unwind_Resume_or_Rethrow
                0x0008bfd0                _Unwind_Complete
                0x0008bfd4                _Unwind_DeleteException
                0x0008bfe0                _Unwind_VRS_Get
                0x0008c030                _Unwind_VRS_Set
                0x0008c080                __gnu_Unwind_Backtrace
                0x0008c3e8                __aeabi_unwind_cpp_pr0
                0x0008c3ec                __aeabi_unwind_cpp_pr1
                0x0008c3f0                __aeabi_unwind_cpp_pr2
                0x0008c3f4                _Unwind_VRS_Pop
 .text          0x0008c700      0x198 /usr/lib/gcc-cross/arm-linux-gnueabihf/14/libgcc_eh.a(libunwind.o)
                0x0008c700                __restore_core_regs
                0x0008c700                restore_core_regs
                0x0008c718                __gnu_Unwind_Restore_VFP
                0x0008c720                __gnu_Unwind_Save_VFP
                0x0008c728                __gnu_Unwind_Restore_VFP_D
                0x0008c730                __gnu_Unwind_Save_VFP_D
                0x0008c738                __gnu_Unwind_Restore_VFP_D_16_to_31
                0x0008c740                __gnu_Unwind_Save_VFP_D_16_to_31
                0x0008c748                __gnu_Unwind_Restore_WMMXD
                0x0008c78c                __gnu_Unwind_Save_WMMXD
                0x0008c7d0                __gnu_Unwind_Restore_WMMXC
                0x0008c7e4                __gnu_Unwind_Save_WMMXC
                0x0008c7f8                ___Unwind_RaiseException
                0x0008c7f8                _Unwind_RaiseException
                0x0008c818                ___Unwind_Resume
                0x0008c818                _Unwind_Resume
                0x0008c838                _Unwind_Resume_or_Rethrow
                0x0008c838                ___Unwind_Resume_or_Rethrow
                0x0008c858                ___Unwind_ForcedUnwind
                0x0008c858                _Unwind_ForcedUnwind
                0x0008c878                _Unwind_Backtrace
                0x0008c878                ___Unwind_Backtrace
 .text          0x0008c898      0x3a4 /usr/lib/gcc-cross/arm-linux-gnueabihf/14/libgcc_eh.a(pr-support.o)
                0x0008c8ec                __gnu_unwind_execute
                0x0008cbec                __gnu_unwind_frame
                0x0008cc1c                _Unwind_GetRegionStart
                0x0008cc28                _Unwind_GetLanguageSpecificData
 .text          0x0008cc3c      0x2f8 /usr/lib/gcc-cross/arm-linux-gnueabihf/14/libgcc_eh.a(unwind-c.o)
                0x0008ce28                __gcc_personality_v0
 .text          0x0008cf34        0x0 /usr/lib/gcc-cross/arm-linux-gnueabihf/14/crtend.o
 .text          0x0008cf34        0x0 /usr/lib/gcc-cross/arm-linux-gnueabihf/14/../../../../arm-linux-gnueabihf/lib/crtn.o
 *fill*         0x0008cf34        0x4 
 .text.__stub   0x0008cf38       0x18 linker stubs
 *(.gnu.warning)
 *(.glue_7t)
 .glue_7t       0x0008cf50        0x0 linker stubs
 *(.glue_7)
 .glue_7        0x0008cf50        0x0 linker stubs
 *(.vfp11_veneer)
 .vfp11_veneer  0x0008cf50        0x0 linker stubs
 *(.v4_bx)
 .v4_bx         0x0008cf50        0x0 linker stubs

.fini           0x0008cf50        0x8
 *(SORT_NONE(.fini))
 .fini          0x0008cf50        0x4 /usr/lib/gcc-cross/arm-linux-gnueabihf/14/../../../../arm-linux-gnueabihf/lib/crti.o
                0x0008cf50                _fini
 .fini          0x0008cf54        0x4 /usr/lib/gcc-cross/arm-linux-gnueabihf/14/../../../../arm-linux-gnueabihf/lib/crtn.o
                [!provide]                        PROVIDE (__etext = .)
                [!provide]                        PROVIDE (_etext = .)
                [!provide]                        PROVIDE (etext = .)

.rodata         0x0008cf58    0x30050
 *(.rodata .rodata.* .gnu.linkonce.r.*)
 .rodata.cst4   0x0008cf58        0xc /usr/lib/gcc-cross/arm-linux-gnueabihf/14/../../../../arm-linux-gnueabihf/lib/crt1.o
                                  0x4 (size before relaxing)
                0x0008cf58                _IO_stdin_used
                0x0008cf5c                __rseq_flags
                0x0008cf60                _sys_errlist_internal_len
 .rodata        0x0008cf64       0x90 /usr/lib/gcc-cross/arm-linux-gnueabihf/14/crtbeginT.o
 .rodata        0x0008cff4      0x22a build/i_video_fbdev.o
 *fill*         0x0008d21e        0x2 
 .rodata        0x0008d220      0x2cd build/i_input_tty.o
 *fill*         0x0008d4ed        0x3 
 .rodata        0x0008d4f0       0x15 build/i_main.o
 *fill*         0x0008d505        0x3 
 .rodata        0x0008d508       0x72 build/am_map.o
 *fill*         0x0008d57a        0x2 
 .rodata        0x0008d57c      0x33b build/dstrings.o
 *fill*         0x0008d8b7        0x1 
 .rodata        0x0008d8b8      0x1ce build/d_iwad.o
 *fill*         0x0008da86        0x2 
 .rodata        0x0008da88       0x73 build/d_loop.o
 *fill*         0x0008dafb        0x1 
 .rodata        0x0008dafc     0x10d5 build/d_main.o
 *fill*         0x0008ebd1        0x3 
 .rodata        0x0008ebd4       0x4f build/d_mode.o
 *fill*         0x0008ec23        0x1 
 .rodata        0x0008ec24      0x17e build/d_net.o
 *fill*         0x0008eda2        0x2 
 .rodata        0x0008eda4     0x1f63 build/f_finale.o
 *fill*         0x00090d07        0x1 
 .rodata        0x00090d08      0x3fd build/g_game.o
 *fill*         0x00091105        0x3 
 .rodata        0x00091108      0xcfe build/hu_stuff.o
 *fill*         0x00091e06        0x2 
 .rodata        0x00091e08      0x44d build/info.o
 *fill*         0x00092255        0x3 
 .rodata        0x00092258       0xb3 build/i_joystick.o
 *fill*         0x0009230b        0x1 
 .rodata        0x0009230c       0xd6 build/i_scale.o
 *fill*         0x000923e2        0x2 
 .rodata        0x000923e4       0x21 build/i_sound.o
 *fill*         0x00092405        0x3 
 .rodata        0x00092408      0x23f build/i_system.o
 *fill*         0x00092647        0x1 
 .rodata        0x00092648       0x29 build/memio.o
 *fill*         0x00092671        0x3 
 .rodata        0x00092674      0xf70 build/m_config.o
 .rodata        0x000935e4      0x6c6 build/m_controls.o
 *fill*         0x00093caa        0x2 
 .rodata        0x00093cac      0x45c build/m_menu.o
 .rodata        0x00094108      0x101 build/m_misc.o
 *fill*         0x00094209        0x3 
 .rodata        0x0009420c      0x100 build/m_random.o
 .rodata        0x0009430c      0x13f build/p_doors.o
 *fill*         0x0009444b        0x1 
 .rodata        0x0009444c       0x3d build/p_enemy.o
 *fill*         0x00094489        0x3 
 .rodata        0x0009448c      0x417 build/p_inter.o
 *fill*         0x000948a3        0x1 
 .rodata        0x000948a4       0x76 build/p_map.o
 *fill*         0x0009491a        0x2 
 .rodata        0x0009491c       0x2d build/p_mobj.o
 *fill*         0x00094949        0x3 
 .rodata        0x0009494c       0x45 build/p_plats.o
 *fill*         0x00094991        0x3 
 .rodata        0x00094994       0xf2 build/p_saveg.o
 *fill*         0x00094a86        0x2 
 .rodata        0x00094a88       0x5e build/p_setup.o
 *fill*         0x00094ae6        0x2 
 .rodata        0x00094ae8       0x28 build/p_sight.o
 .rodata        0x00094b10      0x244 build/p_spec.o
 .rodata        0x00094d54       0x25 build/p_switch.o
 *fill*         0x00094d79        0x3 
 .rodata        0x00094d7c       0x23 build/r_bsp.o
 *fill*         0x00094d9f        0x1 
 .rodata        0x00094da0      0x146 build/r_data.o
 *fill*         0x00094ee6        0x2 
 .rodata        0x00094ee8       0xb4 build/r_draw.o
 .rodata        0x00094f9c       0xb0 build/r_plane.o
 .rodata        0x0009504c       0x20 build/r_segs.o
 .rodata        0x0009506c      0x1df build/r_things.o
 *fill*         0x0009524b        0x1 
 .rodata        0x0009524c      0x217 build/sounds.o
 *fill*         0x00095463        0x1 
 .rodata        0x00095464       0x52 build/statdump.o
 *fill*         0x000954b6        0x2 
 .rodata        0x000954b8       0x64 build/st_lib.o
 .rodata        0x0009551c      0x1f8 build/st_stuff.o
 .rodata        0x00095714       0x91 build/s_sound.o
 *fill*         0x000957a5        0x3 
 .rodata        0x000957a8    0x10504 build/tables.o
                0x000957a8                finetangent
                0x000997a8                finesine
                0x000a37a8                tantoangle
                0x000a57ac                gammatable
 .rodata        0x000a5cac      0x110 build/v_video.o
 .rodata        0x000a5dbc      0x14d build/wi_stuff.o
 *fill*         0x000a5f09        0x3 
 .rodata        0x000a5f0c        0x6 build/w_file.o
 *fill*         0x000a5f12        0x2 
 .rodata        0x000a5f14       0x14 build/w_main.o
 .rodata        0x000a5f28      0x1ec build/w_wad.o
 .rodata        0x000a6114      0x33a build/z_zone.o
 *fill*         0x000a644e        0x2 
 .rodata.str1.4
                0x000a6450     0x636a /usr/lib/gcc-cross/arm-linux-gnueabihf/14/../../../../arm-linux-gnueabihf/lib/libc.a(libc-start.o)
                                 0x29 (size before relaxing)
                0x000a8e88                _nl_category_name_sizes
                0x000a8e98                _nl_C_codeset
                0x000a8ea8                _nl_POSIX_name
                0x000a8eb0                _nl_C_name
                0x000a8eb4                _libc_intl_domainname
                0x000a8f24                _nl_default_dirname
                0x000a8f38                _nl_default_default_domain
                0x000a900c                _itoa_lower_digits
                0x000a9034                _itoa_upper_digits
                0x000ab510                _nl_default_locale_path
 .rodata.str1.4
                0x000ac7ba       0x2e /usr/lib/gcc-cross/arm-linux-gnueabihf/14/../../../../arm-linux-gnueabihf/lib/libc.a(libc-tls.o)
 *fill*         0x000ac7ba        0x2 
 .rodata        0x000ac7bc        0x8 /usr/lib/gcc-cross/arm-linux-gnueabihf/14/../../../../arm-linux-gnueabihf/lib/libc.a(abort.o)
 .rodata.str1.4
                0x000ac7c4       0x4e /usr/lib/gcc-cross/arm-linux-gnueabihf/14/../../../../arm-linux-gnueabihf/lib/libc.a(cxa_atexit.o)
 .rodata.str1.4
                0x000ac7c4      0x2da /usr/lib/gcc-cross/arm-linux-gnueabihf/14/../../../../arm-linux-gnueabihf/lib/libc.a(strtod_l.o)
 .rodata        0x000ac7c4       0x40 /usr/lib/gcc-cross/arm-linux-gnueabihf/14/../../../../arm-linux-gnueabihf/lib/libc.a(strtod_l.o)
 .rodata        0x000ac804       0xb0 /usr/lib/gcc-cross/arm-linux-gnueabihf/14/../../../../arm-linux-gnueabihf/lib/libc.a(strtol_l.o)
                0x000ac804                __strtol_ul_rem_tab
                0x000ac828                __strtol_ul_max_tab
 .rodata.str1.4
                0x000ac8b4       0x1b /usr/lib/gcc-cross/arm-linux-gnueabihf/14/../../../../arm-linux-gnueabihf/lib/libc.a(system.o)
 .rodata.str1.4
                0x000ac8b4       0x31 /usr/lib/gcc-cross/arm-linux-gnueabihf/14/../../../../arm-linux-gnueabihf/lib/libc.a(rshift.o)
 .rodata        0x000ac8b4       0x28 /usr/lib/gcc-cross/arm-linux-gnueabihf/14/../../../../arm-linux-gnueabihf/lib/libc.a(tens_in_limb.o)
                0x000ac8b4                _tens_in_limb
 .rodata        0x000ac8dc      0x474 /usr/lib/gcc-cross/arm-linux-gnueabihf/14/../../../../arm-linux-gnueabihf/lib/libc.a(fpioconst.o)
                0x000ac8dc                _fpioconst_pow10
                0x000ac98c                __tens
 .rodata.str1.4
                0x000acd50       0xab /usr/lib/gcc-cross/arm-linux-gnueabihf/14/../../../../arm-linux-gnueabihf/lib/libc.a(vfprintf-internal.o)
 .rodata.str4.4
                0x000acd50      0x4f8 /usr/lib/gcc-cross/arm-linux-gnueabihf/14/../../../../arm-linux-gnueabihf/lib/libc.a(vfprintf-internal.o)
                                  0x4 (size before relaxing)
 .rodata        0x000ad248       0x5b /usr/lib/gcc-cross/arm-linux-gnueabihf/14/../../../../arm-linux-gnueabihf/lib/libc.a(vfprintf-internal.o)
 .rodata.str1.4
                0x000ad2a3       0x47 /usr/lib/gcc-cross/arm-linux-gnueabihf/14/../../../../arm-linux-gnueabihf/lib/libc.a(vfscanf-internal.o)
 *fill*         0x000ad2a3        0x1 
 .rodata        0x000ad2a4      0x561 /usr/lib/gcc-cross/arm-linux-gnueabihf/14/../../../../arm-linux-gnueabihf/lib/libc.a(errname.o)
 .rodata.str1.4
                0x000ad805       0x46 /usr/lib/gcc-cross/arm-linux-gnueabihf/14/../../../../arm-linux-gnueabihf/lib/libc.a(iofwide.o)
 .rodata.str1.4
                0x000ad805       0x13 /usr/lib/gcc-cross/arm-linux-gnueabihf/14/../../../../arm-linux-gnueabihf/lib/libc.a(libc_fatal.o)
 .rodata.str1.4
                0x000ad805       0x35 /usr/lib/gcc-cross/arm-linux-gnueabihf/14/../../../../arm-linux-gnueabihf/lib/libc.a(vtables.o)
 .rodata.str1.4
                0x000ad805       0x57 /usr/lib/gcc-cross/arm-linux-gnueabihf/14/../../../../arm-linux-gnueabihf/lib/libc.a(fileops.o)
 .rodata.str1.4
                0x000ad805       0x30 /usr/lib/gcc-cross/arm-linux-gnueabihf/14/../../../../arm-linux-gnueabihf/lib/libc.a(strops.o)
 .rodata.str1.4
                0x000ad805       0x37 /usr/lib/gcc-cross/arm-linux-gnueabihf/14/../../../../arm-linux-gnueabihf/lib/libc.a(lowlevellock.o)
 *fill*         0x000ad805        0x3 
 .rodata        0x000ad808        0x8 /usr/lib/gcc-cross/arm-linux-gnueabihf/14/../../../../arm-linux-gnueabihf/lib/libc.a(pthread_kill.o)
 .rodata        0x000ad810        0x8 /usr/lib/gcc-cross/arm-linux-gnueabihf/14/../../../../arm-linux-gnueabihf/lib/libc.a(pthread_rwlock_init.o)
 .rodata.str1.4
                0x000ad818       0x37 /usr/lib/gcc-cross/arm-linux-gnueabihf/14/../../../../arm-linux-gnueabihf/lib/libc.a(pthread_rwlock_rdlock.o)
 .rodata.str1.4
                0x000ad818       0x37 /usr/lib/gcc-cross/arm-linux-gnueabihf/14/../../../../arm-linux-gnueabihf/lib/libc.a(pthread_rwlock_unlock.o)
 .rodata.str1.4
                0x000ad818       0x37 /usr/lib/gcc-cross/arm-linux-gnueabihf/14/../../../../arm-linux-gnueabihf/lib/libc.a(pthread_rwlock_wrlock.o)
 .rodata.str1.4
                0x000ad818     0x1382 /usr/lib/gcc-cross/arm-linux-gnueabihf/14/../../../../arm-linux-gnueabihf/lib/libc.a(malloc.o)
 .rodata.str1.4
                0x000ad818       0x15 /usr/lib/gcc-cross/arm-linux-gnueabihf/14/../../../../arm-linux-gnueabihf/lib/libc.a(_strerror.o)
 .rodata.str1.4
                0x000ad818       0xd6 /usr/lib/gcc-cross/arm-linux-gnueabihf/14/../../../../arm-linux-gnueabihf/lib/libc.a(mbrtowc.o)
 .rodata.str1.4
                0x000ad818       0xbf /usr/lib/gcc-cross/arm-linux-gnueabihf/14/../../../../arm-linux-gnueabihf/lib/libc.a(wcrtomb.o)
 .rodata.str1.4
                0x000ad818       0x71 /usr/lib/gcc-cross/arm-linux-gnueabihf/14/../../../../arm-linux-gnueabihf/lib/libc.a(wcsmbsload.o)
 .rodata.str1.4
                0x000ad818      0x118 /usr/lib/gcc-cross/arm-linux-gnueabihf/14/../../../../arm-linux-gnueabihf/lib/libc.a(wcsrtombs.o)
 .rodata.str1.4
                0x000ad818        0x1 /usr/lib/gcc-cross/arm-linux-gnueabihf/14/../../../../arm-linux-gnueabihf/lib/libc.a(fstat64.o)
 .rodata.str1.4
                0x000ad818       0x52 /usr/lib/gcc-cross/arm-linux-gnueabihf/14/../../../../arm-linux-gnueabihf/lib/libc.a(getpagesize.o)
 .rodata.str1.4
                0x000ad818       0x92 /usr/lib/gcc-cross/arm-linux-gnueabihf/14/../../../../arm-linux-gnueabihf/lib/libc.a(getsysstats.o)
 .rodata.str1.4
                0x000ad818        0xf /usr/lib/gcc-cross/arm-linux-gnueabihf/14/../../../../arm-linux-gnueabihf/lib/libc.a(closefrom_fallback.o)
 .rodata.str1.4
                0x000ad818       0xf0 /usr/lib/gcc-cross/arm-linux-gnueabihf/14/../../../../arm-linux-gnueabihf/lib/libc.a(malloc-hugepages.o)
 .rodata.str1.4
                0x000ad818       0x19 /usr/lib/gcc-cross/arm-linux-gnueabihf/14/../../../../arm-linux-gnueabihf/lib/libc.a(chk_fail.o)
 .rodata.str1.4
                0x000ad818       0x18 /usr/lib/gcc-cross/arm-linux-gnueabihf/14/../../../../arm-linux-gnueabihf/lib/libc.a(fortify_fail.o)
 .rodata.str1.4
                0x000ad818       0x14 /usr/lib/gcc-cross/arm-linux-gnueabihf/14/../../../../arm-linux-gnueabihf/lib/libc.a(readonly-area.o)
 .rodata.str1.4
                0x000ad818       0x18 /usr/lib/gcc-cross/arm-linux-gnueabihf/14/../../../../arm-linux-gnueabihf/lib/libc.a(stack_chk_fail.o)
 .rodata.str1.4
                0x000ad818      0x1dd /usr/lib/gcc-cross/arm-linux-gnueabihf/14/../../../../arm-linux-gnueabihf/lib/libc.a(dl-tls.o)
 .rodata.cst4   0x000ad818        0x4 /usr/lib/gcc-cross/arm-linux-gnueabihf/14/../../../../arm-linux-gnueabihf/lib/libc.a(dl-tls_init_tp.o)
 .rodata.str1.4
                0x000ad818      0x106 /usr/lib/gcc-cross/arm-linux-gnueabihf/14/../../../../arm-linux-gnueabihf/lib/libc.a(dl-tunables.o)
 .rodata        0x000ad818       0x20 /usr/lib/gcc-cross/arm-linux-gnueabihf/14/../../../../arm-linux-gnueabihf/lib/libc.a(dl-tunables.o)
 .rodata.str1.4
                0x000ad838      0x20d /usr/lib/gcc-cross/arm-linux-gnueabihf/14/../../../../arm-linux-gnueabihf/lib/libc.a(dl-support.o)
 .rodata        0x000ad838      0x30e /usr/lib/gcc-cross/arm-linux-gnueabihf/14/../../../../arm-linux-gnueabihf/lib/libc.a(dl-support.o)
                0x000ad9e8                _dl_arm_cap_flags
 .rodata.str1.4
                0x000adb46       0x16 /usr/lib/gcc-cross/arm-linux-gnueabihf/14/../../../../arm-linux-gnueabihf/lib/libc.a(check_fds.o)
 .rodata.str1.4
                0x000adb46       0x39 /usr/lib/gcc-cross/arm-linux-gnueabihf/14/../../../../arm-linux-gnueabihf/lib/libc.a(gconv_db.o)
 .rodata.str1.4
                0x000adb46      0x200 /usr/lib/gcc-cross/arm-linux-gnueabihf/14/../../../../arm-linux-gnueabihf/lib/libc.a(gconv_conf.o)
 *fill*         0x000adb46        0x2 
 .rodata        0x000adb48      0x3ef /usr/lib/gcc-cross/arm-linux-gnueabihf/14/../../../../arm-linux-gnueabihf/lib/libc.a(gconv_conf.o)
 .rodata.str1.4
                0x000adf37      0x133 /usr/lib/gcc-cross/arm-linux-gnueabihf/14/../../../../arm-linux-gnueabihf/lib/libc.a(gconv_builtin.o)
 .rodata.str1.4
                0x000adf37      0x480 /usr/lib/gcc-cross/arm-linux-gnueabihf/14/../../../../arm-linux-gnueabihf/lib/libc.a(gconv_simple.o)
 .rodata.str1.4
                0x000adf37       0x4d /usr/lib/gcc-cross/arm-linux-gnueabihf/14/../../../../arm-linux-gnueabihf/lib/libc.a(gconv_cache.o)
 .rodata.str1.4
                0x000adf37       0x7f /usr/lib/gcc-cross/arm-linux-gnueabihf/14/../../../../arm-linux-gnueabihf/lib/libc.a(gconv_dl.o)
 .rodata.str1.4
                0x000adf37       0x16 /usr/lib/gcc-cross/arm-linux-gnueabihf/14/../../../../arm-linux-gnueabihf/lib/libc.a(setlocale.o)
 *fill*         0x000adf37        0x1 
 .rodata        0x000adf38       0x99 /usr/lib/gcc-cross/arm-linux-gnueabihf/14/../../../../arm-linux-gnueabihf/lib/libc.a(setlocale.o)
                0x000adf38                _nl_category_names
                0x000adfc4                _nl_category_name_idxs
 .rodata.str1.4
                0x000adfd1       0x1a /usr/lib/gcc-cross/arm-linux-gnueabihf/14/../../../../arm-linux-gnueabihf/lib/libc.a(C_name.o)
 .rodata.str1.4
                0x000adfd1        0x5 /usr/lib/gcc-cross/arm-linux-gnueabihf/14/../../../../arm-linux-gnueabihf/lib/libc.a(SYS_libc.o)
 .rodata.str1.4
                0x000adfd1       0x35 /usr/lib/gcc-cross/arm-linux-gnueabihf/14/../../../../arm-linux-gnueabihf/lib/libc.a(__libc_assert_fail.o)
 .rodata.str1.4
                0x000adfd1       0x65 /usr/lib/gcc-cross/arm-linux-gnueabihf/14/../../../../arm-linux-gnueabihf/lib/libc.a(dcigettext.o)
 .rodata.str1.4
                0x000adfd1       0x35 /usr/lib/gcc-cross/arm-linux-gnueabihf/14/../../../../arm-linux-gnueabihf/lib/libc.a(loadmsgcat.o)
 .rodata.str1.4
                0x000adfd1       0x26 /usr/lib/gcc-cross/arm-linux-gnueabihf/14/../../../../arm-linux-gnueabihf/lib/libc.a(localealias.o)
 .rodata.str1.4
                0x000adfd1       0x20 /usr/lib/gcc-cross/arm-linux-gnueabihf/14/../../../../arm-linux-gnueabihf/lib/libc.a(plural.o)
 *fill*         0x000adfd1        0x3 
 .rodata        0x000adfd4      0x1bf /usr/lib/gcc-cross/arm-linux-gnueabihf/14/../../../../arm-linux-gnueabihf/lib/libc.a(plural.o)
 .rodata.str1.4
                0x000ae193       0x12 /usr/lib/gcc-cross/arm-linux-gnueabihf/14/../../../../arm-linux-gnueabihf/lib/libc.a(plural-exp.o)
 *fill*         0x000ae193        0x1 
 .rodata        0x000ae194       0x28 /usr/lib/gcc-cross/arm-linux-gnueabihf/14/../../../../arm-linux-gnueabihf/lib/libc.a(plural-exp.o)
 .rodata.cst4   0x000ae1bc        0x4 /usr/lib/gcc-cross/arm-linux-gnueabihf/14/../../../../arm-linux-gnueabihf/lib/libc.a(setjmp.o)
 .rodata.str1.4
                0x000ae1c0      0x2be /usr/lib/gcc-cross/arm-linux-gnueabihf/14/../../../../arm-linux-gnueabihf/lib/libc.a(strtof_l.o)
 .rodata        0x000ae1c0       0x40 /usr/lib/gcc-cross/arm-linux-gnueabihf/14/../../../../arm-linux-gnueabihf/lib/libc.a(strtof_l.o)
 .rodata        0x000ae200      0x13b /usr/lib/gcc-cross/arm-linux-gnueabihf/14/../../../../arm-linux-gnueabihf/lib/libc.a(strtoll_l.o)
                0x000ae200                __strtol_ull_max_tab
                0x000ae318                __strtol_ull_rem_tab
 *fill*         0x000ae33b        0x1 
 .rodata        0x000ae33c      0x2bc /usr/lib/gcc-cross/arm-linux-gnueabihf/14/../../../../arm-linux-gnueabihf/lib/libc.a(_itoa.o)
                0x000ae33c                _itoa_base_table
 .rodata.str1.4
                0x000ae5f8       0x41 /usr/lib/gcc-cross/arm-linux-gnueabihf/14/../../../../arm-linux-gnueabihf/lib/libc.a(grouping_iterator.o)
 .rodata.str1.4
                0x000ae5f8       0x25 /usr/lib/gcc-cross/arm-linux-gnueabihf/14/../../../../arm-linux-gnueabihf/lib/libc.a(itoa-digits.o)
 .rodata.str1.4
                0x000ae5f8       0x25 /usr/lib/gcc-cross/arm-linux-gnueabihf/14/../../../../arm-linux-gnueabihf/lib/libc.a(itoa-udigits.o)
 .rodata.str1.4
                0x000ae5f8       0x52 /usr/lib/gcc-cross/arm-linux-gnueabihf/14/../../../../arm-linux-gnueabihf/lib/libc.a(printf_buffer_pad_1.o)
 .rodata.str1.4
                0x000ae5f8       0x4f /usr/lib/gcc-cross/arm-linux-gnueabihf/14/../../../../arm-linux-gnueabihf/lib/libc.a(printf_buffer_putc_1.o)
 .rodata.str1.4
                0x000ae5f8       0x53 /usr/lib/gcc-cross/arm-linux-gnueabihf/14/../../../../arm-linux-gnueabihf/lib/libc.a(printf_buffer_puts_1.o)
 .rodata.str1.4
                0x000ae5f8       0x66 /usr/lib/gcc-cross/arm-linux-gnueabihf/14/../../../../arm-linux-gnueabihf/lib/libc.a(printf_buffer_to_file.o)
 .rodata.str1.4
                0x000ae5f8       0x52 /usr/lib/gcc-cross/arm-linux-gnueabihf/14/../../../../arm-linux-gnueabihf/lib/libc.a(printf_buffer_write.o)
 .rodata.str1.4
                0x000ae5f8      0x16d /usr/lib/gcc-cross/arm-linux-gnueabihf/14/../../../../arm-linux-gnueabihf/lib/libc.a(printf_fp.o)
 .rodata.str1.4
                0x000ae5f8       0x4e /usr/lib/gcc-cross/arm-linux-gnueabihf/14/../../../../arm-linux-gnueabihf/lib/libc.a(printf_fphex.o)
 .rodata.str1.4
                0x000ae5f8       0x4e /usr/lib/gcc-cross/arm-linux-gnueabihf/14/../../../../arm-linux-gnueabihf/lib/libc.a(translated_number_width.o)
 .rodata.str1.4
                0x000ae5f8       0x50 /usr/lib/gcc-cross/arm-linux-gnueabihf/14/../../../../arm-linux-gnueabihf/lib/libc.a(wprintf_buffer_putc_1.o)
 .rodata.cst4   0x000ae5f8        0x4 /usr/lib/gcc-cross/arm-linux-gnueabihf/14/../../../../arm-linux-gnueabihf/lib/libc.a(errlist-data.o)
 .rodata.str1.4
                0x000ae5f8      0xce7 /usr/lib/gcc-cross/arm-linux-gnueabihf/14/../../../../arm-linux-gnueabihf/lib/libc.a(errlist-data.o)
 .rodata.str1.4
                0x000ae5f8       0x3c /usr/lib/gcc-cross/arm-linux-gnueabihf/14/../../../../arm-linux-gnueabihf/lib/libc.a(wfileops.o)
 .rodata.str1.4
                0x000ae5f8       0x37 /usr/lib/gcc-cross/arm-linux-gnueabihf/14/../../../../arm-linux-gnueabihf/lib/libc.a(futex-internal.o)
 .rodata.str1.4
                0x000ae5f8      0x17a /usr/lib/gcc-cross/arm-linux-gnueabihf/14/../../../../arm-linux-gnueabihf/lib/libc.a(pthread_mutex_lock.o)
 .rodata.str1.4
                0x000ae5f8       0x93 /usr/lib/gcc-cross/arm-linux-gnueabihf/14/../../../../arm-linux-gnueabihf/lib/libc.a(pthread_mutex_unlock.o)
 .rodata.str1.4
                0x000ae5f8       0x37 /usr/lib/gcc-cross/arm-linux-gnueabihf/14/../../../../arm-linux-gnueabihf/lib/libc.a(pthread_once.o)
 .rodata.str1.4
                0x000ae5f8       0xce /usr/lib/gcc-cross/arm-linux-gnueabihf/14/../../../../arm-linux-gnueabihf/lib/libc.a(tpp.o)
 .rodata.str1.4
                0x000ae5f8       0x1d /usr/lib/gcc-cross/arm-linux-gnueabihf/14/../../../../arm-linux-gnueabihf/lib/libc.a(execvpe.o)
 .rodata.str1.4
                0x000ae5f8       0x65 /usr/lib/gcc-cross/arm-linux-gnueabihf/14/../../../../arm-linux-gnueabihf/lib/libc.a(getcwd.o)
 .rodata.str1.4
                0x000ae5f8        0x1 /usr/lib/gcc-cross/arm-linux-gnueabihf/14/../../../../arm-linux-gnueabihf/lib/libc.a(init-misc.o)
 .rodata.str1.4
                0x000ae5f8       0x72 /usr/lib/gcc-cross/arm-linux-gnueabihf/14/../../../../arm-linux-gnueabihf/lib/libc.a(dl-catch.o)
 .rodata.str1.4
                0x000ae5f8       0x86 /usr/lib/gcc-cross/arm-linux-gnueabihf/14/../../../../arm-linux-gnueabihf/lib/libc.a(dl-exception.o)
 .rodata.str1.4
                0x000ae5f8       0x7a /usr/lib/gcc-cross/arm-linux-gnueabihf/14/../../../../arm-linux-gnueabihf/lib/libc.a(dl-execstack-tunable.o)
 .rodata.str1.4
                0x000ae5f8      0x913 /usr/lib/gcc-cross/arm-linux-gnueabihf/14/../../../../arm-linux-gnueabihf/lib/libc.a(dl-load.o)
 .rodata.cst4   0x000ae5f8        0x4 /usr/lib/gcc-cross/arm-linux-gnueabihf/14/../../../../arm-linux-gnueabihf/lib/libc.a(dl-load.o)
 .rodata        0x000ae5f8       0x68 /usr/lib/gcc-cross/arm-linux-gnueabihf/14/../../../../arm-linux-gnueabihf/lib/libc.a(dl-load.o)
 .rodata.str1.4
                0x000ae660      0x354 /usr/lib/gcc-cross/arm-linux-gnueabihf/14/../../../../arm-linux-gnueabihf/lib/libc.a(dl-lookup.o)
 .rodata        0x000ae660       0x78 /usr/lib/gcc-cross/arm-linux-gnueabihf/14/../../../../arm-linux-gnueabihf/lib/libc.a(dl-misc.o)
 .rodata.str1.4
                0x000ae6d8       0x5b /usr/lib/gcc-cross/arm-linux-gnueabihf/14/../../../../arm-linux-gnueabihf/lib/libc.a(dl-origin.o)
 .rodata.str1.4
                0x000ae6d8       0x83 /usr/lib/gcc-cross/arm-linux-gnueabihf/14/../../../../arm-linux-gnueabihf/lib/libc.a(dl-printf.o)
 .rodata.str1.4
                0x000ae6d8      0x212 /usr/lib/gcc-cross/arm-linux-gnueabihf/14/../../../../arm-linux-gnueabihf/lib/libc.a(dl-reloc.o)
 .rodata        0x000ae6d8       0x40 /usr/lib/gcc-cross/arm-linux-gnueabihf/14/../../../../arm-linux-gnueabihf/lib/libc.a(dl-reloc.o)
 .rodata.str1.4
                0x000ae718       0x4f /usr/lib/gcc-cross/arm-linux-gnueabihf/14/../../../../arm-linux-gnueabihf/lib/libc.a(dl-setup_hash.o)
 .rodata.str1.4
                0x000ae718       0x37 /usr/lib/gcc-cross/arm-linux-gnueabihf/14/../../../../arm-linux-gnueabihf/lib/libc.a(dl-thread_gscope_wait.o)
 .rodata.str1.4
                0x000ae718       0x92 /usr/lib/gcc-cross/arm-linux-gnueabihf/14/../../../../arm-linux-gnueabihf/lib/libc.a(dl-cache.o)
 .rodata.str1.4
                0x000ae718        0xe /usr/lib/gcc-cross/arm-linux-gnueabihf/14/../../../../arm-linux-gnueabihf/lib/libc.a(dl-libc.o)
 .rodata.str1.4
                0x000ae718        0xd /usr/lib/gcc-cross/arm-linux-gnueabihf/14/../../../../arm-linux-gnueabihf/lib/libc.a(gconv_open.o)
 .rodata.str1.4
                0x000ae718       0x4c /usr/lib/gcc-cross/arm-linux-gnueabihf/14/../../../../arm-linux-gnueabihf/lib/libc.a(gconv.o)
 .rodata.str1.4
                0x000ae718       0x28 /usr/lib/gcc-cross/arm-linux-gnueabihf/14/../../../../arm-linux-gnueabihf/lib/libc.a(gconv_charset.o)
 .rodata.str1.4
                0x000ae718       0x6c /usr/lib/gcc-cross/arm-linux-gnueabihf/14/../../../../arm-linux-gnueabihf/lib/libc.a(findlocale.o)
 .rodata        0x000ae718       0x34 /usr/lib/gcc-cross/arm-linux-gnueabihf/14/../../../../arm-linux-gnueabihf/lib/libc.a(findlocale.o)
 .rodata.str1.4
                0x000ae74c       0xc3 /usr/lib/gcc-cross/arm-linux-gnueabihf/14/../../../../arm-linux-gnueabihf/lib/libc.a(loadarchive.o)
 .rodata.str1.4
                0x000ae74c       0x47 /usr/lib/gcc-cross/arm-linux-gnueabihf/14/../../../../arm-linux-gnueabihf/lib/libc.a(loadlocale.o)
 .rodata        0x000ae74c      0x5dc /usr/lib/gcc-cross/arm-linux-gnueabihf/14/../../../../arm-linux-gnueabihf/lib/libc.a(loadlocale.o)
 .rodata.str1.4
                0x000aed28       0x2d /usr/lib/gcc-cross/arm-linux-gnueabihf/14/../../../../arm-linux-gnueabihf/lib/libc.a(C-address.o)
 .rodata        0x000aed28      0x51c /usr/lib/gcc-cross/arm-linux-gnueabihf/14/../../../../arm-linux-gnueabihf/lib/libc.a(C-collate.o)
 .rodata.str1.4
                0x000af244       0x26 /usr/lib/gcc-cross/arm-linux-gnueabihf/14/../../../../arm-linux-gnueabihf/lib/libc.a(C-ctype.o)
 .rodata.str4.4
                0x000af244       0x58 /usr/lib/gcc-cross/arm-linux-gnueabihf/14/../../../../arm-linux-gnueabihf/lib/libc.a(C-ctype.o)
 .rodata        0x000af244     0xdc24 /usr/lib/gcc-cross/arm-linux-gnueabihf/14/../../../../arm-linux-gnueabihf/lib/libc.a(C-ctype.o)
                0x000af2a4                _nl_C_LC_CTYPE_width
                0x000af300                _nl_C_LC_CTYPE_map_tolower
                0x000af3a8                _nl_C_LC_CTYPE_map_toupper
                0x000af450                _nl_C_LC_CTYPE_class_alnum
                0x000af49c                _nl_C_LC_CTYPE_class_punct
                0x000af4e8                _nl_C_LC_CTYPE_class_cntrl
                0x000af534                _nl_C_LC_CTYPE_class_blank
                0x000af578                _nl_C_LC_CTYPE_class_graph
                0x000af5c4                _nl_C_LC_CTYPE_class_print
                0x000af610                _nl_C_LC_CTYPE_class_space
                0x000af654                _nl_C_LC_CTYPE_class_xdigit
                0x000af6a0                _nl_C_LC_CTYPE_class_digit
                0x000af6e4                _nl_C_LC_CTYPE_class_alpha
                0x000af72c                _nl_C_LC_CTYPE_class_lower
                0x000af774                _nl_C_LC_CTYPE_class_upper
                0x000af7bc                _nl_C_LC_CTYPE_tolower
                0x000afdbc                _nl_C_LC_CTYPE_toupper
                0x000b03bc                _nl_C_LC_CTYPE_class32
                0x000b07bc                _nl_C_LC_CTYPE_class
 .rodata.str1.4
                0x000bce68       0xdf /usr/lib/gcc-cross/arm-linux-gnueabihf/14/../../../../arm-linux-gnueabihf/lib/libc.a(C-identification.o)
 .rodata        0x000bce68       0xa1 /usr/lib/gcc-cross/arm-linux-gnueabihf/14/../../../../arm-linux-gnueabihf/lib/libc.a(C-identification.o)
 .rodata.str1.4
                0x000bcf09        0x2 /usr/lib/gcc-cross/arm-linux-gnueabihf/14/../../../../arm-linux-gnueabihf/lib/libc.a(C-measurement.o)
 .rodata.str1.4
                0x000bcf09       0x11 /usr/lib/gcc-cross/arm-linux-gnueabihf/14/../../../../arm-linux-gnueabihf/lib/libc.a(C-messages.o)
 .rodata.str1.4
                0x000bcf09        0xa /usr/lib/gcc-cross/arm-linux-gnueabihf/14/../../../../arm-linux-gnueabihf/lib/libc.a(C-monetary.o)
 *fill*         0x000bcf09        0x3 
 .rodata        0x000bcf0c        0x8 /usr/lib/gcc-cross/arm-linux-gnueabihf/14/../../../../arm-linux-gnueabihf/lib/libc.a(C-monetary.o)
 .rodata.str1.4
                0x000bcf14       0x11 /usr/lib/gcc-cross/arm-linux-gnueabihf/14/../../../../arm-linux-gnueabihf/lib/libc.a(C-name.o)
 .rodata.str1.4
                0x000bcf14        0x5 /usr/lib/gcc-cross/arm-linux-gnueabihf/14/../../../../arm-linux-gnueabihf/lib/libc.a(C-numeric.o)
 .rodata.str1.4
                0x000bcf14        0xd /usr/lib/gcc-cross/arm-linux-gnueabihf/14/../../../../arm-linux-gnueabihf/lib/libc.a(C-telephone.o)
 .rodata.str1.4
                0x000bcf14      0x168 /usr/lib/gcc-cross/arm-linux-gnueabihf/14/../../../../arm-linux-gnueabihf/lib/libc.a(C-time.o)
 .rodata.str4.4
                0x000bcf14      0x4a4 /usr/lib/gcc-cross/arm-linux-gnueabihf/14/../../../../arm-linux-gnueabihf/lib/libc.a(C-time.o)
 .rodata.cst4   0x000bcf14        0x4 /usr/lib/gcc-cross/arm-linux-gnueabihf/14/../../../../arm-linux-gnueabihf/lib/libc.a(__longjmp.o)
 .rodata.str1.4
                0x000bcf18      0x10b /usr/lib/gcc-cross/arm-linux-gnueabihf/14/../../../../arm-linux-gnueabihf/lib/libc.a(printf_buffer_as_file.o)
 .rodata.str1.4
                0x000bcf18       0x52 /usr/lib/gcc-cross/arm-linux-gnueabihf/14/../../../../arm-linux-gnueabihf/lib/libc.a(printf_buffer_flush.o)
 .rodata.str1.4
                0x000bcf18       0x53 /usr/lib/gcc-cross/arm-linux-gnueabihf/14/../../../../arm-linux-gnueabihf/lib/libc.a(wprintf_buffer_flush.o)
 .rodata.str1.4
                0x000bcf18      0x152 /usr/lib/gcc-cross/arm-linux-gnueabihf/14/../../../../arm-linux-gnueabihf/lib/libc.a(sysconf.o)
 .rodata.str1.4
                0x000bcf18      0x23d /usr/lib/gcc-cross/arm-linux-gnueabihf/14/../../../../arm-linux-gnueabihf/lib/libc.a(dl-close.o)
 .rodata.str1.4
                0x000bcf18      0x360 /usr/lib/gcc-cross/arm-linux-gnueabihf/14/../../../../arm-linux-gnueabihf/lib/libc.a(dl-open.o)
 .rodata.str1.4
                0x000bcf18       0x4e /usr/lib/gcc-cross/arm-linux-gnueabihf/14/../../../../arm-linux-gnueabihf/lib/libc.a(dl-runtime.o)
 .rodata.str1.4
                0x000bcf18       0x52 /usr/lib/gcc-cross/arm-linux-gnueabihf/14/../../../../arm-linux-gnueabihf/lib/libc.a(dl-sort-maps.o)
 .rodata.str1.4
                0x000bcf18      0x21f /usr/lib/gcc-cross/arm-linux-gnueabihf/14/../../../../arm-linux-gnueabihf/lib/libc.a(dl-version.o)
 .rodata.str1.4
                0x000bcf18      0x119 /usr/lib/gcc-cross/arm-linux-gnueabihf/14/../../../../arm-linux-gnueabihf/lib/libc.a(dl-find_object.o)
 .rodata.str1.4
                0x000bcf18       0x53 /usr/lib/gcc-cross/arm-linux-gnueabihf/14/../../../../arm-linux-gnueabihf/lib/libc.a(rtld_static_init.o)
 .rodata.str1.4
                0x000bcf18       0x2b /usr/lib/gcc-cross/arm-linux-gnueabihf/14/../../../../arm-linux-gnueabihf/lib/libc.a(dlerror.o)
 .rodata.str1.4
                0x000bcf18       0x1b /usr/lib/gcc-cross/arm-linux-gnueabihf/14/../../../../arm-linux-gnueabihf/lib/libc.a(dlinfo.o)
 .rodata.str1.4
                0x000bcf18       0x16 /usr/lib/gcc-cross/arm-linux-gnueabihf/14/../../../../arm-linux-gnueabihf/lib/libc.a(dlmopen.o)
 .rodata.str1.4
                0x000bcf18       0x1b /usr/lib/gcc-cross/arm-linux-gnueabihf/14/../../../../arm-linux-gnueabihf/lib/libc.a(dlopen.o)
 .rodata.str1.4
                0x000bcf18       0x65 /usr/lib/gcc-cross/arm-linux-gnueabihf/14/../../../../arm-linux-gnueabihf/lib/libc.a(dl-call-libc-early-init.o)
 .rodata.str1.4
                0x000bcf18       0x1a /usr/lib/gcc-cross/arm-linux-gnueabihf/14/../../../../arm-linux-gnueabihf/lib/libc.a(dl-call_fini.o)
 .rodata.str1.4
                0x000bcf18      0x1d0 /usr/lib/gcc-cross/arm-linux-gnueabihf/14/../../../../arm-linux-gnueabihf/lib/libc.a(dl-deps.o)
 .rodata.str1.4
                0x000bcf18       0x82 /usr/lib/gcc-cross/arm-linux-gnueabihf/14/../../../../arm-linux-gnueabihf/lib/libc.a(dl-init.o)
 .rodata.str1.4
                0x000bcf18       0x2e /usr/lib/gcc-cross/arm-linux-gnueabihf/14/../../../../arm-linux-gnueabihf/lib/libc.a(dl-sym.o)
 .rodata        0x000bcf18       0x90 /usr/lib/gcc-cross/arm-linux-gnueabihf/14/crtend.o

.rodata1
 *(.rodata1)

.ARM.extab      0x000bcfa8      0x30c
 *(.ARM.extab* .gnu.linkonce.armextab.*)
 .ARM.extab     0x000bcfa8        0x0 /usr/lib/gcc-cross/arm-linux-gnueabihf/14/../../../../arm-linux-gnueabihf/lib/crt1.o
 .ARM.extab     0x000bcfa8        0xc /usr/lib/gcc-cross/arm-linux-gnueabihf/14/../../../../arm-linux-gnueabihf/lib/libc.a(libc-start.o)
 .ARM.extab     0x000bcfb4        0x0 /usr/lib/gcc-cross/arm-linux-gnueabihf/14/../../../../arm-linux-gnueabihf/lib/libc.a(libc-do-syscall.o)
 .ARM.extab     0x000bcfb4        0xc /usr/lib/gcc-cross/arm-linux-gnueabihf/14/../../../../arm-linux-gnueabihf/lib/libc.a(system.o)
 .ARM.extab     0x000bcfc0        0xc /usr/lib/gcc-cross/arm-linux-gnueabihf/14/../../../../arm-linux-gnueabihf/lib/libc.a(fprintf.o)
 .ARM.extab     0x000bcfcc        0xc /usr/lib/gcc-cross/arm-linux-gnueabihf/14/../../../../arm-linux-gnueabihf/lib/libc.a(printf.o)
 .ARM.extab     0x000bcfd8        0x0 /usr/lib/gcc-cross/arm-linux-gnueabihf/14/../../../../arm-linux-gnueabihf/lib/libc.a(vfprintf.o)
 .ARM.extab     0x000bcfd8       0x26 /usr/lib/gcc-cross/arm-linux-gnueabihf/14/../../../../arm-linux-gnueabihf/lib/libc.a(iofclose.o)
 *fill*         0x000bcffe        0x2 
 .ARM.extab     0x000bd000       0x21 /usr/lib/gcc-cross/arm-linux-gnueabihf/14/../../../../arm-linux-gnueabihf/lib/libc.a(iofflush.o)
 *fill*         0x000bd021        0x3 
 .ARM.extab     0x000bd024       0x21 /usr/lib/gcc-cross/arm-linux-gnueabihf/14/../../../../arm-linux-gnueabihf/lib/libc.a(iofread.o)
 *fill*         0x000bd045        0x3 
 .ARM.extab     0x000bd048       0x21 /usr/lib/gcc-cross/arm-linux-gnueabihf/14/../../../../arm-linux-gnueabihf/lib/libc.a(ioftell.o)
 *fill*         0x000bd069        0x3 
 .ARM.extab     0x000bd06c       0x22 /usr/lib/gcc-cross/arm-linux-gnueabihf/14/../../../../arm-linux-gnueabihf/lib/libc.a(iofwrite.o)
 *fill*         0x000bd08e        0x2 
 .ARM.extab     0x000bd090       0x21 /usr/lib/gcc-cross/arm-linux-gnueabihf/14/../../../../arm-linux-gnueabihf/lib/libc.a(ioputs.o)
 *fill*         0x000bd0b1        0x3 
 .ARM.extab     0x000bd0b4       0x21 /usr/lib/gcc-cross/arm-linux-gnueabihf/14/../../../../arm-linux-gnueabihf/lib/libc.a(ioseekoff.o)
 .ARM.extab     0x000bd0d5        0x0 /usr/lib/gcc-cross/arm-linux-gnueabihf/14/../../../../arm-linux-gnueabihf/lib/libc.a(iofopen64.o)
 *fill*         0x000bd0d5        0x3 
 .ARM.extab     0x000bd0d8       0x1c /usr/lib/gcc-cross/arm-linux-gnueabihf/14/../../../../arm-linux-gnueabihf/lib/libc.a(putchar.o)
 .ARM.extab     0x000bd0f4        0x0 /usr/lib/gcc-cross/arm-linux-gnueabihf/14/../../../../arm-linux-gnueabihf/lib/libc.a(wgenops.o)
 .ARM.extab     0x000bd0f4       0x21 /usr/lib/gcc-cross/arm-linux-gnueabihf/14/../../../../arm-linux-gnueabihf/lib/libc.a(fseek.o)
 *fill*         0x000bd115        0x3 
 .ARM.extab     0x000bd118       0x27 /usr/lib/gcc-cross/arm-linux-gnueabihf/14/../../../../arm-linux-gnueabihf/lib/libc.a(fileops.o)
 .ARM.extab     0x000bd13f        0x0 /usr/lib/gcc-cross/arm-linux-gnueabihf/14/../../../../arm-linux-gnueabihf/lib/libc.a(genops.o)
 .ARM.extab     0x000bd13f        0x0 /usr/lib/gcc-cross/arm-linux-gnueabihf/14/../../../../arm-linux-gnueabihf/lib/libc.a(pthread_kill.o)
 .ARM.extab     0x000bd13f        0x0 /usr/lib/gcc-cross/arm-linux-gnueabihf/14/../../../../arm-linux-gnueabihf/lib/libc.a(pthread_setcancelstate.o)
 .ARM.extab     0x000bd13f        0x0 /usr/lib/gcc-cross/arm-linux-gnueabihf/14/../../../../arm-linux-gnueabihf/lib/libc.a(getpid.o)
 .ARM.extab     0x000bd13f        0x0 /usr/lib/gcc-cross/arm-linux-gnueabihf/14/../../../../arm-linux-gnueabihf/lib/libc.a(spawn.o)
 .ARM.extab     0x000bd13f        0x0 /usr/lib/gcc-cross/arm-linux-gnueabihf/14/../../../../arm-linux-gnueabihf/lib/libc.a(spawni.o)
 .ARM.extab     0x000bd13f        0x0 /usr/lib/gcc-cross/arm-linux-gnueabihf/14/../../../../arm-linux-gnueabihf/lib/libc.a(waitid.o)
 .ARM.extab     0x000bd13f        0x0 /usr/lib/gcc-cross/arm-linux-gnueabihf/14/../../../../arm-linux-gnueabihf/lib/libc.a(waitpid.o)
 .ARM.extab     0x000bd13f        0x0 /usr/lib/gcc-cross/arm-linux-gnueabihf/14/../../../../arm-linux-gnueabihf/lib/libc.a(chdir.o)
 .ARM.extab     0x000bd13f        0x0 /usr/lib/gcc-cross/arm-linux-gnueabihf/14/../../../../arm-linux-gnueabihf/lib/libc.a(close.o)
 .ARM.extab     0x000bd13f        0x0 /usr/lib/gcc-cross/arm-linux-gnueabihf/14/../../../../arm-linux-gnueabihf/lib/libc.a(fchdir.o)
 *fill*         0x000bd13f        0x1 
 .ARM.extab     0x000bd140        0xc /usr/lib/gcc-cross/arm-linux-gnueabihf/14/../../../../arm-linux-gnueabihf/lib/libc.a(fcntl.o)
 .ARM.extab     0x000bd14c        0xc /usr/lib/gcc-cross/arm-linux-gnueabihf/14/../../../../arm-linux-gnueabihf/lib/libc.a(fcntl64.o)
 .ARM.extab     0x000bd158        0xc /usr/lib/gcc-cross/arm-linux-gnueabihf/14/../../../../arm-linux-gnueabihf/lib/libc.a(open.o)
 .ARM.extab     0x000bd164        0xc /usr/lib/gcc-cross/arm-linux-gnueabihf/14/../../../../arm-linux-gnueabihf/lib/libc.a(open64.o)
 .ARM.extab     0x000bd170        0x0 /usr/lib/gcc-cross/arm-linux-gnueabihf/14/../../../../arm-linux-gnueabihf/lib/libc.a(read.o)
 .ARM.extab     0x000bd170        0x0 /usr/lib/gcc-cross/arm-linux-gnueabihf/14/../../../../arm-linux-gnueabihf/lib/libc.a(write.o)
 .ARM.extab     0x000bd170       0x30 /usr/lib/gcc-cross/arm-linux-gnueabihf/14/../../../../arm-linux-gnueabihf/lib/libc.a(getsysstats.o)
 .ARM.extab     0x000bd1a0        0x0 /usr/lib/gcc-cross/arm-linux-gnueabihf/14/../../../../arm-linux-gnueabihf/lib/libc.a(madvise.o)
 .ARM.extab     0x000bd1a0        0x0 /usr/lib/gcc-cross/arm-linux-gnueabihf/14/../../../../arm-linux-gnueabihf/lib/libc.a(mprotect.o)
 .ARM.extab     0x000bd1a0        0x0 /usr/lib/gcc-cross/arm-linux-gnueabihf/14/../../../../arm-linux-gnueabihf/lib/libc.a(munmap.o)
 .ARM.extab     0x000bd1a0        0x0 /usr/lib/gcc-cross/arm-linux-gnueabihf/14/../../../../arm-linux-gnueabihf/lib/libc.a(usleep.o)
 .ARM.extab     0x000bd1a0        0x0 /usr/lib/gcc-cross/arm-linux-gnueabihf/14/../../../../arm-linux-gnueabihf/lib/libc.a(clone3.o)
 .ARM.extab     0x000bd1a0        0x0 /usr/lib/gcc-cross/arm-linux-gnueabihf/14/../../../../arm-linux-gnueabihf/lib/libc.a(sysinfo.o)
 .ARM.extab     0x000bd1a0        0x0 /usr/lib/gcc-cross/arm-linux-gnueabihf/14/../../../../arm-linux-gnueabihf/lib/libc.a(gettid.o)
 .ARM.extab     0x000bd1a0        0xc /usr/lib/gcc-cross/arm-linux-gnueabihf/14/../../../../arm-linux-gnueabihf/lib/libc.a(fprintf_chk.o)
 .ARM.extab     0x000bd1ac        0x0 /usr/lib/gcc-cross/arm-linux-gnueabihf/14/../../../../arm-linux-gnueabihf/lib/libc.a(raise.o)
 .ARM.extab     0x000bd1ac       0x18 /usr/lib/gcc-cross/arm-linux-gnueabihf/14/../../../../arm-linux-gnueabihf/lib/libc.a(sigrestorer.o)
 .ARM.extab     0x000bd1c4        0xc /usr/lib/gcc-cross/arm-linux-gnueabihf/14/../../../../arm-linux-gnueabihf/lib/libc.a(qsort.o)
 .ARM.extab     0x000bd1d0        0x0 /usr/lib/gcc-cross/arm-linux-gnueabihf/14/../../../../arm-linux-gnueabihf/lib/libc.a(iofopen.o)
 .ARM.extab     0x000bd1d0       0x21 /usr/lib/gcc-cross/arm-linux-gnueabihf/14/../../../../arm-linux-gnueabihf/lib/libc.a(iofputs.o)
 *fill*         0x000bd1f1        0x3 
 .ARM.extab     0x000bd1f4       0x23 /usr/lib/gcc-cross/arm-linux-gnueabihf/14/../../../../arm-linux-gnueabihf/lib/libc.a(iogetdelim.o)
 *fill*         0x000bd217        0x1 
 .ARM.extab     0x000bd218       0x29 /usr/lib/gcc-cross/arm-linux-gnueabihf/14/../../../../arm-linux-gnueabihf/lib/libc.a(wfileops.o)
 *fill*         0x000bd241        0x3 
 .ARM.extab     0x000bd244        0xc /usr/lib/gcc-cross/arm-linux-gnueabihf/14/../../../../arm-linux-gnueabihf/lib/libc.a(cancellation.o)
 .ARM.extab     0x000bd250        0x0 /usr/lib/gcc-cross/arm-linux-gnueabihf/14/../../../../arm-linux-gnueabihf/lib/libc.a(futex-internal.o)
 .ARM.extab     0x000bd250       0x34 /usr/lib/gcc-cross/arm-linux-gnueabihf/14/../../../../arm-linux-gnueabihf/lib/libc.a(pthread_once.o)
 .ARM.extab     0x000bd284        0x0 /usr/lib/gcc-cross/arm-linux-gnueabihf/14/../../../../arm-linux-gnueabihf/lib/libc.a(syscall_cancel.o)
 .ARM.extab     0x000bd284        0x0 /usr/lib/gcc-cross/arm-linux-gnueabihf/14/../../../../arm-linux-gnueabihf/lib/libc.a(execve.o)
 .ARM.extab     0x000bd284        0x0 /usr/lib/gcc-cross/arm-linux-gnueabihf/14/../../../../arm-linux-gnueabihf/lib/libc.a(getgid.o)
 .ARM.extab     0x000bd284        0x0 /usr/lib/gcc-cross/arm-linux-gnueabihf/14/../../../../arm-linux-gnueabihf/lib/libc.a(getpgid.o)
 .ARM.extab     0x000bd284        0x0 /usr/lib/gcc-cross/arm-linux-gnueabihf/14/../../../../arm-linux-gnueabihf/lib/libc.a(getuid.o)
 .ARM.extab     0x000bd284        0xc /usr/lib/gcc-cross/arm-linux-gnueabihf/14/../../../../arm-linux-gnueabihf/lib/libc.a(nanosleep.o)
 .ARM.extab     0x000bd290        0x0 /usr/lib/gcc-cross/arm-linux-gnueabihf/14/../../../../arm-linux-gnueabihf/lib/libc.a(sched_getp.o)
 .ARM.extab     0x000bd290        0x0 /usr/lib/gcc-cross/arm-linux-gnueabihf/14/../../../../arm-linux-gnueabihf/lib/libc.a(sched_gets.o)
 .ARM.extab     0x000bd290        0x0 /usr/lib/gcc-cross/arm-linux-gnueabihf/14/../../../../arm-linux-gnueabihf/lib/libc.a(sched_primax.o)
 .ARM.extab     0x000bd290        0x0 /usr/lib/gcc-cross/arm-linux-gnueabihf/14/../../../../arm-linux-gnueabihf/lib/libc.a(sched_primin.o)
 .ARM.extab     0x000bd290        0x0 /usr/lib/gcc-cross/arm-linux-gnueabihf/14/../../../../arm-linux-gnueabihf/lib/libc.a(sched_setp.o)
 .ARM.extab     0x000bd290        0x0 /usr/lib/gcc-cross/arm-linux-gnueabihf/14/../../../../arm-linux-gnueabihf/lib/libc.a(sched_sets.o)
 .ARM.extab     0x000bd290        0x0 /usr/lib/gcc-cross/arm-linux-gnueabihf/14/../../../../arm-linux-gnueabihf/lib/libc.a(setpgid.o)
 .ARM.extab     0x000bd290        0x0 /usr/lib/gcc-cross/arm-linux-gnueabihf/14/../../../../arm-linux-gnueabihf/lib/libc.a(setsid.o)
 .ARM.extab     0x000bd290        0x0 /usr/lib/gcc-cross/arm-linux-gnueabihf/14/../../../../arm-linux-gnueabihf/lib/libc.a(wait4.o)
 .ARM.extab     0x000bd290        0x0 /usr/lib/gcc-cross/arm-linux-gnueabihf/14/../../../../arm-linux-gnueabihf/lib/libc.a(tsearch.o)
 .ARM.extab     0x000bd290        0x0 /usr/lib/gcc-cross/arm-linux-gnueabihf/14/../../../../arm-linux-gnueabihf/lib/libc.a(clone.o)
 .ARM.extab     0x000bd290        0x0 /usr/lib/gcc-cross/arm-linux-gnueabihf/14/../../../../arm-linux-gnueabihf/lib/libc.a(dl-lookup.o)
 .ARM.extab     0x000bd290        0x0 /usr/lib/gcc-cross/arm-linux-gnueabihf/14/../../../../arm-linux-gnueabihf/lib/libc.a(dl-tlsdesc.o)
 .ARM.extab     0x000bd290        0x0 /usr/lib/gcc-cross/arm-linux-gnueabihf/14/../../../../arm-linux-gnueabihf/lib/libc.a(iogetline.o)
 .ARM.extab     0x000bd290        0x0 /usr/lib/gcc-cross/arm-linux-gnueabihf/14/../../../../arm-linux-gnueabihf/lib/libc.a(clock_nanosleep.o)
 .ARM.extab     0x000bd290        0x0 /usr/lib/gcc-cross/arm-linux-gnueabihf/14/../../../../arm-linux-gnueabihf/lib/libc.a(sysconf.o)
 .ARM.extab     0x000bd290        0x0 /usr/lib/gcc-cross/arm-linux-gnueabihf/14/../../../../arm-linux-gnueabihf/lib/libc.a(dl-runtime.o)
 .ARM.extab     0x000bd290        0x0 /usr/lib/gcc-cross/arm-linux-gnueabihf/14/libgcc.a(_udivmoddi4.o)
 .ARM.extab     0x000bd290        0xc /usr/lib/gcc-cross/arm-linux-gnueabihf/14/libgcc_eh.a(unwind-arm.o)
 .ARM.extab     0x000bd29c       0x18 /usr/lib/gcc-cross/arm-linux-gnueabihf/14/libgcc_eh.a(pr-support.o)
 .ARM.extab.text.unlikely
                0x000bd2b4        0x0 /usr/lib/gcc-cross/arm-linux-gnueabihf/14/libgcc_eh.a(pr-support.o)
 .ARM.extab     0x000bd2b4        0x0 /usr/lib/gcc-cross/arm-linux-gnueabihf/14/libgcc_eh.a(unwind-c.o)

.ARM.exidx      0x000bd2b4      0x718
                0x000bd2b4                        PROVIDE (__exidx_start = .)
 *(.ARM.exidx* .gnu.linkonce.armexidx.*)
 .ARM.exidx.text.unlikely
                0x000bd2b4        0x8 /usr/lib/gcc-cross/arm-linux-gnueabihf/14/libgcc_eh.a(pr-support.o)
                                 0x10 (size before relaxing)
 .ARM.exidx     0x000bd2bc        0x0 /usr/lib/gcc-cross/arm-linux-gnueabihf/14/../../../../arm-linux-gnueabihf/lib/crt1.o
                                  0x8 (size before relaxing)
 .ARM.exidx     0x000bd2bc       0x20 /usr/lib/gcc-cross/arm-linux-gnueabihf/14/../../../../arm-linux-gnueabihf/lib/libc.a(libc-start.o)
                                 0x18 (size before relaxing)
 .ARM.exidx     0x000bd2dc       0x10 /usr/lib/gcc-cross/arm-linux-gnueabihf/14/../../../../arm-linux-gnueabihf/lib/libc.a(libc-do-syscall.o)
                                  0x8 (size before relaxing)
 .ARM.exidx     0x000bd2ec       0x20 /usr/lib/gcc-cross/arm-linux-gnueabihf/14/../../../../arm-linux-gnueabihf/lib/libc.a(system.o)
                                 0x18 (size before relaxing)
 .ARM.exidx     0x000bd30c       0x10 /usr/lib/gcc-cross/arm-linux-gnueabihf/14/../../../../arm-linux-gnueabihf/lib/libc.a(fprintf.o)
                                  0x8 (size before relaxing)
 .ARM.exidx     0x000bd31c       0x10 /usr/lib/gcc-cross/arm-linux-gnueabihf/14/../../../../arm-linux-gnueabihf/lib/libc.a(printf.o)
                                  0x8 (size before relaxing)
 .ARM.exidx     0x000bd32c        0x0 /usr/lib/gcc-cross/arm-linux-gnueabihf/14/../../../../arm-linux-gnueabihf/lib/libc.a(vfprintf.o)
                                  0x8 (size before relaxing)
 .ARM.exidx     0x000bd32c        0x8 /usr/lib/gcc-cross/arm-linux-gnueabihf/14/../../../../arm-linux-gnueabihf/lib/libc.a(iofclose.o)
 .ARM.exidx     0x000bd334        0x8 /usr/lib/gcc-cross/arm-linux-gnueabihf/14/../../../../arm-linux-gnueabihf/lib/libc.a(iofflush.o)
 .ARM.exidx     0x000bd33c        0x8 /usr/lib/gcc-cross/arm-linux-gnueabihf/14/../../../../arm-linux-gnueabihf/lib/libc.a(iofread.o)
 .ARM.exidx     0x000bd344        0x8 /usr/lib/gcc-cross/arm-linux-gnueabihf/14/../../../../arm-linux-gnueabihf/lib/libc.a(ioftell.o)
 .ARM.exidx     0x000bd34c        0x8 /usr/lib/gcc-cross/arm-linux-gnueabihf/14/../../../../arm-linux-gnueabihf/lib/libc.a(iofwrite.o)
 .ARM.exidx     0x000bd354        0x8 /usr/lib/gcc-cross/arm-linux-gnueabihf/14/../../../../arm-linux-gnueabihf/lib/libc.a(ioputs.o)
 .ARM.exidx     0x000bd35c       0x10 /usr/lib/gcc-cross/arm-linux-gnueabihf/14/../../../../arm-linux-gnueabihf/lib/libc.a(ioseekoff.o)
 .ARM.exidx     0x000bd36c        0x8 /usr/lib/gcc-cross/arm-linux-gnueabihf/14/../../../../arm-linux-gnueabihf/lib/libc.a(iofopen64.o)
 .ARM.exidx     0x000bd374        0x8 /usr/lib/gcc-cross/arm-linux-gnueabihf/14/../../../../arm-linux-gnueabihf/lib/libc.a(putchar.o)
 .ARM.exidx     0x000bd37c       0x60 /usr/lib/gcc-cross/arm-linux-gnueabihf/14/../../../../arm-linux-gnueabihf/lib/libc.a(wgenops.o)
                                 0xc0 (size before relaxing)
 .ARM.exidx     0x000bd3dc       0x10 /usr/lib/gcc-cross/arm-linux-gnueabihf/14/../../../../arm-linux-gnueabihf/lib/libc.a(fseek.o)
                                  0x8 (size before relaxing)
 .ARM.exidx     0x000bd3ec       0xc8 /usr/lib/gcc-cross/arm-linux-gnueabihf/14/../../../../arm-linux-gnueabihf/lib/libc.a(fileops.o)
                                0x100 (size before relaxing)
 .ARM.exidx     0x000bd4b4       0xa0 /usr/lib/gcc-cross/arm-linux-gnueabihf/14/../../../../arm-linux-gnueabihf/lib/libc.a(genops.o)
                                0x1c8 (size before relaxing)
 .ARM.exidx     0x000bd554       0x20 /usr/lib/gcc-cross/arm-linux-gnueabihf/14/../../../../arm-linux-gnueabihf/lib/libc.a(pthread_kill.o)
 .ARM.exidx     0x000bd574       0x10 /usr/lib/gcc-cross/arm-linux-gnueabihf/14/../../../../arm-linux-gnueabihf/lib/libc.a(pthread_setcancelstate.o)
                                  0x8 (size before relaxing)
 .ARM.exidx     0x000bd584        0x8 /usr/lib/gcc-cross/arm-linux-gnueabihf/14/../../../../arm-linux-gnueabihf/lib/libc.a(getpid.o)
 .ARM.exidx     0x000bd58c       0x10 /usr/lib/gcc-cross/arm-linux-gnueabihf/14/../../../../arm-linux-gnueabihf/lib/libc.a(spawn.o)
                                  0x8 (size before relaxing)
 .ARM.exidx     0x000bd59c       0x18 /usr/lib/gcc-cross/arm-linux-gnueabihf/14/../../../../arm-linux-gnueabihf/lib/libc.a(spawni.o)
 .ARM.exidx     0x000bd5b4        0x8 /usr/lib/gcc-cross/arm-linux-gnueabihf/14/../../../../arm-linux-gnueabihf/lib/libc.a(waitid.o)
 .ARM.exidx     0x000bd5bc        0x8 /usr/lib/gcc-cross/arm-linux-gnueabihf/14/../../../../arm-linux-gnueabihf/lib/libc.a(waitpid.o)
 .ARM.exidx     0x000bd5c4        0x8 /usr/lib/gcc-cross/arm-linux-gnueabihf/14/../../../../arm-linux-gnueabihf/lib/libc.a(chdir.o)
 .ARM.exidx     0x000bd5cc       0x10 /usr/lib/gcc-cross/arm-linux-gnueabihf/14/../../../../arm-linux-gnueabihf/lib/libc.a(close.o)
                                  0x8 (size before relaxing)
 .ARM.exidx     0x000bd5dc        0x8 /usr/lib/gcc-cross/arm-linux-gnueabihf/14/../../../../arm-linux-gnueabihf/lib/libc.a(fchdir.o)
 .ARM.exidx     0x000bd5e4        0x8 /usr/lib/gcc-cross/arm-linux-gnueabihf/14/../../../../arm-linux-gnueabihf/lib/libc.a(fcntl.o)
 .ARM.exidx     0x000bd5ec       0x10 /usr/lib/gcc-cross/arm-linux-gnueabihf/14/../../../../arm-linux-gnueabihf/lib/libc.a(fcntl64.o)
                                  0x8 (size before relaxing)
 .ARM.exidx     0x000bd5fc        0x8 /usr/lib/gcc-cross/arm-linux-gnueabihf/14/../../../../arm-linux-gnueabihf/lib/libc.a(open.o)
 .ARM.exidx     0x000bd604        0x8 /usr/lib/gcc-cross/arm-linux-gnueabihf/14/../../../../arm-linux-gnueabihf/lib/libc.a(open64.o)
 .ARM.exidx     0x000bd60c       0x10 /usr/lib/gcc-cross/arm-linux-gnueabihf/14/../../../../arm-linux-gnueabihf/lib/libc.a(read.o)
                                  0x8 (size before relaxing)
 .ARM.exidx     0x000bd61c       0x10 /usr/lib/gcc-cross/arm-linux-gnueabihf/14/../../../../arm-linux-gnueabihf/lib/libc.a(write.o)
                                  0x8 (size before relaxing)
 .ARM.exidx     0x000bd62c       0x40 /usr/lib/gcc-cross/arm-linux-gnueabihf/14/../../../../arm-linux-gnueabihf/lib/libc.a(getsysstats.o)
 .ARM.exidx     0x000bd66c       0x10 /usr/lib/gcc-cross/arm-linux-gnueabihf/14/../../../../arm-linux-gnueabihf/lib/libc.a(madvise.o)
                                  0x8 (size before relaxing)
 .ARM.exidx     0x000bd67c        0x8 /usr/lib/gcc-cross/arm-linux-gnueabihf/14/../../../../arm-linux-gnueabihf/lib/libc.a(mprotect.o)
 .ARM.exidx     0x000bd684        0x8 /usr/lib/gcc-cross/arm-linux-gnueabihf/14/../../../../arm-linux-gnueabihf/lib/libc.a(munmap.o)
 .ARM.exidx     0x000bd68c       0x10 /usr/lib/gcc-cross/arm-linux-gnueabihf/14/../../../../arm-linux-gnueabihf/lib/libc.a(usleep.o)
                                  0x8 (size before relaxing)
 .ARM.exidx     0x000bd69c        0x0 /usr/lib/gcc-cross/arm-linux-gnueabihf/14/../../../../arm-linux-gnueabihf/lib/libc.a(clone3.o)
                                  0x8 (size before relaxing)
 .ARM.exidx     0x000bd69c        0x8 /usr/lib/gcc-cross/arm-linux-gnueabihf/14/../../../../arm-linux-gnueabihf/lib/libc.a(sysinfo.o)
 .ARM.exidx     0x000bd6a4        0x8 /usr/lib/gcc-cross/arm-linux-gnueabihf/14/../../../../arm-linux-gnueabihf/lib/libc.a(gettid.o)
 .ARM.exidx     0x000bd6ac       0x10 /usr/lib/gcc-cross/arm-linux-gnueabihf/14/../../../../arm-linux-gnueabihf/lib/libc.a(fprintf_chk.o)
                                  0x8 (size before relaxing)
 .ARM.exidx     0x000bd6bc       0x10 /usr/lib/gcc-cross/arm-linux-gnueabihf/14/../../../../arm-linux-gnueabihf/lib/libc.a(raise.o)
                                  0x8 (size before relaxing)
 .ARM.exidx     0x000bd6cc       0x18 /usr/lib/gcc-cross/arm-linux-gnueabihf/14/../../../../arm-linux-gnueabihf/lib/libc.a(sigrestorer.o)
                                 0x10 (size before relaxing)
 .ARM.exidx     0x000bd6e4       0x28 /usr/lib/gcc-cross/arm-linux-gnueabihf/14/../../../../arm-linux-gnueabihf/lib/libc.a(qsort.o)
 .ARM.exidx     0x000bd70c       0x10 /usr/lib/gcc-cross/arm-linux-gnueabihf/14/../../../../arm-linux-gnueabihf/lib/libc.a(iofopen.o)
                                 0x18 (size before relaxing)
 .ARM.exidx     0x000bd71c        0x8 /usr/lib/gcc-cross/arm-linux-gnueabihf/14/../../../../arm-linux-gnueabihf/lib/libc.a(iofputs.o)
 .ARM.exidx     0x000bd724        0x8 /usr/lib/gcc-cross/arm-linux-gnueabihf/14/../../../../arm-linux-gnueabihf/lib/libc.a(iogetdelim.o)
 .ARM.exidx     0x000bd72c       0x50 /usr/lib/gcc-cross/arm-linux-gnueabihf/14/../../../../arm-linux-gnueabihf/lib/libc.a(wfileops.o)
                                 0x48 (size before relaxing)
 .ARM.exidx     0x000bd77c       0x18 /usr/lib/gcc-cross/arm-linux-gnueabihf/14/../../../../arm-linux-gnueabihf/lib/libc.a(cancellation.o)
 .ARM.exidx     0x000bd794       0x20 /usr/lib/gcc-cross/arm-linux-gnueabihf/14/../../../../arm-linux-gnueabihf/lib/libc.a(futex-internal.o)
 .ARM.exidx     0x000bd7b4       0x28 /usr/lib/gcc-cross/arm-linux-gnueabihf/14/../../../../arm-linux-gnueabihf/lib/libc.a(pthread_once.o)
                                 0x20 (size before relaxing)
 .ARM.exidx     0x000bd7dc       0x10 /usr/lib/gcc-cross/arm-linux-gnueabihf/14/../../../../arm-linux-gnueabihf/lib/libc.a(syscall_cancel.o)
                                  0x8 (size before relaxing)
 .ARM.exidx     0x000bd7ec       0x10 /usr/lib/gcc-cross/arm-linux-gnueabihf/14/../../../../arm-linux-gnueabihf/lib/libc.a(execve.o)
                                  0x8 (size before relaxing)
 .ARM.exidx     0x000bd7fc        0x8 /usr/lib/gcc-cross/arm-linux-gnueabihf/14/../../../../arm-linux-gnueabihf/lib/libc.a(getgid.o)
 .ARM.exidx     0x000bd804        0x0 /usr/lib/gcc-cross/arm-linux-gnueabihf/14/../../../../arm-linux-gnueabihf/lib/libc.a(getpgid.o)
                                  0x8 (size before relaxing)
 .ARM.exidx     0x000bd804        0x0 /usr/lib/gcc-cross/arm-linux-gnueabihf/14/../../../../arm-linux-gnueabihf/lib/libc.a(getuid.o)
                                  0x8 (size before relaxing)
 .ARM.exidx     0x000bd804       0x18 /usr/lib/gcc-cross/arm-linux-gnueabihf/14/../../../../arm-linux-gnueabihf/lib/libc.a(nanosleep.o)
                                 0x10 (size before relaxing)
 .ARM.exidx     0x000bd81c        0x8 /usr/lib/gcc-cross/arm-linux-gnueabihf/14/../../../../arm-linux-gnueabihf/lib/libc.a(sched_getp.o)
 .ARM.exidx     0x000bd824        0x0 /usr/lib/gcc-cross/arm-linux-gnueabihf/14/../../../../arm-linux-gnueabihf/lib/libc.a(sched_gets.o)
                                  0x8 (size before relaxing)
 .ARM.exidx     0x000bd824        0x0 /usr/lib/gcc-cross/arm-linux-gnueabihf/14/../../../../arm-linux-gnueabihf/lib/libc.a(sched_primax.o)
                                  0x8 (size before relaxing)
 .ARM.exidx     0x000bd824        0x0 /usr/lib/gcc-cross/arm-linux-gnueabihf/14/../../../../arm-linux-gnueabihf/lib/libc.a(sched_primin.o)
                                  0x8 (size before relaxing)
 .ARM.exidx     0x000bd824        0x0 /usr/lib/gcc-cross/arm-linux-gnueabihf/14/../../../../arm-linux-gnueabihf/lib/libc.a(sched_setp.o)
                                  0x8 (size before relaxing)
 .ARM.exidx     0x000bd824        0x0 /usr/lib/gcc-cross/arm-linux-gnueabihf/14/../../../../arm-linux-gnueabihf/lib/libc.a(sched_sets.o)
                                  0x8 (size before relaxing)
 .ARM.exidx     0x000bd824        0x0 /usr/lib/gcc-cross/arm-linux-gnueabihf/14/../../../../arm-linux-gnueabihf/lib/libc.a(setpgid.o)
                                  0x8 (size before relaxing)
 .ARM.exidx     0x000bd824        0x0 /usr/lib/gcc-cross/arm-linux-gnueabihf/14/../../../../arm-linux-gnueabihf/lib/libc.a(setsid.o)
                                  0x8 (size before relaxing)
 .ARM.exidx     0x000bd824       0x10 /usr/lib/gcc-cross/arm-linux-gnueabihf/14/../../../../arm-linux-gnueabihf/lib/libc.a(wait4.o)
 .ARM.exidx     0x000bd834       0x38 /usr/lib/gcc-cross/arm-linux-gnueabihf/14/../../../../arm-linux-gnueabihf/lib/libc.a(tsearch.o)
                                 0x50 (size before relaxing)
 .ARM.exidx     0x000bd86c        0x0 /usr/lib/gcc-cross/arm-linux-gnueabihf/14/../../../../arm-linux-gnueabihf/lib/libc.a(clone.o)
                                  0x8 (size before relaxing)
 .ARM.exidx     0x000bd86c       0x20 /usr/lib/gcc-cross/arm-linux-gnueabihf/14/../../../../arm-linux-gnueabihf/lib/libc.a(dl-lookup.o)
                                 0x18 (size before relaxing)
 .ARM.exidx     0x000bd88c       0x10 /usr/lib/gcc-cross/arm-linux-gnueabihf/14/../../../../arm-linux-gnueabihf/lib/libc.a(dl-tlsdesc.o)
 .ARM.exidx     0x000bd89c       0x18 /usr/lib/gcc-cross/arm-linux-gnueabihf/14/../../../../arm-linux-gnueabihf/lib/libc.a(iogetline.o)
                                 0x10 (size before relaxing)
 .ARM.exidx     0x000bd8b4       0x18 /usr/lib/gcc-cross/arm-linux-gnueabihf/14/../../../../arm-linux-gnueabihf/lib/libc.a(clock_nanosleep.o)
                                 0x10 (size before relaxing)
 .ARM.exidx     0x000bd8cc       0x10 /usr/lib/gcc-cross/arm-linux-gnueabihf/14/../../../../arm-linux-gnueabihf/lib/libc.a(sysconf.o)
                                  0x8 (size before relaxing)
 .ARM.exidx     0x000bd8dc       0x10 /usr/lib/gcc-cross/arm-linux-gnueabihf/14/../../../../arm-linux-gnueabihf/lib/libc.a(dl-runtime.o)
                                  0x8 (size before relaxing)
 .ARM.exidx     0x000bd8ec        0x0 /usr/lib/gcc-cross/arm-linux-gnueabihf/14/libgcc.a(_udivmoddi4.o)
                                  0x8 (size before relaxing)
 .ARM.exidx     0x000bd8ec       0x80 /usr/lib/gcc-cross/arm-linux-gnueabihf/14/libgcc_eh.a(unwind-arm.o)
                                 0xd0 (size before relaxing)
 .ARM.exidx     0x000bd96c       0x30 /usr/lib/gcc-cross/arm-linux-gnueabihf/14/libgcc_eh.a(pr-support.o)
                                 0x38 (size before relaxing)
 .ARM.exidx     0x000bd99c       0x30 /usr/lib/gcc-cross/arm-linux-gnueabihf/14/libgcc_eh.a(unwind-c.o)
                                 0x48 (size before relaxing)
                0x000bd9cc                        PROVIDE (__exidx_end = .)

.eh_frame_hdr
 *(.eh_frame_hdr)
 *(.eh_frame_entry .eh_frame_entry.*)

.eh_frame       0x000bd9cc        0x4
 *(.eh_frame)
 .eh_frame      0x000bd9cc        0x0 /usr/lib/gcc-cross/arm-linux-gnueabihf/14/crtbeginT.o
 .eh_frame      0x000bd9cc        0x4 /usr/lib/gcc-cross/arm-linux-gnueabihf/14/crtend.o
 *(.eh_frame.*)

.sframe
 *(.sframe)
 *(.sframe.*)

.gcc_except_table
 *(.gcc_except_table .gcc_except_table.*)

.gnu_extab
 *(.gnu_extab*)

.exception_ranges
 *(.exception_ranges*)

.note.build-id
 *(.note.build-id)

.note.GNU-stack
                0x000bd9d0        0x0
 *(.note.GNU-stack)
 .note.GNU-stack
                0x000bd9d0        0x0 /usr/lib/gcc-cross/arm-linux-gnueabihf/14/../../../../arm-linux-gnueabihf/lib/crt1.o
 .note.GNU-stack
                0x000bd9d0        0x0 /usr/lib/gcc-cross/arm-linux-gnueabihf/14/../../../../arm-linux-gnueabihf/lib/crti.o
 .note.GNU-stack
                0x000bd9d0        0x0 /usr/lib/gcc-cross/arm-linux-gnueabihf/14/crtbeginT.o
 .note.GNU-stack
                0x000bd9d0        0x0 build/i_video_fbdev.o
 .note.GNU-stack
                0x000bd9d0        0x0 build/i_input_tty.o
 .note.GNU-stack
                0x000bd9d0        0x0 build/i_main.o
 .note.GNU-stack
                0x000bd9d0        0x0 build/dummy.o
 .note.GNU-stack
                0x000bd9d0        0x0 build/am_map.o
 .note.GNU-stack
                0x000bd9d0        0x0 build/doomdef.o
 .note.GNU-stack
                0x000bd9d0        0x0 build/doomstat.o
 .note.GNU-stack
                0x000bd9d0        0x0 build/dstrings.o
 .note.GNU-stack
                0x000bd9d0        0x0 build/d_event.o
 .note.GNU-stack
                0x000bd9d0        0x0 build/d_items.o
 .note.GNU-stack
                0x000bd9d0        0x0 build/d_iwad.o
 .note.GNU-stack
                0x000bd9d0        0x0 build/d_loop.o
 .note.GNU-stack
                0x000bd9d0        0x0 build/d_main.o
 .note.GNU-stack
                0x000bd9d0        0x0 build/d_mode.o
 .note.GNU-stack
                0x000bd9d0        0x0 build/d_net.o
 .note.GNU-stack
                0x000bd9d0        0x0 build/f_finale.o
 .note.GNU-stack
                0x000bd9d0        0x0 build/f_wipe.o
 .note.GNU-stack
                0x000bd9d0        0x0 build/g_game.o
 .note.GNU-stack
                0x000bd9d0        0x0 build/hu_lib.o
 .note.GNU-stack
                0x000bd9d0        0x0 build/hu_stuff.o
 .note.GNU-stack
                0x000bd9d0        0x0 build/info.o
 .note.GNU-stack
                0x000bd9d0        0x0 build/i_cdmus.o
 .note.GNU-stack
                0x000bd9d0        0x0 build/i_endoom.o
 .note.GNU-stack
                0x000bd9d0        0x0 build/i_joystick.o
 .note.GNU-stack
                0x000bd9d0        0x0 build/i_scale.o
 .note.GNU-stack
                0x000bd9d0        0x0 build/i_sound.o
 .note.GNU-stack
                0x000bd9d0        0x0 build/i_system.o
 .note.GNU-stack
                0x000bd9d0        0x0 build/i_timer.o
 .note.GNU-stack
                0x000bd9d0        0x0 build/memio.o
 .note.GNU-stack
                0x000bd9d0        0x0 build/m_argv.o
 .note.GNU-stack
                0x000bd9d0        0x0 build/m_bbox.o
 .note.GNU-stack
                0x000bd9d0        0x0 build/m_cheat.o
 .note.GNU-stack
                0x000bd9d0        0x0 build/m_config.o
 .note.GNU-stack
                0x000bd9d0        0x0 build/m_controls.o
 .note.GNU-stack
                0x000bd9d0        0x0 build/m_fixed.o
 .note.GNU-stack
                0x000bd9d0        0x0 build/m_menu.o
 .note.GNU-stack
                0x000bd9d0        0x0 build/m_misc.o
 .note.GNU-stack
                0x000bd9d0        0x0 build/m_random.o
 .note.GNU-stack
                0x000bd9d0        0x0 build/p_ceilng.o
 .note.GNU-stack
                0x000bd9d0        0x0 build/p_doors.o
 .note.GNU-stack
                0x000bd9d0        0x0 build/p_enemy.o
 .note.GNU-stack
                0x000bd9d0        0x0 build/p_floor.o
 .note.GNU-stack
                0x000bd9d0        0x0 build/p_inter.o
 .note.GNU-stack
                0x000bd9d0        0x0 build/p_lights.o
 .note.GNU-stack
                0x000bd9d0        0x0 build/p_map.o
 .note.GNU-stack
                0x000bd9d0        0x0 build/p_maputl.o
 .note.GNU-stack
                0x000bd9d0        0x0 build/p_mobj.o
 .note.GNU-stack
                0x000bd9d0        0x0 build/p_plats.o
 .note.GNU-stack
                0x000bd9d0        0x0 build/p_pspr.o
 .note.GNU-stack
                0x000bd9d0        0x0 build/p_saveg.o
 .note.GNU-stack
                0x000bd9d0        0x0 build/p_setup.o
 .note.GNU-stack
                0x000bd9d0        0x0 build/p_sight.o
 .note.GNU-stack
                0x000bd9d0        0x0 build/p_spec.o
 .note.GNU-stack
                0x000bd9d0        0x0 build/p_switch.o
 .note.GNU-stack
                0x000bd9d0        0x0 build/p_telept.o
 .note.GNU-stack
                0x000bd9d0        0x0 build/p_tick.o
 .note.GNU-stack
                0x000bd9d0        0x0 build/p_user.o
 .note.GNU-stack
                0x000bd9d0        0x0 build/r_bsp.o
 .note.GNU-stack
                0x000bd9d0        0x0 build/r_data.o
 .note.GNU-stack
                0x000bd9d0        0x0 build/r_draw.o
 .note.GNU-stack
                0x000bd9d0        0x0 build/r_main.o
 .note.GNU-stack
                0x000bd9d0        0x0 build/r_plane.o
 .note.GNU-stack
                0x000bd9d0        0x0 build/r_segs.o
 .note.GNU-stack
                0x000bd9d0        0x0 build/r_sky.o
 .note.GNU-stack
                0x000bd9d0        0x0 build/r_things.o
 .note.GNU-stack
                0x000bd9d0        0x0 build/sha1.o
 .note.GNU-stack
                0x000bd9d0        0x0 build/sounds.o
 .note.GNU-stack
                0x000bd9d0        0x0 build/statdump.o
 .note.GNU-stack
                0x000bd9d0        0x0 build/st_lib.o
 .note.GNU-stack
                0x000bd9d0        0x0 build/st_stuff.o
 .note.GNU-stack
                0x000bd9d0        0x0 build/s_sound.o
 .note.GNU-stack
                0x000bd9d0        0x0 build/tables.o
 .note.GNU-stack
                0x000bd9d0        0x0 build/v_video.o
 .note.GNU-stack
                0x000bd9d0        0x0 build/wi_stuff.o
 .note.GNU-stack
                0x000bd9d0        0x0 build/w_checksum.o
 .note.GNU-stack
                0x000bd9d0        0x0 build/w_file.o
 .note.GNU-stack
                0x000bd9d0        0x0 build/w_file_stdc_unbuffered.o
 .note.GNU-stack
                0x000bd9d0        0x0 build/w_main.o
 .note.GNU-stack
                0x000bd9d0        0x0 build/w_wad.o
 .note.GNU-stack
                0x000bd9d0        0x0 build/z_zone.o
 .note.GNU-stack
                0x000bd9d0        0x0 /usr/lib/gcc-cross/arm-linux-gnueabihf/14/../../../../arm-linux-gnueabihf/lib/libc.a(libc-start.o)
 .note.GNU-stack
                0x000bd9d0        0x0 /usr/lib/gcc-cross/arm-linux-gnueabihf/14/../../../../arm-linux-gnueabihf/lib/libc.a(libc-tls.o)
 .note.GNU-stack
                0x000bd9d0        0x0 /usr/lib/gcc-cross/arm-linux-gnueabihf/14/../../../../arm-linux-gnueabihf/lib/libc.a(libc-do-syscall.o)
 .note.GNU-stack
                0x000bd9d0        0x0 /usr/lib/gcc-cross/arm-linux-gnueabihf/14/../../../../arm-linux-gnueabihf/lib/libc.a(errno-loc.o)
 .note.GNU-stack
                0x000bd9d0        0x0 /usr/lib/gcc-cross/arm-linux-gnueabihf/14/../../../../arm-linux-gnueabihf/lib/libc.a(ctype.o)
 .note.GNU-stack
                0x000bd9d0        0x0 /usr/lib/gcc-cross/arm-linux-gnueabihf/14/../../../../arm-linux-gnueabihf/lib/libc.a(ctype-info.o)
 .note.GNU-stack
                0x000bd9d0        0x0 /usr/lib/gcc-cross/arm-linux-gnueabihf/14/../../../../arm-linux-gnueabihf/lib/libc.a(bsd-_setjmp.o)
 .note.GNU-stack
                0x000bd9d0        0x0 /usr/lib/gcc-cross/arm-linux-gnueabihf/14/../../../../arm-linux-gnueabihf/lib/libc.a(abort.o)
 .note.GNU-stack
                0x000bd9d0        0x0 /usr/lib/gcc-cross/arm-linux-gnueabihf/14/../../../../arm-linux-gnueabihf/lib/libc.a(atof.o)
 .note.GNU-stack
                0x000bd9d0        0x0 /usr/lib/gcc-cross/arm-linux-gnueabihf/14/../../../../arm-linux-gnueabihf/lib/libc.a(atoi.o)
 .note.GNU-stack
                0x000bd9d0        0x0 /usr/lib/gcc-cross/arm-linux-gnueabihf/14/../../../../arm-linux-gnueabihf/lib/libc.a(cxa_atexit.o)
 .note.GNU-stack
                0x000bd9d0        0x0 /usr/lib/gcc-cross/arm-linux-gnueabihf/14/../../../../arm-linux-gnueabihf/lib/libc.a(exit.o)
 .note.GNU-stack
                0x000bd9d0        0x0 /usr/lib/gcc-cross/arm-linux-gnueabihf/14/../../../../arm-linux-gnueabihf/lib/libc.a(strtod.o)
 .note.GNU-stack
                0x000bd9d0        0x0 /usr/lib/gcc-cross/arm-linux-gnueabihf/14/../../../../arm-linux-gnueabihf/lib/libc.a(strtod_l.o)
 .note.GNU-stack
                0x000bd9d0        0x0 /usr/lib/gcc-cross/arm-linux-gnueabihf/14/../../../../arm-linux-gnueabihf/lib/libc.a(strtod_nan.o)
 .note.GNU-stack
                0x000bd9d0        0x0 /usr/lib/gcc-cross/arm-linux-gnueabihf/14/../../../../arm-linux-gnueabihf/lib/libc.a(strtol.o)
 .note.GNU-stack
                0x000bd9d0        0x0 /usr/lib/gcc-cross/arm-linux-gnueabihf/14/../../../../arm-linux-gnueabihf/lib/libc.a(strtol_l.o)
 .note.GNU-stack
                0x000bd9d0        0x0 /usr/lib/gcc-cross/arm-linux-gnueabihf/14/../../../../arm-linux-gnueabihf/lib/libc.a(strtoull_l.o)
 .note.GNU-stack
                0x000bd9d0        0x0 /usr/lib/gcc-cross/arm-linux-gnueabihf/14/../../../../arm-linux-gnueabihf/lib/libc.a(system.o)
 .note.GNU-stack
                0x000bd9d0        0x0 /usr/lib/gcc-cross/arm-linux-gnueabihf/14/../../../../arm-linux-gnueabihf/lib/libc.a(add_n.o)
 .note.GNU-stack
                0x000bd9d0        0x0 /usr/lib/gcc-cross/arm-linux-gnueabihf/14/../../../../arm-linux-gnueabihf/lib/libc.a(cmp.o)
 .note.GNU-stack
                0x000bd9d0        0x0 /usr/lib/gcc-cross/arm-linux-gnueabihf/14/../../../../arm-linux-gnueabihf/lib/libc.a(lshift.o)
 .note.GNU-stack
                0x000bd9d0        0x0 /usr/lib/gcc-cross/arm-linux-gnueabihf/14/../../../../arm-linux-gnueabihf/lib/libc.a(mul.o)
 .note.GNU-stack
                0x000bd9d0        0x0 /usr/lib/gcc-cross/arm-linux-gnueabihf/14/../../../../arm-linux-gnueabihf/lib/libc.a(mul_1.o)
 .note.GNU-stack
                0x000bd9d0        0x0 /usr/lib/gcc-cross/arm-linux-gnueabihf/14/../../../../arm-linux-gnueabihf/lib/libc.a(mul_n.o)
 .note.GNU-stack
                0x000bd9d0        0x0 /usr/lib/gcc-cross/arm-linux-gnueabihf/14/../../../../arm-linux-gnueabihf/lib/libc.a(rshift.o)
 .note.GNU-stack
                0x000bd9d0        0x0 /usr/lib/gcc-cross/arm-linux-gnueabihf/14/../../../../arm-linux-gnueabihf/lib/libc.a(sub_n.o)
 .note.GNU-stack
                0x000bd9d0        0x0 /usr/lib/gcc-cross/arm-linux-gnueabihf/14/../../../../arm-linux-gnueabihf/lib/libc.a(submul_1.o)
 .note.GNU-stack
                0x000bd9d0        0x0 /usr/lib/gcc-cross/arm-linux-gnueabihf/14/../../../../arm-linux-gnueabihf/lib/libc.a(mpn2dbl.o)
 .note.GNU-stack
                0x000bd9d0        0x0 /usr/lib/gcc-cross/arm-linux-gnueabihf/14/../../../../arm-linux-gnueabihf/lib/libc.a(grouping.o)
 .note.GNU-stack
                0x000bd9d0        0x0 /usr/lib/gcc-cross/arm-linux-gnueabihf/14/../../../../arm-linux-gnueabihf/lib/libc.a(tens_in_limb.o)
 .note.GNU-stack
                0x000bd9d0        0x0 /usr/lib/gcc-cross/arm-linux-gnueabihf/14/../../../../arm-linux-gnueabihf/lib/libc.a(fpioconst.o)
 .note.GNU-stack
                0x000bd9d0        0x0 /usr/lib/gcc-cross/arm-linux-gnueabihf/14/../../../../arm-linux-gnueabihf/lib/libc.a(fprintf.o)
 .note.GNU-stack
                0x000bd9d0        0x0 /usr/lib/gcc-cross/arm-linux-gnueabihf/14/../../../../arm-linux-gnueabihf/lib/libc.a(isoc99_sscanf.o)
 .note.GNU-stack
                0x000bd9d0        0x0 /usr/lib/gcc-cross/arm-linux-gnueabihf/14/../../../../arm-linux-gnueabihf/lib/libc.a(printf.o)
 .note.GNU-stack
                0x000bd9d0        0x0 /usr/lib/gcc-cross/arm-linux-gnueabihf/14/../../../../arm-linux-gnueabihf/lib/libc.a(remove.o)
 .note.GNU-stack
                0x000bd9d0        0x0 /usr/lib/gcc-cross/arm-linux-gnueabihf/14/../../../../arm-linux-gnueabihf/lib/libc.a(rename.o)
 .note.GNU-stack
                0x000bd9d0        0x0 /usr/lib/gcc-cross/arm-linux-gnueabihf/14/../../../../arm-linux-gnueabihf/lib/libc.a(snprintf.o)
 .note.GNU-stack
                0x000bd9d0        0x0 /usr/lib/gcc-cross/arm-linux-gnueabihf/14/../../../../arm-linux-gnueabihf/lib/libc.a(vfprintf.o)
 .note.GNU-stack
                0x000bd9d0        0x0 /usr/lib/gcc-cross/arm-linux-gnueabihf/14/../../../../arm-linux-gnueabihf/lib/libc.a(vfprintf-internal.o)
 .note.GNU-stack
                0x000bd9d0        0x0 /usr/lib/gcc-cross/arm-linux-gnueabihf/14/../../../../arm-linux-gnueabihf/lib/libc.a(vfscanf-internal.o)
 .note.GNU-stack
                0x000bd9d0        0x0 /usr/lib/gcc-cross/arm-linux-gnueabihf/14/../../../../arm-linux-gnueabihf/lib/libc.a(errname.o)
 .note.GNU-stack
                0x000bd9d0        0x0 /usr/lib/gcc-cross/arm-linux-gnueabihf/14/../../../../arm-linux-gnueabihf/lib/libc.a(printf-parsemb.o)
 .note.GNU-stack
                0x000bd9d0        0x0 /usr/lib/gcc-cross/arm-linux-gnueabihf/14/../../../../arm-linux-gnueabihf/lib/libc.a(iofclose.o)
 .note.GNU-stack
                0x000bd9d0        0x0 /usr/lib/gcc-cross/arm-linux-gnueabihf/14/../../../../arm-linux-gnueabihf/lib/libc.a(iofflush.o)
 .note.GNU-stack
                0x000bd9d0        0x0 /usr/lib/gcc-cross/arm-linux-gnueabihf/14/../../../../arm-linux-gnueabihf/lib/libc.a(iofread.o)
 .note.GNU-stack
                0x000bd9d0        0x0 /usr/lib/gcc-cross/arm-linux-gnueabihf/14/../../../../arm-linux-gnueabihf/lib/libc.a(ioftell.o)
 .note.GNU-stack
                0x000bd9d0        0x0 /usr/lib/gcc-cross/arm-linux-gnueabihf/14/../../../../arm-linux-gnueabihf/lib/libc.a(iofwrite.o)
 .note.GNU-stack
                0x000bd9d0        0x0 /usr/lib/gcc-cross/arm-linux-gnueabihf/14/../../../../arm-linux-gnueabihf/lib/libc.a(ioputs.o)
 .note.GNU-stack
                0x000bd9d0        0x0 /usr/lib/gcc-cross/arm-linux-gnueabihf/14/../../../../arm-linux-gnueabihf/lib/libc.a(ioseekoff.o)
 .note.GNU-stack
                0x000bd9d0        0x0 /usr/lib/gcc-cross/arm-linux-gnueabihf/14/../../../../arm-linux-gnueabihf/lib/libc.a(iofopen64.o)
 .note.GNU-stack
                0x000bd9d0        0x0 /usr/lib/gcc-cross/arm-linux-gnueabihf/14/../../../../arm-linux-gnueabihf/lib/libc.a(putchar.o)
 .note.GNU-stack
                0x000bd9d0        0x0 /usr/lib/gcc-cross/arm-linux-gnueabihf/14/../../../../arm-linux-gnueabihf/lib/libc.a(wgenops.o)
 .note.GNU-stack
                0x000bd9d0        0x0 /usr/lib/gcc-cross/arm-linux-gnueabihf/14/../../../../arm-linux-gnueabihf/lib/libc.a(iofwide.o)
 .note.GNU-stack
                0x000bd9d0        0x0 /usr/lib/gcc-cross/arm-linux-gnueabihf/14/../../../../arm-linux-gnueabihf/lib/libc.a(fseek.o)
 .note.GNU-stack
                0x000bd9d0        0x0 /usr/lib/gcc-cross/arm-linux-gnueabihf/14/../../../../arm-linux-gnueabihf/lib/libc.a(vsnprintf.o)
 .note.GNU-stack
                0x000bd9d0        0x0 /usr/lib/gcc-cross/arm-linux-gnueabihf/14/../../../../arm-linux-gnueabihf/lib/libc.a(libc_fatal.o)
 .note.GNU-stack
                0x000bd9d0        0x0 /usr/lib/gcc-cross/arm-linux-gnueabihf/14/../../../../arm-linux-gnueabihf/lib/libc.a(vtables.o)
 .note.GNU-stack
                0x000bd9d0        0x0 /usr/lib/gcc-cross/arm-linux-gnueabihf/14/../../../../arm-linux-gnueabihf/lib/libc.a(fileops.o)
 .note.GNU-stack
                0x000bd9d0        0x0 /usr/lib/gcc-cross/arm-linux-gnueabihf/14/../../../../arm-linux-gnueabihf/lib/libc.a(genops.o)
 .note.GNU-stack
                0x000bd9d0        0x0 /usr/lib/gcc-cross/arm-linux-gnueabihf/14/../../../../arm-linux-gnueabihf/lib/libc.a(stdfiles.o)
 .note.GNU-stack
                0x000bd9d0        0x0 /usr/lib/gcc-cross/arm-linux-gnueabihf/14/../../../../arm-linux-gnueabihf/lib/libc.a(stdio.o)
 .note.GNU-stack
                0x000bd9d0        0x0 /usr/lib/gcc-cross/arm-linux-gnueabihf/14/../../../../arm-linux-gnueabihf/lib/libc.a(strops.o)
 .note.GNU-stack
                0x000bd9d0        0x0 /usr/lib/gcc-cross/arm-linux-gnueabihf/14/../../../../arm-linux-gnueabihf/lib/libc.a(libc-cleanup.o)
 .note.GNU-stack
                0x000bd9d0        0x0 /usr/lib/gcc-cross/arm-linux-gnueabihf/14/../../../../arm-linux-gnueabihf/lib/libc.a(lowlevellock.o)
 .note.GNU-stack
                0x000bd9d0        0x0 /usr/lib/gcc-cross/arm-linux-gnueabihf/14/../../../../arm-linux-gnueabihf/lib/libc.a(nptl_deallocate_tsd.o)
 .note.GNU-stack
                0x000bd9d0        0x0 /usr/lib/gcc-cross/arm-linux-gnueabihf/14/../../../../arm-linux-gnueabihf/lib/libc.a(nptl_nthreads.o)
 .note.GNU-stack
                0x000bd9d0        0x0 /usr/lib/gcc-cross/arm-linux-gnueabihf/14/../../../../arm-linux-gnueabihf/lib/libc.a(pthread_keys.o)
 .note.GNU-stack
                0x000bd9d0        0x0 /usr/lib/gcc-cross/arm-linux-gnueabihf/14/../../../../arm-linux-gnueabihf/lib/libc.a(pthread_kill.o)
 .note.GNU-stack
                0x000bd9d0        0x0 /usr/lib/gcc-cross/arm-linux-gnueabihf/14/../../../../arm-linux-gnueabihf/lib/libc.a(pthread_rwlock_init.o)
 .note.GNU-stack
                0x000bd9d0        0x0 /usr/lib/gcc-cross/arm-linux-gnueabihf/14/../../../../arm-linux-gnueabihf/lib/libc.a(pthread_rwlock_rdlock.o)
 .note.GNU-stack
                0x000bd9d0        0x0 /usr/lib/gcc-cross/arm-linux-gnueabihf/14/../../../../arm-linux-gnueabihf/lib/libc.a(pthread_rwlock_unlock.o)
 .note.GNU-stack
                0x000bd9d0        0x0 /usr/lib/gcc-cross/arm-linux-gnueabihf/14/../../../../arm-linux-gnueabihf/lib/libc.a(pthread_rwlock_wrlock.o)
 .note.GNU-stack
                0x000bd9d0        0x0 /usr/lib/gcc-cross/arm-linux-gnueabihf/14/../../../../arm-linux-gnueabihf/lib/libc.a(pthread_setcancelstate.o)
 .note.GNU-stack
                0x000bd9d0        0x0 /usr/lib/gcc-cross/arm-linux-gnueabihf/14/../../../../arm-linux-gnueabihf/lib/libc.a(malloc.o)
 .note.GNU-stack
                0x000bd9d0        0x0 /usr/lib/gcc-cross/arm-linux-gnueabihf/14/../../../../arm-linux-gnueabihf/lib/libc.a(scratch_buffer_grow_preserve.o)
 .note.GNU-stack
                0x000bd9d0        0x0 /usr/lib/gcc-cross/arm-linux-gnueabihf/14/../../../../arm-linux-gnueabihf/lib/libc.a(scratch_buffer_set_array_size.o)
 .note.GNU-stack
                0x000bd9d0        0x0 /usr/lib/gcc-cross/arm-linux-gnueabihf/14/../../../../arm-linux-gnueabihf/lib/libc.a(_strerror.o)
 .note.GNU-stack
                0x000bd9d0        0x0 /usr/lib/gcc-cross/arm-linux-gnueabihf/14/../../../../arm-linux-gnueabihf/lib/libc.a(memcmp.o)
 .note.GNU-stack
                0x000bd9d0        0x0 /usr/lib/gcc-cross/arm-linux-gnueabihf/14/../../../../arm-linux-gnueabihf/lib/libc.a(memcpy.o)
 .note.GNU-stack
                0x000bd9d0        0x0 /usr/lib/gcc-cross/arm-linux-gnueabihf/14/../../../../arm-linux-gnueabihf/lib/libc.a(memmove.o)
 .note.GNU-stack
                0x000bd9d0        0x0 /usr/lib/gcc-cross/arm-linux-gnueabihf/14/../../../../arm-linux-gnueabihf/lib/libc.a(memset.o)
 .note.GNU-stack
                0x000bd9d0        0x0 /usr/lib/gcc-cross/arm-linux-gnueabihf/14/../../../../arm-linux-gnueabihf/lib/libc.a(strcasecmp.o)
 .note.GNU-stack
                0x000bd9d0        0x0 /usr/lib/gcc-cross/arm-linux-gnueabihf/14/../../../../arm-linux-gnueabihf/lib/libc.a(strchr.o)
 .note.GNU-stack
                0x000bd9d0        0x0 /usr/lib/gcc-cross/arm-linux-gnueabihf/14/../../../../arm-linux-gnueabihf/lib/libc.a(strchrnul.o)
 .note.GNU-stack
                0x000bd9d0        0x0 /usr/lib/gcc-cross/arm-linux-gnueabihf/14/../../../../arm-linux-gnueabihf/lib/libc.a(strcmp.o)
 .note.GNU-stack
                0x000bd9d0        0x0 /usr/lib/gcc-cross/arm-linux-gnueabihf/14/../../../../arm-linux-gnueabihf/lib/libc.a(strdup.o)
 .note.GNU-stack
                0x000bd9d0        0x0 /usr/lib/gcc-cross/arm-linux-gnueabihf/14/../../../../arm-linux-gnueabihf/lib/libc.a(strlen.o)
 .note.GNU-stack
                0x000bd9d0        0x0 /usr/lib/gcc-cross/arm-linux-gnueabihf/14/../../../../arm-linux-gnueabihf/lib/libc.a(strncase.o)
 .note.GNU-stack
                0x000bd9d0        0x0 /usr/lib/gcc-cross/arm-linux-gnueabihf/14/../../../../arm-linux-gnueabihf/lib/libc.a(strncase_l.o)
 .note.GNU-stack
                0x000bd9d0        0x0 /usr/lib/gcc-cross/arm-linux-gnueabihf/14/../../../../arm-linux-gnueabihf/lib/libc.a(strncmp.o)
 .note.GNU-stack
                0x000bd9d0        0x0 /usr/lib/gcc-cross/arm-linux-gnueabihf/14/../../../../arm-linux-gnueabihf/lib/libc.a(strncpy.o)
 .note.GNU-stack
                0x000bd9d0        0x0 /usr/lib/gcc-cross/arm-linux-gnueabihf/14/../../../../arm-linux-gnueabihf/lib/libc.a(strnlen.o)
 .note.GNU-stack
                0x000bd9d0        0x0 /usr/lib/gcc-cross/arm-linux-gnueabihf/14/../../../../arm-linux-gnueabihf/lib/libc.a(strrchr.o)
 .note.GNU-stack
                0x000bd9d0        0x0 /usr/lib/gcc-cross/arm-linux-gnueabihf/14/../../../../arm-linux-gnueabihf/lib/libc.a(strstr.o)
 .note.GNU-stack
                0x000bd9d0        0x0 /usr/lib/gcc-cross/arm-linux-gnueabihf/14/../../../../arm-linux-gnueabihf/lib/libc.a(memcpy_neon.o)
 .note.GNU-stack
                0x000bd9d0        0x0 /usr/lib/gcc-cross/arm-linux-gnueabihf/14/../../../../arm-linux-gnueabihf/lib/libc.a(memcpy_vfp.o)
 .note.GNU-stack
                0x000bd9d0        0x0 /usr/lib/gcc-cross/arm-linux-gnueabihf/14/../../../../arm-linux-gnueabihf/lib/libc.a(mbrlen.o)
 .note.GNU-stack
                0x000bd9d0        0x0 /usr/lib/gcc-cross/arm-linux-gnueabihf/14/../../../../arm-linux-gnueabihf/lib/libc.a(mbrtowc.o)
 .note.GNU-stack
                0x000bd9d0        0x0 /usr/lib/gcc-cross/arm-linux-gnueabihf/14/../../../../arm-linux-gnueabihf/lib/libc.a(wcrtomb.o)
 .note.GNU-stack
                0x000bd9d0        0x0 /usr/lib/gcc-cross/arm-linux-gnueabihf/14/../../../../arm-linux-gnueabihf/lib/libc.a(wcsmbsload.o)
 .note.GNU-stack
                0x000bd9d0        0x0 /usr/lib/gcc-cross/arm-linux-gnueabihf/14/../../../../arm-linux-gnueabihf/lib/libc.a(wcsrtombs.o)
 .note.GNU-stack
                0x000bd9d0        0x0 /usr/lib/gcc-cross/arm-linux-gnueabihf/14/../../../../arm-linux-gnueabihf/lib/libc.a(wmemcpy.o)
 .note.GNU-stack
                0x000bd9d0        0x0 /usr/lib/gcc-cross/arm-linux-gnueabihf/14/../../../../arm-linux-gnueabihf/lib/libc.a(wmemmove.o)
 .note.GNU-stack
                0x000bd9d0        0x0 /usr/lib/gcc-cross/arm-linux-gnueabihf/14/../../../../arm-linux-gnueabihf/lib/libc.a(wmempcpy.o)
 .note.GNU-stack
                0x000bd9d0        0x0 /usr/lib/gcc-cross/arm-linux-gnueabihf/14/../../../../arm-linux-gnueabihf/lib/libc.a(gettimeofday.o)
 .note.GNU-stack
                0x000bd9d0        0x0 /usr/lib/gcc-cross/arm-linux-gnueabihf/14/../../../../arm-linux-gnueabihf/lib/libc.a(clock_gettime.o)
 .note.GNU-stack
                0x000bd9d0        0x0 /usr/lib/gcc-cross/arm-linux-gnueabihf/14/../../../../arm-linux-gnueabihf/lib/libc.a(_exit.o)
 .note.GNU-stack
                0x000bd9d0        0x0 /usr/lib/gcc-cross/arm-linux-gnueabihf/14/../../../../arm-linux-gnueabihf/lib/libc.a(getpid.o)
 .note.GNU-stack
                0x000bd9d0        0x0 /usr/lib/gcc-cross/arm-linux-gnueabihf/14/../../../../arm-linux-gnueabihf/lib/libc.a(spawn.o)
 .note.GNU-stack
                0x000bd9d0        0x0 /usr/lib/gcc-cross/arm-linux-gnueabihf/14/../../../../arm-linux-gnueabihf/lib/libc.a(spawnattr_destroy.o)
 .note.GNU-stack
                0x000bd9d0        0x0 /usr/lib/gcc-cross/arm-linux-gnueabihf/14/../../../../arm-linux-gnueabihf/lib/libc.a(spawnattr_init.o)
 .note.GNU-stack
                0x000bd9d0        0x0 /usr/lib/gcc-cross/arm-linux-gnueabihf/14/../../../../arm-linux-gnueabihf/lib/libc.a(spawnattr_setdefault.o)
 .note.GNU-stack
                0x000bd9d0        0x0 /usr/lib/gcc-cross/arm-linux-gnueabihf/14/../../../../arm-linux-gnueabihf/lib/libc.a(spawnattr_setflags.o)
 .note.GNU-stack
                0x000bd9d0        0x0 /usr/lib/gcc-cross/arm-linux-gnueabihf/14/../../../../arm-linux-gnueabihf/lib/libc.a(spawnattr_setsigmask.o)
 .note.GNU-stack
                0x000bd9d0        0x0 /usr/lib/gcc-cross/arm-linux-gnueabihf/14/../../../../arm-linux-gnueabihf/lib/libc.a(spawni.o)
 .note.GNU-stack
                0x000bd9d0        0x0 /usr/lib/gcc-cross/arm-linux-gnueabihf/14/../../../../arm-linux-gnueabihf/lib/libc.a(waitid.o)
 .note.GNU-stack
                0x000bd9d0        0x0 /usr/lib/gcc-cross/arm-linux-gnueabihf/14/../../../../arm-linux-gnueabihf/lib/libc.a(waitpid.o)
 .note.GNU-stack
                0x000bd9d0        0x0 /usr/lib/gcc-cross/arm-linux-gnueabihf/14/../../../../arm-linux-gnueabihf/lib/libc.a(environ.o)
 .note.GNU-stack
                0x000bd9d0        0x0 /usr/lib/gcc-cross/arm-linux-gnueabihf/14/../../../../arm-linux-gnueabihf/lib/libc.a(chdir.o)
 .note.GNU-stack
                0x000bd9d0        0x0 /usr/lib/gcc-cross/arm-linux-gnueabihf/14/../../../../arm-linux-gnueabihf/lib/libc.a(close.o)
 .note.GNU-stack
                0x000bd9d0        0x0 /usr/lib/gcc-cross/arm-linux-gnueabihf/14/../../../../arm-linux-gnueabihf/lib/libc.a(dup2.o)
 .note.GNU-stack
                0x000bd9d0        0x0 /usr/lib/gcc-cross/arm-linux-gnueabihf/14/../../../../arm-linux-gnueabihf/lib/libc.a(fchdir.o)
 .note.GNU-stack
                0x000bd9d0        0x0 /usr/lib/gcc-cross/arm-linux-gnueabihf/14/../../../../arm-linux-gnueabihf/lib/libc.a(fcntl.o)
 .note.GNU-stack
                0x000bd9d0        0x0 /usr/lib/gcc-cross/arm-linux-gnueabihf/14/../../../../arm-linux-gnueabihf/lib/libc.a(fcntl64.o)
 .note.GNU-stack
                0x000bd9d0        0x0 /usr/lib/gcc-cross/arm-linux-gnueabihf/14/../../../../arm-linux-gnueabihf/lib/libc.a(fstat64.o)
 .note.GNU-stack
                0x000bd9d0        0x0 /usr/lib/gcc-cross/arm-linux-gnueabihf/14/../../../../arm-linux-gnueabihf/lib/libc.a(fstatat64.o)
 .note.GNU-stack
                0x000bd9d0        0x0 /usr/lib/gcc-cross/arm-linux-gnueabihf/14/../../../../arm-linux-gnueabihf/lib/libc.a(lseek64.o)
 .note.GNU-stack
                0x000bd9d0        0x0 /usr/lib/gcc-cross/arm-linux-gnueabihf/14/../../../../arm-linux-gnueabihf/lib/libc.a(mkdir.o)
 .note.GNU-stack
                0x000bd9d0        0x0 /usr/lib/gcc-cross/arm-linux-gnueabihf/14/../../../../arm-linux-gnueabihf/lib/libc.a(open.o)
 .note.GNU-stack
                0x000bd9d0        0x0 /usr/lib/gcc-cross/arm-linux-gnueabihf/14/../../../../arm-linux-gnueabihf/lib/libc.a(open64.o)
 .note.GNU-stack
                0x000bd9d0        0x0 /usr/lib/gcc-cross/arm-linux-gnueabihf/14/../../../../arm-linux-gnueabihf/lib/libc.a(read.o)
 .note.GNU-stack
                0x000bd9d0        0x0 /usr/lib/gcc-cross/arm-linux-gnueabihf/14/../../../../arm-linux-gnueabihf/lib/libc.a(rmdir.o)
 .note.GNU-stack
                0x000bd9d0        0x0 /usr/lib/gcc-cross/arm-linux-gnueabihf/14/../../../../arm-linux-gnueabihf/lib/libc.a(unlink.o)
 .note.GNU-stack
                0x000bd9d0        0x0 /usr/lib/gcc-cross/arm-linux-gnueabihf/14/../../../../arm-linux-gnueabihf/lib/libc.a(write.o)
 .note.GNU-stack
                0x000bd9d0        0x0 /usr/lib/gcc-cross/arm-linux-gnueabihf/14/../../../../arm-linux-gnueabihf/lib/libc.a(close_nocancel.o)
 .note.GNU-stack
                0x000bd9d0        0x0 /usr/lib/gcc-cross/arm-linux-gnueabihf/14/../../../../arm-linux-gnueabihf/lib/libc.a(fcntl_nocancel.o)
 .note.GNU-stack
                0x000bd9d0        0x0 /usr/lib/gcc-cross/arm-linux-gnueabihf/14/../../../../arm-linux-gnueabihf/lib/libc.a(open_nocancel.o)
 .note.GNU-stack
                0x000bd9d0        0x0 /usr/lib/gcc-cross/arm-linux-gnueabihf/14/../../../../arm-linux-gnueabihf/lib/libc.a(read_nocancel.o)
 .note.GNU-stack
                0x000bd9d0        0x0 /usr/lib/gcc-cross/arm-linux-gnueabihf/14/../../../../arm-linux-gnueabihf/lib/libc.a(stat_t64_cp.o)
 .note.GNU-stack
                0x000bd9d0        0x0 /usr/lib/gcc-cross/arm-linux-gnueabihf/14/../../../../arm-linux-gnueabihf/lib/libc.a(write_nocancel.o)
 .note.GNU-stack
                0x000bd9d0        0x0 /usr/lib/gcc-cross/arm-linux-gnueabihf/14/../../../../arm-linux-gnueabihf/lib/libc.a(tcsetattr.o)
 .note.GNU-stack
                0x000bd9d0        0x0 /usr/lib/gcc-cross/arm-linux-gnueabihf/14/../../../../arm-linux-gnueabihf/lib/libc.a(tcgetattr.o)
 .note.GNU-stack
                0x000bd9d0        0x0 /usr/lib/gcc-cross/arm-linux-gnueabihf/14/../../../../arm-linux-gnueabihf/lib/libc.a(tcsetpgrp.o)
 .note.GNU-stack
                0x000bd9d0        0x0 /usr/lib/gcc-cross/arm-linux-gnueabihf/14/../../../../arm-linux-gnueabihf/lib/libc.a(getrlimit64.o)
 .note.GNU-stack
                0x000bd9d0        0x0 /usr/lib/gcc-cross/arm-linux-gnueabihf/14/../../../../arm-linux-gnueabihf/lib/libc.a(brk.o)
 .note.GNU-stack
                0x000bd9d0        0x0 /usr/lib/gcc-cross/arm-linux-gnueabihf/14/../../../../arm-linux-gnueabihf/lib/libc.a(getpagesize.o)
 .note.GNU-stack
                0x000bd9d0        0x0 /usr/lib/gcc-cross/arm-linux-gnueabihf/14/../../../../arm-linux-gnueabihf/lib/libc.a(getsysstats.o)
 .note.GNU-stack
                0x000bd9d0        0x0 /usr/lib/gcc-cross/arm-linux-gnueabihf/14/../../../../arm-linux-gnueabihf/lib/libc.a(ioctl.o)
 .note.GNU-stack
                0x000bd9d0        0x0 /usr/lib/gcc-cross/arm-linux-gnueabihf/14/../../../../arm-linux-gnueabihf/lib/libc.a(madvise.o)
 .note.GNU-stack
                0x000bd9d0        0x0 /usr/lib/gcc-cross/arm-linux-gnueabihf/14/../../../../arm-linux-gnueabihf/lib/libc.a(mmap.o)
 .note.GNU-stack
                0x000bd9d0        0x0 /usr/lib/gcc-cross/arm-linux-gnueabihf/14/../../../../arm-linux-gnueabihf/lib/libc.a(mmap64.o)
 .note.GNU-stack
                0x000bd9d0        0x0 /usr/lib/gcc-cross/arm-linux-gnueabihf/14/../../../../arm-linux-gnueabihf/lib/libc.a(mprotect.o)
 .note.GNU-stack
                0x000bd9d0        0x0 /usr/lib/gcc-cross/arm-linux-gnueabihf/14/../../../../arm-linux-gnueabihf/lib/libc.a(munmap.o)
 .note.GNU-stack
                0x000bd9d0        0x0 /usr/lib/gcc-cross/arm-linux-gnueabihf/14/../../../../arm-linux-gnueabihf/lib/libc.a(sbrk.o)
 .note.GNU-stack
                0x000bd9d0        0x0 /usr/lib/gcc-cross/arm-linux-gnueabihf/14/../../../../arm-linux-gnueabihf/lib/libc.a(single_threaded.o)
 .note.GNU-stack
                0x000bd9d0        0x0 /usr/lib/gcc-cross/arm-linux-gnueabihf/14/../../../../arm-linux-gnueabihf/lib/libc.a(usleep.o)
 .note.GNU-stack
                0x000bd9d0        0x0 /usr/lib/gcc-cross/arm-linux-gnueabihf/14/../../../../arm-linux-gnueabihf/lib/libc.a(clone-internal.o)
 .note.GNU-stack
                0x000bd9d0        0x0 /usr/lib/gcc-cross/arm-linux-gnueabihf/14/../../../../arm-linux-gnueabihf/lib/libc.a(clone-pidfd-support.o)
 .note.GNU-stack
                0x000bd9d0        0x0 /usr/lib/gcc-cross/arm-linux-gnueabihf/14/../../../../arm-linux-gnueabihf/lib/libc.a(clone3.o)
 .note.GNU-stack
                0x000bd9d0        0x0 /usr/lib/gcc-cross/arm-linux-gnueabihf/14/../../../../arm-linux-gnueabihf/lib/libc.a(closefrom_fallback.o)
 .note.GNU-stack
                0x000bd9d0        0x0 /usr/lib/gcc-cross/arm-linux-gnueabihf/14/../../../../arm-linux-gnueabihf/lib/libc.a(mremap.o)
 .note.GNU-stack
                0x000bd9d0        0x0 /usr/lib/gcc-cross/arm-linux-gnueabihf/14/../../../../arm-linux-gnueabihf/lib/libc.a(setvmaname.o)
 .note.GNU-stack
                0x000bd9d0        0x0 /usr/lib/gcc-cross/arm-linux-gnueabihf/14/../../../../arm-linux-gnueabihf/lib/libc.a(sysinfo.o)
 .note.GNU-stack
                0x000bd9d0        0x0 /usr/lib/gcc-cross/arm-linux-gnueabihf/14/../../../../arm-linux-gnueabihf/lib/libc.a(gettid.o)
 .note.GNU-stack
                0x000bd9d0        0x0 /usr/lib/gcc-cross/arm-linux-gnueabihf/14/../../../../arm-linux-gnueabihf/lib/libc.a(malloc-hugepages.o)
 .note.GNU-stack
                0x000bd9d0        0x0 /usr/lib/gcc-cross/arm-linux-gnueabihf/14/../../../../arm-linux-gnueabihf/lib/libc.a(wctrans.o)
 .note.GNU-stack
                0x000bd9d0        0x0 /usr/lib/gcc-cross/arm-linux-gnueabihf/14/../../../../arm-linux-gnueabihf/lib/libc.a(towctrans.o)
 .note.GNU-stack
                0x000bd9d0        0x0 /usr/lib/gcc-cross/arm-linux-gnueabihf/14/../../../../arm-linux-gnueabihf/lib/libc.a(chk_fail.o)
 .note.GNU-stack
                0x000bd9d0        0x0 /usr/lib/gcc-cross/arm-linux-gnueabihf/14/../../../../arm-linux-gnueabihf/lib/libc.a(fortify_fail.o)
 .note.GNU-stack
                0x000bd9d0        0x0 /usr/lib/gcc-cross/arm-linux-gnueabihf/14/../../../../arm-linux-gnueabihf/lib/libc.a(fprintf_chk.o)
 .note.GNU-stack
                0x000bd9d0        0x0 /usr/lib/gcc-cross/arm-linux-gnueabihf/14/../../../../arm-linux-gnueabihf/lib/libc.a(memcpy_chk.o)
 .note.GNU-stack
                0x000bd9d0        0x0 /usr/lib/gcc-cross/arm-linux-gnueabihf/14/../../../../arm-linux-gnueabihf/lib/libc.a(readonly-area.o)
 .note.GNU-stack
                0x000bd9d0        0x0 /usr/lib/gcc-cross/arm-linux-gnueabihf/14/../../../../arm-linux-gnueabihf/lib/libc.a(stack_chk_fail.o)
 .note.GNU-stack
                0x000bd9d0        0x0 /usr/lib/gcc-cross/arm-linux-gnueabihf/14/../../../../arm-linux-gnueabihf/lib/libc.a(dl-debug.o)
 .note.GNU-stack
                0x000bd9d0        0x0 /usr/lib/gcc-cross/arm-linux-gnueabihf/14/../../../../arm-linux-gnueabihf/lib/libc.a(dl-debug-symbols.o)
 .note.GNU-stack
                0x000bd9d0        0x0 /usr/lib/gcc-cross/arm-linux-gnueabihf/14/../../../../arm-linux-gnueabihf/lib/libc.a(dl-tls.o)
 .note.GNU-stack
                0x000bd9d0        0x0 /usr/lib/gcc-cross/arm-linux-gnueabihf/14/../../../../arm-linux-gnueabihf/lib/libc.a(dl-tls_init_tp.o)
 .note.GNU-stack
                0x000bd9d0        0x0 /usr/lib/gcc-cross/arm-linux-gnueabihf/14/../../../../arm-linux-gnueabihf/lib/libc.a(dl-tunables.o)
 .note.GNU-stack
                0x000bd9d0        0x0 /usr/lib/gcc-cross/arm-linux-gnueabihf/14/../../../../arm-linux-gnueabihf/lib/libc.a(dl-rseq-symbols.o)
 .note.GNU-stack
                0x000bd9d0        0x0 /usr/lib/gcc-cross/arm-linux-gnueabihf/14/../../../../arm-linux-gnueabihf/lib/libc.a(dl-early_allocate.o)
 .note.GNU-stack
                0x000bd9d0        0x0 /usr/lib/gcc-cross/arm-linux-gnueabihf/14/../../../../arm-linux-gnueabihf/lib/libc.a(dl-support.o)
 .note.GNU-stack
                0x000bd9d0        0x0 /usr/lib/gcc-cross/arm-linux-gnueabihf/14/../../../../arm-linux-gnueabihf/lib/libc.a(enbl-secure.o)
 .note.GNU-stack
                0x000bd9d0        0x0 /usr/lib/gcc-cross/arm-linux-gnueabihf/14/../../../../arm-linux-gnueabihf/lib/libc.a(libc_early_init.o)
 .note.GNU-stack
                0x000bd9d0        0x0 /usr/lib/gcc-cross/arm-linux-gnueabihf/14/../../../../arm-linux-gnueabihf/lib/libc.a(check_fds.o)
 .note.GNU-stack
                0x000bd9d0        0x0 /usr/lib/gcc-cross/arm-linux-gnueabihf/14/../../../../arm-linux-gnueabihf/lib/libc.a(init-first.o)
 .note.GNU-stack
                0x000bd9d0        0x0 /usr/lib/gcc-cross/arm-linux-gnueabihf/14/../../../../arm-linux-gnueabihf/lib/libc.a(sysdep.o)
 .note.GNU-stack
                0x000bd9d0        0x0 /usr/lib/gcc-cross/arm-linux-gnueabihf/14/../../../../arm-linux-gnueabihf/lib/libc.a(errno.o)
 .note.GNU-stack
                0x000bd9d0        0x0 /usr/lib/gcc-cross/arm-linux-gnueabihf/14/../../../../arm-linux-gnueabihf/lib/libc.a(gconv_db.o)
 .note.GNU-stack
                0x000bd9d0        0x0 /usr/lib/gcc-cross/arm-linux-gnueabihf/14/../../../../arm-linux-gnueabihf/lib/libc.a(gconv_conf.o)
 .note.GNU-stack
                0x000bd9d0        0x0 /usr/lib/gcc-cross/arm-linux-gnueabihf/14/../../../../arm-linux-gnueabihf/lib/libc.a(gconv_builtin.o)
 .note.GNU-stack
                0x000bd9d0        0x0 /usr/lib/gcc-cross/arm-linux-gnueabihf/14/../../../../arm-linux-gnueabihf/lib/libc.a(gconv_simple.o)
 .note.GNU-stack
                0x000bd9d0        0x0 /usr/lib/gcc-cross/arm-linux-gnueabihf/14/../../../../arm-linux-gnueabihf/lib/libc.a(gconv_trans.o)
 .note.GNU-stack
                0x000bd9d0        0x0 /usr/lib/gcc-cross/arm-linux-gnueabihf/14/../../../../arm-linux-gnueabihf/lib/libc.a(gconv_cache.o)
 .note.GNU-stack
                0x000bd9d0        0x0 /usr/lib/gcc-cross/arm-linux-gnueabihf/14/../../../../arm-linux-gnueabihf/lib/libc.a(gconv_dl.o)
 .note.GNU-stack
                0x000bd9d0        0x0 /usr/lib/gcc-cross/arm-linux-gnueabihf/14/../../../../arm-linux-gnueabihf/lib/libc.a(setlocale.o)
 .note.GNU-stack
                0x000bd9d0        0x0 /usr/lib/gcc-cross/arm-linux-gnueabihf/14/../../../../arm-linux-gnueabihf/lib/libc.a(lc-ctype.o)
 .note.GNU-stack
                0x000bd9d0        0x0 /usr/lib/gcc-cross/arm-linux-gnueabihf/14/../../../../arm-linux-gnueabihf/lib/libc.a(lc-numeric.o)
 .note.GNU-stack
                0x000bd9d0        0x0 /usr/lib/gcc-cross/arm-linux-gnueabihf/14/../../../../arm-linux-gnueabihf/lib/libc.a(C_name.o)
 .note.GNU-stack
                0x000bd9d0        0x0 /usr/lib/gcc-cross/arm-linux-gnueabihf/14/../../../../arm-linux-gnueabihf/lib/libc.a(SYS_libc.o)
 .note.GNU-stack
                0x000bd9d0        0x0 /usr/lib/gcc-cross/arm-linux-gnueabihf/14/../../../../arm-linux-gnueabihf/lib/libc.a(global-locale.o)
 .note.GNU-stack
                0x000bd9d0        0x0 /usr/lib/gcc-cross/arm-linux-gnueabihf/14/../../../../arm-linux-gnueabihf/lib/libc.a(xlocale.o)
 .note.GNU-stack
                0x000bd9d0        0x0 /usr/lib/gcc-cross/arm-linux-gnueabihf/14/../../../../arm-linux-gnueabihf/lib/libc.a(__libc_assert_fail.o)
 .note.GNU-stack
                0x000bd9d0        0x0 /usr/lib/gcc-cross/arm-linux-gnueabihf/14/../../../../arm-linux-gnueabihf/lib/libc.a(dcgettext.o)
 .note.GNU-stack
                0x000bd9d0        0x0 /usr/lib/gcc-cross/arm-linux-gnueabihf/14/../../../../arm-linux-gnueabihf/lib/libc.a(dcigettext.o)
 .note.GNU-stack
                0x000bd9d0        0x0 /usr/lib/gcc-cross/arm-linux-gnueabihf/14/../../../../arm-linux-gnueabihf/lib/libc.a(finddomain.o)
 .note.GNU-stack
                0x000bd9d0        0x0 /usr/lib/gcc-cross/arm-linux-gnueabihf/14/../../../../arm-linux-gnueabihf/lib/libc.a(loadmsgcat.o)
 .note.GNU-stack
                0x000bd9d0        0x0 /usr/lib/gcc-cross/arm-linux-gnueabihf/14/../../../../arm-linux-gnueabihf/lib/libc.a(localealias.o)
 .note.GNU-stack
                0x000bd9d0        0x0 /usr/lib/gcc-cross/arm-linux-gnueabihf/14/../../../../arm-linux-gnueabihf/lib/libc.a(l10nflist.o)
 .note.GNU-stack
                0x000bd9d0        0x0 /usr/lib/gcc-cross/arm-linux-gnueabihf/14/../../../../arm-linux-gnueabihf/lib/libc.a(explodename.o)
 .note.GNU-stack
                0x000bd9d0        0x0 /usr/lib/gcc-cross/arm-linux-gnueabihf/14/../../../../arm-linux-gnueabihf/lib/libc.a(plural.o)
 .note.GNU-stack
                0x000bd9d0        0x0 /usr/lib/gcc-cross/arm-linux-gnueabihf/14/../../../../arm-linux-gnueabihf/lib/libc.a(plural-exp.o)
 .note.GNU-stack
                0x000bd9d0        0x0 /usr/lib/gcc-cross/arm-linux-gnueabihf/14/../../../../arm-linux-gnueabihf/lib/libc.a(hash-string.o)
 .note.GNU-stack
                0x000bd9d0        0x0 /usr/lib/gcc-cross/arm-linux-gnueabihf/14/../../../../arm-linux-gnueabihf/lib/libc.a(setjmp.o)
 .note.GNU-stack
                0x000bd9d0        0x0 /usr/lib/gcc-cross/arm-linux-gnueabihf/14/../../../../arm-linux-gnueabihf/lib/libc.a(sigjmp.o)
 .note.GNU-stack
                0x000bd9d0        0x0 /usr/lib/gcc-cross/arm-linux-gnueabihf/14/../../../../arm-linux-gnueabihf/lib/libc.a(raise.o)
 .note.GNU-stack
                0x000bd9d0        0x0 /usr/lib/gcc-cross/arm-linux-gnueabihf/14/../../../../arm-linux-gnueabihf/lib/libc.a(sigaction.o)
 .note.GNU-stack
                0x000bd9d0        0x0 /usr/lib/gcc-cross/arm-linux-gnueabihf/14/../../../../arm-linux-gnueabihf/lib/libc.a(libc_sigaction.o)
 .note.GNU-stack
                0x000bd9d0        0x0 /usr/lib/gcc-cross/arm-linux-gnueabihf/14/../../../../arm-linux-gnueabihf/lib/libc.a(sigprocmask.o)
 .note.GNU-stack
                0x000bd9d0        0x0 /usr/lib/gcc-cross/arm-linux-gnueabihf/14/../../../../arm-linux-gnueabihf/lib/libc.a(sigrestorer.o)
 .note.GNU-stack
                0x000bd9d0        0x0 /usr/lib/gcc-cross/arm-linux-gnueabihf/14/../../../../arm-linux-gnueabihf/lib/libc.a(getenv.o)
 .note.GNU-stack
                0x000bd9d0        0x0 /usr/lib/gcc-cross/arm-linux-gnueabihf/14/../../../../arm-linux-gnueabihf/lib/libc.a(getrandom.o)
 .note.GNU-stack
                0x000bd9d0        0x0 /usr/lib/gcc-cross/arm-linux-gnueabihf/14/../../../../arm-linux-gnueabihf/lib/libc.a(qsort.o)
 .note.GNU-stack
                0x000bd9d0        0x0 /usr/lib/gcc-cross/arm-linux-gnueabihf/14/../../../../arm-linux-gnueabihf/lib/libc.a(setenv.o)
 .note.GNU-stack
                0x000bd9d0        0x0 /usr/lib/gcc-cross/arm-linux-gnueabihf/14/../../../../arm-linux-gnueabihf/lib/libc.a(strtof.o)
 .note.GNU-stack
                0x000bd9d0        0x0 /usr/lib/gcc-cross/arm-linux-gnueabihf/14/../../../../arm-linux-gnueabihf/lib/libc.a(strtof_l.o)
 .note.GNU-stack
                0x000bd9d0        0x0 /usr/lib/gcc-cross/arm-linux-gnueabihf/14/../../../../arm-linux-gnueabihf/lib/libc.a(strtof_nan.o)
 .note.GNU-stack
                0x000bd9d0        0x0 /usr/lib/gcc-cross/arm-linux-gnueabihf/14/../../../../arm-linux-gnueabihf/lib/libc.a(strtold.o)
 .note.GNU-stack
                0x000bd9d0        0x0 /usr/lib/gcc-cross/arm-linux-gnueabihf/14/../../../../arm-linux-gnueabihf/lib/libc.a(strtold_l.o)
 .note.GNU-stack
                0x000bd9d0        0x0 /usr/lib/gcc-cross/arm-linux-gnueabihf/14/../../../../arm-linux-gnueabihf/lib/libc.a(strtoll.o)
 .note.GNU-stack
                0x000bd9d0        0x0 /usr/lib/gcc-cross/arm-linux-gnueabihf/14/../../../../arm-linux-gnueabihf/lib/libc.a(strtoll_l.o)
 .note.GNU-stack
                0x000bd9d0        0x0 /usr/lib/gcc-cross/arm-linux-gnueabihf/14/../../../../arm-linux-gnueabihf/lib/libc.a(strtoul.o)
 .note.GNU-stack
                0x000bd9d0        0x0 /usr/lib/gcc-cross/arm-linux-gnueabihf/14/../../../../arm-linux-gnueabihf/lib/libc.a(strtoul_l.o)
 .note.GNU-stack
                0x000bd9d0        0x0 /usr/lib/gcc-cross/arm-linux-gnueabihf/14/../../../../arm-linux-gnueabihf/lib/libc.a(strtoull.o)
 .note.GNU-stack
                0x000bd9d0        0x0 /usr/lib/gcc-cross/arm-linux-gnueabihf/14/../../../../arm-linux-gnueabihf/lib/libc.a(addmul_1.o)
 .note.GNU-stack
                0x000bd9d0        0x0 /usr/lib/gcc-cross/arm-linux-gnueabihf/14/../../../../arm-linux-gnueabihf/lib/libc.a(mpn2flt.o)
 .note.GNU-stack
                0x000bd9d0        0x0 /usr/lib/gcc-cross/arm-linux-gnueabihf/14/../../../../arm-linux-gnueabihf/lib/libc.a(_itoa.o)
 .note.GNU-stack
                0x000bd9d0        0x0 /usr/lib/gcc-cross/arm-linux-gnueabihf/14/../../../../arm-linux-gnueabihf/lib/libc.a(funlockfile.o)
 .note.GNU-stack
                0x000bd9d0        0x0 /usr/lib/gcc-cross/arm-linux-gnueabihf/14/../../../../arm-linux-gnueabihf/lib/libc.a(grouping_iterator.o)
 .note.GNU-stack
                0x000bd9d0        0x0 /usr/lib/gcc-cross/arm-linux-gnueabihf/14/../../../../arm-linux-gnueabihf/lib/libc.a(itoa-digits.o)
 .note.GNU-stack
                0x000bd9d0        0x0 /usr/lib/gcc-cross/arm-linux-gnueabihf/14/../../../../arm-linux-gnueabihf/lib/libc.a(itoa-udigits.o)
 .note.GNU-stack
                0x000bd9d0        0x0 /usr/lib/gcc-cross/arm-linux-gnueabihf/14/../../../../arm-linux-gnueabihf/lib/libc.a(printf_buffer_done.o)
 .note.GNU-stack
                0x000bd9d0        0x0 /usr/lib/gcc-cross/arm-linux-gnueabihf/14/../../../../arm-linux-gnueabihf/lib/libc.a(printf_buffer_pad_1.o)
 .note.GNU-stack
                0x000bd9d0        0x0 /usr/lib/gcc-cross/arm-linux-gnueabihf/14/../../../../arm-linux-gnueabihf/lib/libc.a(printf_buffer_putc_1.o)
 .note.GNU-stack
                0x000bd9d0        0x0 /usr/lib/gcc-cross/arm-linux-gnueabihf/14/../../../../arm-linux-gnueabihf/lib/libc.a(printf_buffer_puts_1.o)
 .note.GNU-stack
                0x000bd9d0        0x0 /usr/lib/gcc-cross/arm-linux-gnueabihf/14/../../../../arm-linux-gnueabihf/lib/libc.a(printf_buffer_to_file.o)
 .note.GNU-stack
                0x000bd9d0        0x0 /usr/lib/gcc-cross/arm-linux-gnueabihf/14/../../../../arm-linux-gnueabihf/lib/libc.a(printf_buffer_write.o)
 .note.GNU-stack
                0x000bd9d0        0x0 /usr/lib/gcc-cross/arm-linux-gnueabihf/14/../../../../arm-linux-gnueabihf/lib/libc.a(printf_fp.o)
 .note.GNU-stack
                0x000bd9d0        0x0 /usr/lib/gcc-cross/arm-linux-gnueabihf/14/../../../../arm-linux-gnueabihf/lib/libc.a(printf_fphex.o)
 .note.GNU-stack
                0x000bd9d0        0x0 /usr/lib/gcc-cross/arm-linux-gnueabihf/14/../../../../arm-linux-gnueabihf/lib/libc.a(printf_function_invoke.o)
 .note.GNU-stack
                0x000bd9d0        0x0 /usr/lib/gcc-cross/arm-linux-gnueabihf/14/../../../../arm-linux-gnueabihf/lib/libc.a(reg-modifier.o)
 .note.GNU-stack
                0x000bd9d0        0x0 /usr/lib/gcc-cross/arm-linux-gnueabihf/14/../../../../arm-linux-gnueabihf/lib/libc.a(reg-printf.o)
 .note.GNU-stack
                0x000bd9d0        0x0 /usr/lib/gcc-cross/arm-linux-gnueabihf/14/../../../../arm-linux-gnueabihf/lib/libc.a(reg-type.o)
 .note.GNU-stack
                0x000bd9d0        0x0 /usr/lib/gcc-cross/arm-linux-gnueabihf/14/../../../../arm-linux-gnueabihf/lib/libc.a(translated_number_width.o)
 .note.GNU-stack
                0x000bd9d0        0x0 /usr/lib/gcc-cross/arm-linux-gnueabihf/14/../../../../arm-linux-gnueabihf/lib/libc.a(wprintf_buffer_putc_1.o)
 .note.GNU-stack
                0x000bd9d0        0x0 /usr/lib/gcc-cross/arm-linux-gnueabihf/14/../../../../arm-linux-gnueabihf/lib/libc.a(wprintf_buffer_to_file.o)
 .note.GNU-stack
                0x000bd9d0        0x0 /usr/lib/gcc-cross/arm-linux-gnueabihf/14/../../../../arm-linux-gnueabihf/lib/libc.a(errlist.o)
 .note.GNU-stack
                0x000bd9d0        0x0 /usr/lib/gcc-cross/arm-linux-gnueabihf/14/../../../../arm-linux-gnueabihf/lib/libc.a(errlist-data.o)
 .note.GNU-stack
                0x000bd9d0        0x0 /usr/lib/gcc-cross/arm-linux-gnueabihf/14/../../../../arm-linux-gnueabihf/lib/libc.a(filedoalloc.o)
 .note.GNU-stack
                0x000bd9d0        0x0 /usr/lib/gcc-cross/arm-linux-gnueabihf/14/../../../../arm-linux-gnueabihf/lib/libc.a(iofopen.o)
 .note.GNU-stack
                0x000bd9d0        0x0 /usr/lib/gcc-cross/arm-linux-gnueabihf/14/../../../../arm-linux-gnueabihf/lib/libc.a(iofputs.o)
 .note.GNU-stack
                0x000bd9d0        0x0 /usr/lib/gcc-cross/arm-linux-gnueabihf/14/../../../../arm-linux-gnueabihf/lib/libc.a(iogetdelim.o)
 .note.GNU-stack
                0x000bd9d0        0x0 /usr/lib/gcc-cross/arm-linux-gnueabihf/14/../../../../arm-linux-gnueabihf/lib/libc.a(wfileops.o)
 .note.GNU-stack
                0x000bd9d0        0x0 /usr/lib/gcc-cross/arm-linux-gnueabihf/14/../../../../arm-linux-gnueabihf/lib/libc.a(iofgets_u.o)
 .note.GNU-stack
                0x000bd9d0        0x0 /usr/lib/gcc-cross/arm-linux-gnueabihf/14/../../../../arm-linux-gnueabihf/lib/libc.a(alloca_cutoff.o)
 .note.GNU-stack
                0x000bd9d0        0x0 /usr/lib/gcc-cross/arm-linux-gnueabihf/14/../../../../arm-linux-gnueabihf/lib/libc.a(cancellation.o)
 .note.GNU-stack
                0x000bd9d0        0x0 /usr/lib/gcc-cross/arm-linux-gnueabihf/14/../../../../arm-linux-gnueabihf/lib/libc.a(futex-internal.o)
 .note.GNU-stack
                0x000bd9d0        0x0 /usr/lib/gcc-cross/arm-linux-gnueabihf/14/../../../../arm-linux-gnueabihf/lib/libc.a(pthread_mutex_conf.o)
 .note.GNU-stack
                0x000bd9d0        0x0 /usr/lib/gcc-cross/arm-linux-gnueabihf/14/../../../../arm-linux-gnueabihf/lib/libc.a(pthread_mutex_lock.o)
 .note.GNU-stack
                0x000bd9d0        0x0 /usr/lib/gcc-cross/arm-linux-gnueabihf/14/../../../../arm-linux-gnueabihf/lib/libc.a(pthread_mutex_unlock.o)
 .note.GNU-stack
                0x000bd9d0        0x0 /usr/lib/gcc-cross/arm-linux-gnueabihf/14/../../../../arm-linux-gnueabihf/lib/libc.a(pthread_once.o)
 .note.GNU-stack
                0x000bd9d0        0x0 /usr/lib/gcc-cross/arm-linux-gnueabihf/14/../../../../arm-linux-gnueabihf/lib/libc.a(pthread_self.o)
 .note.GNU-stack
                0x000bd9d0        0x0 /usr/lib/gcc-cross/arm-linux-gnueabihf/14/../../../../arm-linux-gnueabihf/lib/libc.a(pthread_sigmask.o)
 .note.GNU-stack
                0x000bd9d0        0x0 /usr/lib/gcc-cross/arm-linux-gnueabihf/14/../../../../arm-linux-gnueabihf/lib/libc.a(syscall_cancel.o)
 .note.GNU-stack
                0x000bd9d0        0x0 /usr/lib/gcc-cross/arm-linux-gnueabihf/14/../../../../arm-linux-gnueabihf/lib/libc.a(tpp.o)
 .note.GNU-stack
                0x000bd9d0        0x0 /usr/lib/gcc-cross/arm-linux-gnueabihf/14/../../../../arm-linux-gnueabihf/lib/libc.a(vars.o)
 .note.GNU-stack
                0x000bd9d0        0x0 /usr/lib/gcc-cross/arm-linux-gnueabihf/14/../../../../arm-linux-gnueabihf/lib/libc.a(argz-addsep.o)
 .note.GNU-stack
                0x000bd9d0        0x0 /usr/lib/gcc-cross/arm-linux-gnueabihf/14/../../../../arm-linux-gnueabihf/lib/libc.a(argz-ctsep.o)
 .note.GNU-stack
                0x000bd9d0        0x0 /usr/lib/gcc-cross/arm-linux-gnueabihf/14/../../../../arm-linux-gnueabihf/lib/libc.a(memchr.o)
 .note.GNU-stack
                0x000bd9d0        0x0 /usr/lib/gcc-cross/arm-linux-gnueabihf/14/../../../../arm-linux-gnueabihf/lib/libc.a(strcasecmp_l.o)
 .note.GNU-stack
                0x000bd9d0        0x0 /usr/lib/gcc-cross/arm-linux-gnueabihf/14/../../../../arm-linux-gnueabihf/lib/libc.a(strcpy.o)
 .note.GNU-stack
                0x000bd9d0        0x0 /usr/lib/gcc-cross/arm-linux-gnueabihf/14/../../../../arm-linux-gnueabihf/lib/libc.a(strcspn.o)
 .note.GNU-stack
                0x000bd9d0        0x0 /usr/lib/gcc-cross/arm-linux-gnueabihf/14/../../../../arm-linux-gnueabihf/lib/libc.a(strtok_r.o)
 .note.GNU-stack
                0x000bd9d0        0x0 /usr/lib/gcc-cross/arm-linux-gnueabihf/14/../../../../arm-linux-gnueabihf/lib/libc.a(memchr_neon.o)
 .note.GNU-stack
                0x000bd9d0        0x0 /usr/lib/gcc-cross/arm-linux-gnueabihf/14/../../../../arm-linux-gnueabihf/lib/libc.a(memchr_noneon.o)
 .note.GNU-stack
                0x000bd9d0        0x0 /usr/lib/gcc-cross/arm-linux-gnueabihf/14/../../../../arm-linux-gnueabihf/lib/libc.a(wcslen.o)
 .note.GNU-stack
                0x000bd9d0        0x0 /usr/lib/gcc-cross/arm-linux-gnueabihf/14/../../../../arm-linux-gnueabihf/lib/libc.a(wcsnlen.o)
 .note.GNU-stack
                0x000bd9d0        0x0 /usr/lib/gcc-cross/arm-linux-gnueabihf/14/../../../../arm-linux-gnueabihf/lib/libc.a(wmemchr.o)
 .note.GNU-stack
                0x000bd9d0        0x0 /usr/lib/gcc-cross/arm-linux-gnueabihf/14/../../../../arm-linux-gnueabihf/lib/libc.a(closedir.o)
 .note.GNU-stack
                0x000bd9d0        0x0 /usr/lib/gcc-cross/arm-linux-gnueabihf/14/../../../../arm-linux-gnueabihf/lib/libc.a(getdents64.o)
 .note.GNU-stack
                0x000bd9d0        0x0 /usr/lib/gcc-cross/arm-linux-gnueabihf/14/../../../../arm-linux-gnueabihf/lib/libc.a(opendir.o)
 .note.GNU-stack
                0x000bd9d0        0x0 /usr/lib/gcc-cross/arm-linux-gnueabihf/14/../../../../arm-linux-gnueabihf/lib/libc.a(readdir64.o)
 .note.GNU-stack
                0x000bd9d0        0x0 /usr/lib/gcc-cross/arm-linux-gnueabihf/14/../../../../arm-linux-gnueabihf/lib/libc.a(execve.o)
 .note.GNU-stack
                0x000bd9d0        0x0 /usr/lib/gcc-cross/arm-linux-gnueabihf/14/../../../../arm-linux-gnueabihf/lib/libc.a(execvpe.o)
 .note.GNU-stack
                0x000bd9d0        0x0 /usr/lib/gcc-cross/arm-linux-gnueabihf/14/../../../../arm-linux-gnueabihf/lib/libc.a(getgid.o)
 .note.GNU-stack
                0x000bd9d0        0x0 /usr/lib/gcc-cross/arm-linux-gnueabihf/14/../../../../arm-linux-gnueabihf/lib/libc.a(getpgid.o)
 .note.GNU-stack
                0x000bd9d0        0x0 /usr/lib/gcc-cross/arm-linux-gnueabihf/14/../../../../arm-linux-gnueabihf/lib/libc.a(getuid.o)
 .note.GNU-stack
                0x000bd9d0        0x0 /usr/lib/gcc-cross/arm-linux-gnueabihf/14/../../../../arm-linux-gnueabihf/lib/libc.a(nanosleep.o)
 .note.GNU-stack
                0x000bd9d0        0x0 /usr/lib/gcc-cross/arm-linux-gnueabihf/14/../../../../arm-linux-gnueabihf/lib/libc.a(sched_cpucount.o)
 .note.GNU-stack
                0x000bd9d0        0x0 /usr/lib/gcc-cross/arm-linux-gnueabihf/14/../../../../arm-linux-gnueabihf/lib/libc.a(sched_getp.o)
 .note.GNU-stack
                0x000bd9d0        0x0 /usr/lib/gcc-cross/arm-linux-gnueabihf/14/../../../../arm-linux-gnueabihf/lib/libc.a(sched_gets.o)
 .note.GNU-stack
                0x000bd9d0        0x0 /usr/lib/gcc-cross/arm-linux-gnueabihf/14/../../../../arm-linux-gnueabihf/lib/libc.a(sched_primax.o)
 .note.GNU-stack
                0x000bd9d0        0x0 /usr/lib/gcc-cross/arm-linux-gnueabihf/14/../../../../arm-linux-gnueabihf/lib/libc.a(sched_primin.o)
 .note.GNU-stack
                0x000bd9d0        0x0 /usr/lib/gcc-cross/arm-linux-gnueabihf/14/../../../../arm-linux-gnueabihf/lib/libc.a(sched_setp.o)
 .note.GNU-stack
                0x000bd9d0        0x0 /usr/lib/gcc-cross/arm-linux-gnueabihf/14/../../../../arm-linux-gnueabihf/lib/libc.a(sched_sets.o)
 .note.GNU-stack
                0x000bd9d0        0x0 /usr/lib/gcc-cross/arm-linux-gnueabihf/14/../../../../arm-linux-gnueabihf/lib/libc.a(setpgid.o)
 .note.GNU-stack
                0x000bd9d0        0x0 /usr/lib/gcc-cross/arm-linux-gnueabihf/14/../../../../arm-linux-gnueabihf/lib/libc.a(setsid.o)
 .note.GNU-stack
                0x000bd9d0        0x0 /usr/lib/gcc-cross/arm-linux-gnueabihf/14/../../../../arm-linux-gnueabihf/lib/libc.a(wait4.o)
 .note.GNU-stack
                0x000bd9d0        0x0 /usr/lib/gcc-cross/arm-linux-gnueabihf/14/../../../../arm-linux-gnueabihf/lib/libc.a(getcwd.o)
 .note.GNU-stack
                0x000bd9d0        0x0 /usr/lib/gcc-cross/arm-linux-gnueabihf/14/../../../../arm-linux-gnueabihf/lib/libc.a(isatty.o)
 .note.GNU-stack
                0x000bd9d0        0x0 /usr/lib/gcc-cross/arm-linux-gnueabihf/14/../../../../arm-linux-gnueabihf/lib/libc.a(lseek.o)
 .note.GNU-stack
                0x000bd9d0        0x0 /usr/lib/gcc-cross/arm-linux-gnueabihf/14/../../../../arm-linux-gnueabihf/lib/libc.a(lstat64.o)
 .note.GNU-stack
                0x000bd9d0        0x0 /usr/lib/gcc-cross/arm-linux-gnueabihf/14/../../../../arm-linux-gnueabihf/lib/libc.a(openat64.o)
 .note.GNU-stack
                0x000bd9d0        0x0 /usr/lib/gcc-cross/arm-linux-gnueabihf/14/../../../../arm-linux-gnueabihf/lib/libc.a(open64_nocancel.o)
 .note.GNU-stack
                0x000bd9d0        0x0 /usr/lib/gcc-cross/arm-linux-gnueabihf/14/../../../../arm-linux-gnueabihf/lib/libc.a(openat_nocancel.o)
 .note.GNU-stack
                0x000bd9d0        0x0 /usr/lib/gcc-cross/arm-linux-gnueabihf/14/../../../../arm-linux-gnueabihf/lib/libc.a(pread64_nocancel.o)
 .note.GNU-stack
                0x000bd9d0        0x0 /usr/lib/gcc-cross/arm-linux-gnueabihf/14/../../../../arm-linux-gnueabihf/lib/libc.a(getrlimit.o)
 .note.GNU-stack
                0x000bd9d0        0x0 /usr/lib/gcc-cross/arm-linux-gnueabihf/14/../../../../arm-linux-gnueabihf/lib/libc.a(tsearch.o)
 .note.GNU-stack
                0x000bd9d0        0x0 /usr/lib/gcc-cross/arm-linux-gnueabihf/14/../../../../arm-linux-gnueabihf/lib/libc.a(init-misc.o)
 .note.GNU-stack
                0x000bd9d0        0x0 /usr/lib/gcc-cross/arm-linux-gnueabihf/14/../../../../arm-linux-gnueabihf/lib/libc.a(clone.o)
 .note.GNU-stack
                0x000bd9d0        0x0 /usr/lib/gcc-cross/arm-linux-gnueabihf/14/../../../../arm-linux-gnueabihf/lib/libc.a(asprintf_chk.o)
 .note.GNU-stack
                0x000bd9d0        0x0 /usr/lib/gcc-cross/arm-linux-gnueabihf/14/../../../../arm-linux-gnueabihf/lib/libc.a(memmove_chk.o)
 .note.GNU-stack
                0x000bd9d0        0x0 /usr/lib/gcc-cross/arm-linux-gnueabihf/14/../../../../arm-linux-gnueabihf/lib/libc.a(dl-catch.o)
 .note.GNU-stack
                0x000bd9d0        0x0 /usr/lib/gcc-cross/arm-linux-gnueabihf/14/../../../../arm-linux-gnueabihf/lib/libc.a(dl-exception.o)
 .note.GNU-stack
                0x000bd9d0        0x0 /usr/lib/gcc-cross/arm-linux-gnueabihf/14/../../../../arm-linux-gnueabihf/lib/libc.a(dl-execstack-tunable.o)
 .note.GNU-stack
                0x000bd9d0        0x0 /usr/lib/gcc-cross/arm-linux-gnueabihf/14/../../../../arm-linux-gnueabihf/lib/libc.a(dl-load.o)
 .note.GNU-stack
                0x000bd9d0        0x0 /usr/lib/gcc-cross/arm-linux-gnueabihf/14/../../../../arm-linux-gnueabihf/lib/libc.a(dl-lookup.o)
 .note.GNU-stack
                0x000bd9d0        0x0 /usr/lib/gcc-cross/arm-linux-gnueabihf/14/../../../../arm-linux-gnueabihf/lib/libc.a(dl-misc.o)
 .note.GNU-stack
                0x000bd9d0        0x0 /usr/lib/gcc-cross/arm-linux-gnueabihf/14/../../../../arm-linux-gnueabihf/lib/libc.a(dl-object.o)
 .note.GNU-stack
                0x000bd9d0        0x0 /usr/lib/gcc-cross/arm-linux-gnueabihf/14/../../../../arm-linux-gnueabihf/lib/libc.a(dl-origin.o)
 .note.GNU-stack
                0x000bd9d0        0x0 /usr/lib/gcc-cross/arm-linux-gnueabihf/14/../../../../arm-linux-gnueabihf/lib/libc.a(dl-printf.o)
 .note.GNU-stack
                0x000bd9d0        0x0 /usr/lib/gcc-cross/arm-linux-gnueabihf/14/../../../../arm-linux-gnueabihf/lib/libc.a(dl-reloc.o)
 .note.GNU-stack
                0x000bd9d0        0x0 /usr/lib/gcc-cross/arm-linux-gnueabihf/14/../../../../arm-linux-gnueabihf/lib/libc.a(dl-scope.o)
 .note.GNU-stack
                0x000bd9d0        0x0 /usr/lib/gcc-cross/arm-linux-gnueabihf/14/../../../../arm-linux-gnueabihf/lib/libc.a(dl-setup_hash.o)
 .note.GNU-stack
                0x000bd9d0        0x0 /usr/lib/gcc-cross/arm-linux-gnueabihf/14/../../../../arm-linux-gnueabihf/lib/libc.a(dl-thread_gscope_wait.o)
 .note.GNU-stack
                0x000bd9d0        0x0 /usr/lib/gcc-cross/arm-linux-gnueabihf/14/../../../../arm-linux-gnueabihf/lib/libc.a(dl-trampoline.o)
 .note.GNU-stack
                0x000bd9d0        0x0 /usr/lib/gcc-cross/arm-linux-gnueabihf/14/../../../../arm-linux-gnueabihf/lib/libc.a(dl-cache.o)
 .note.GNU-stack
                0x000bd9d0        0x0 /usr/lib/gcc-cross/arm-linux-gnueabihf/14/../../../../arm-linux-gnueabihf/lib/libc.a(dl-tlsdesc.o)
 .note.GNU-stack
                0x000bd9d0        0x0 /usr/lib/gcc-cross/arm-linux-gnueabihf/14/../../../../arm-linux-gnueabihf/lib/libc.a(dl-libc.o)
 .note.GNU-stack
                0x000bd9d0        0x0 /usr/lib/gcc-cross/arm-linux-gnueabihf/14/../../../../arm-linux-gnueabihf/lib/libc.a(gconv_open.o)
 .note.GNU-stack
                0x000bd9d0        0x0 /usr/lib/gcc-cross/arm-linux-gnueabihf/14/../../../../arm-linux-gnueabihf/lib/libc.a(gconv.o)
 .note.GNU-stack
                0x000bd9d0        0x0 /usr/lib/gcc-cross/arm-linux-gnueabihf/14/../../../../arm-linux-gnueabihf/lib/libc.a(gconv_close.o)
 .note.GNU-stack
                0x000bd9d0        0x0 /usr/lib/gcc-cross/arm-linux-gnueabihf/14/../../../../arm-linux-gnueabihf/lib/libc.a(gconv_charset.o)
 .note.GNU-stack
                0x000bd9d0        0x0 /usr/lib/gcc-cross/arm-linux-gnueabihf/14/../../../../arm-linux-gnueabihf/lib/libc.a(findlocale.o)
 .note.GNU-stack
                0x000bd9d0        0x0 /usr/lib/gcc-cross/arm-linux-gnueabihf/14/../../../../arm-linux-gnueabihf/lib/libc.a(loadarchive.o)
 .note.GNU-stack
                0x000bd9d0        0x0 /usr/lib/gcc-cross/arm-linux-gnueabihf/14/../../../../arm-linux-gnueabihf/lib/libc.a(loadlocale.o)
 .note.GNU-stack
                0x000bd9d0        0x0 /usr/lib/gcc-cross/arm-linux-gnueabihf/14/../../../../arm-linux-gnueabihf/lib/libc.a(C-address.o)
 .note.GNU-stack
                0x000bd9d0        0x0 /usr/lib/gcc-cross/arm-linux-gnueabihf/14/../../../../arm-linux-gnueabihf/lib/libc.a(C-collate.o)
 .note.GNU-stack
                0x000bd9d0        0x0 /usr/lib/gcc-cross/arm-linux-gnueabihf/14/../../../../arm-linux-gnueabihf/lib/libc.a(C-ctype.o)
 .note.GNU-stack
                0x000bd9d0        0x0 /usr/lib/gcc-cross/arm-linux-gnueabihf/14/../../../../arm-linux-gnueabihf/lib/libc.a(C-identification.o)
 .note.GNU-stack
                0x000bd9d0        0x0 /usr/lib/gcc-cross/arm-linux-gnueabihf/14/../../../../arm-linux-gnueabihf/lib/libc.a(C-measurement.o)
 .note.GNU-stack
                0x000bd9d0        0x0 /usr/lib/gcc-cross/arm-linux-gnueabihf/14/../../../../arm-linux-gnueabihf/lib/libc.a(C-messages.o)
 .note.GNU-stack
                0x000bd9d0        0x0 /usr/lib/gcc-cross/arm-linux-gnueabihf/14/../../../../arm-linux-gnueabihf/lib/libc.a(C-monetary.o)
 .note.GNU-stack
                0x000bd9d0        0x0 /usr/lib/gcc-cross/arm-linux-gnueabihf/14/../../../../arm-linux-gnueabihf/lib/libc.a(C-name.o)
 .note.GNU-stack
                0x000bd9d0        0x0 /usr/lib/gcc-cross/arm-linux-gnueabihf/14/../../../../arm-linux-gnueabihf/lib/libc.a(C-numeric.o)
 .note.GNU-stack
                0x000bd9d0        0x0 /usr/lib/gcc-cross/arm-linux-gnueabihf/14/../../../../arm-linux-gnueabihf/lib/libc.a(C-paper.o)
 .note.GNU-stack
                0x000bd9d0        0x0 /usr/lib/gcc-cross/arm-linux-gnueabihf/14/../../../../arm-linux-gnueabihf/lib/libc.a(C-telephone.o)
 .note.GNU-stack
                0x000bd9d0        0x0 /usr/lib/gcc-cross/arm-linux-gnueabihf/14/../../../../arm-linux-gnueabihf/lib/libc.a(C-time.o)
 .note.GNU-stack
                0x000bd9d0        0x0 /usr/lib/gcc-cross/arm-linux-gnueabihf/14/../../../../arm-linux-gnueabihf/lib/libc.a(localename.o)
 .note.GNU-stack
                0x000bd9d0        0x0 /usr/lib/gcc-cross/arm-linux-gnueabihf/14/../../../../arm-linux-gnueabihf/lib/libc.a(__longjmp.o)
 .note.GNU-stack
                0x000bd9d0        0x0 /usr/lib/gcc-cross/arm-linux-gnueabihf/14/../../../../arm-linux-gnueabihf/lib/libc.a(divrem.o)
 .note.GNU-stack
                0x000bd9d0        0x0 /usr/lib/gcc-cross/arm-linux-gnueabihf/14/../../../../arm-linux-gnueabihf/lib/libc.a(dbl2mpn.o)
 .note.GNU-stack
                0x000bd9d0        0x0 /usr/lib/gcc-cross/arm-linux-gnueabihf/14/../../../../arm-linux-gnueabihf/lib/libc.a(printf_buffer_as_file.o)
 .note.GNU-stack
                0x000bd9d0        0x0 /usr/lib/gcc-cross/arm-linux-gnueabihf/14/../../../../arm-linux-gnueabihf/lib/libc.a(printf_buffer_flush.o)
 .note.GNU-stack
                0x000bd9d0        0x0 /usr/lib/gcc-cross/arm-linux-gnueabihf/14/../../../../arm-linux-gnueabihf/lib/libc.a(wprintf_buffer_done.o)
 .note.GNU-stack
                0x000bd9d0        0x0 /usr/lib/gcc-cross/arm-linux-gnueabihf/14/../../../../arm-linux-gnueabihf/lib/libc.a(wprintf_buffer_flush.o)
 .note.GNU-stack
                0x000bd9d0        0x0 /usr/lib/gcc-cross/arm-linux-gnueabihf/14/../../../../arm-linux-gnueabihf/lib/libc.a(iogetline.o)
 .note.GNU-stack
                0x000bd9d0        0x0 /usr/lib/gcc-cross/arm-linux-gnueabihf/14/../../../../arm-linux-gnueabihf/lib/libc.a(vasprintf.o)
 .note.GNU-stack
                0x000bd9d0        0x0 /usr/lib/gcc-cross/arm-linux-gnueabihf/14/../../../../arm-linux-gnueabihf/lib/libc.a(cleanup_compat.o)
 .note.GNU-stack
                0x000bd9d0        0x0 /usr/lib/gcc-cross/arm-linux-gnueabihf/14/../../../../arm-linux-gnueabihf/lib/libc.a(nptl-stack.o)
 .note.GNU-stack
                0x000bd9d0        0x0 /usr/lib/gcc-cross/arm-linux-gnueabihf/14/../../../../arm-linux-gnueabihf/lib/libc.a(memmem.o)
 .note.GNU-stack
                0x000bd9d0        0x0 /usr/lib/gcc-cross/arm-linux-gnueabihf/14/../../../../arm-linux-gnueabihf/lib/libc.a(strndup.o)
 .note.GNU-stack
                0x000bd9d0        0x0 /usr/lib/gcc-cross/arm-linux-gnueabihf/14/../../../../arm-linux-gnueabihf/lib/libc.a(strsep.o)
 .note.GNU-stack
                0x000bd9d0        0x0 /usr/lib/gcc-cross/arm-linux-gnueabihf/14/../../../../arm-linux-gnueabihf/lib/libc.a(strspn.o)
 .note.GNU-stack
                0x000bd9d0        0x0 /usr/lib/gcc-cross/arm-linux-gnueabihf/14/../../../../arm-linux-gnueabihf/lib/libc.a(clock_nanosleep.o)
 .note.GNU-stack
                0x000bd9d0        0x0 /usr/lib/gcc-cross/arm-linux-gnueabihf/14/../../../../arm-linux-gnueabihf/lib/libc.a(lc-time-cleanup.o)
 .note.GNU-stack
                0x000bd9d0        0x0 /usr/lib/gcc-cross/arm-linux-gnueabihf/14/../../../../arm-linux-gnueabihf/lib/libc.a(fdopendir.o)
 .note.GNU-stack
                0x000bd9d0        0x0 /usr/lib/gcc-cross/arm-linux-gnueabihf/14/../../../../arm-linux-gnueabihf/lib/libc.a(rewinddir.o)
 .note.GNU-stack
                0x000bd9d0        0x0 /usr/lib/gcc-cross/arm-linux-gnueabihf/14/../../../../arm-linux-gnueabihf/lib/libc.a(sysconf.o)
 .note.GNU-stack
                0x000bd9d0        0x0 /usr/lib/gcc-cross/arm-linux-gnueabihf/14/../../../../arm-linux-gnueabihf/lib/libc.a(stat64.o)
 .note.GNU-stack
                0x000bd9d0        0x0 /usr/lib/gcc-cross/arm-linux-gnueabihf/14/../../../../arm-linux-gnueabihf/lib/libc.a(getclktck.o)
 .note.GNU-stack
                0x000bd9d0        0x0 /usr/lib/gcc-cross/arm-linux-gnueabihf/14/../../../../arm-linux-gnueabihf/lib/libc.a(getdtsz.o)
 .note.GNU-stack
                0x000bd9d0        0x0 /usr/lib/gcc-cross/arm-linux-gnueabihf/14/../../../../arm-linux-gnueabihf/lib/libc.a(dl-close.o)
 .note.GNU-stack
                0x000bd9d0        0x0 /usr/lib/gcc-cross/arm-linux-gnueabihf/14/../../../../arm-linux-gnueabihf/lib/libc.a(dl-execstack.o)
 .note.GNU-stack
                0x000bd9d0        0x0 /usr/lib/gcc-cross/arm-linux-gnueabihf/14/../../../../arm-linux-gnueabihf/lib/libc.a(dl-open.o)
 .note.GNU-stack
                0x000bd9d0        0x0 /usr/lib/gcc-cross/arm-linux-gnueabihf/14/../../../../arm-linux-gnueabihf/lib/libc.a(dl-runtime.o)
 .note.GNU-stack
                0x000bd9d0        0x0 /usr/lib/gcc-cross/arm-linux-gnueabihf/14/../../../../arm-linux-gnueabihf/lib/libc.a(dl-sort-maps.o)
 .note.GNU-stack
                0x000bd9d0        0x0 /usr/lib/gcc-cross/arm-linux-gnueabihf/14/../../../../arm-linux-gnueabihf/lib/libc.a(dl-version.o)
 .note.GNU-stack
                0x000bd9d0        0x0 /usr/lib/gcc-cross/arm-linux-gnueabihf/14/../../../../arm-linux-gnueabihf/lib/libc.a(tlsdesc.o)
 .note.GNU-stack
                0x000bd9d0        0x0 /usr/lib/gcc-cross/arm-linux-gnueabihf/14/../../../../arm-linux-gnueabihf/lib/libc.a(dl-addr-obj.o)
 .note.GNU-stack
                0x000bd9d0        0x0 /usr/lib/gcc-cross/arm-linux-gnueabihf/14/../../../../arm-linux-gnueabihf/lib/libc.a(dl-find_object.o)
 .note.GNU-stack
                0x000bd9d0        0x0 /usr/lib/gcc-cross/arm-linux-gnueabihf/14/../../../../arm-linux-gnueabihf/lib/libc.a(rtld_static_init.o)
 .note.GNU-stack
                0x000bd9d0        0x0 /usr/lib/gcc-cross/arm-linux-gnueabihf/14/../../../../arm-linux-gnueabihf/lib/libc.a(dladdr.o)
 .note.GNU-stack
                0x000bd9d0        0x0 /usr/lib/gcc-cross/arm-linux-gnueabihf/14/../../../../arm-linux-gnueabihf/lib/libc.a(dladdr1.o)
 .note.GNU-stack
                0x000bd9d0        0x0 /usr/lib/gcc-cross/arm-linux-gnueabihf/14/../../../../arm-linux-gnueabihf/lib/libc.a(dlclose.o)
 .note.GNU-stack
                0x000bd9d0        0x0 /usr/lib/gcc-cross/arm-linux-gnueabihf/14/../../../../arm-linux-gnueabihf/lib/libc.a(dlerror.o)
 .note.GNU-stack
                0x000bd9d0        0x0 /usr/lib/gcc-cross/arm-linux-gnueabihf/14/../../../../arm-linux-gnueabihf/lib/libc.a(dlinfo.o)
 .note.GNU-stack
                0x000bd9d0        0x0 /usr/lib/gcc-cross/arm-linux-gnueabihf/14/../../../../arm-linux-gnueabihf/lib/libc.a(dlmopen.o)
 .note.GNU-stack
                0x000bd9d0        0x0 /usr/lib/gcc-cross/arm-linux-gnueabihf/14/../../../../arm-linux-gnueabihf/lib/libc.a(dlopen.o)
 .note.GNU-stack
                0x000bd9d0        0x0 /usr/lib/gcc-cross/arm-linux-gnueabihf/14/../../../../arm-linux-gnueabihf/lib/libc.a(dlsym.o)
 .note.GNU-stack
                0x000bd9d0        0x0 /usr/lib/gcc-cross/arm-linux-gnueabihf/14/../../../../arm-linux-gnueabihf/lib/libc.a(dlvsym.o)
 .note.GNU-stack
                0x000bd9d0        0x0 /usr/lib/gcc-cross/arm-linux-gnueabihf/14/../../../../arm-linux-gnueabihf/lib/libc.a(libc_dlerror_result.o)
 .note.GNU-stack
                0x000bd9d0        0x0 /usr/lib/gcc-cross/arm-linux-gnueabihf/14/../../../../arm-linux-gnueabihf/lib/libc.a(get_child_max.o)
 .note.GNU-stack
                0x000bd9d0        0x0 /usr/lib/gcc-cross/arm-linux-gnueabihf/14/../../../../arm-linux-gnueabihf/lib/libc.a(atomic_wide_counter.o)
 .note.GNU-stack
                0x000bd9d0        0x0 /usr/lib/gcc-cross/arm-linux-gnueabihf/14/../../../../arm-linux-gnueabihf/lib/libc.a(dl-call-libc-early-init.o)
 .note.GNU-stack
                0x000bd9d0        0x0 /usr/lib/gcc-cross/arm-linux-gnueabihf/14/../../../../arm-linux-gnueabihf/lib/libc.a(dl-call_fini.o)
 .note.GNU-stack
                0x000bd9d0        0x0 /usr/lib/gcc-cross/arm-linux-gnueabihf/14/../../../../arm-linux-gnueabihf/lib/libc.a(dl-deps.o)
 .note.GNU-stack
                0x000bd9d0        0x0 /usr/lib/gcc-cross/arm-linux-gnueabihf/14/../../../../arm-linux-gnueabihf/lib/libc.a(dl-init.o)
 .note.GNU-stack
                0x000bd9d0        0x0 /usr/lib/gcc-cross/arm-linux-gnueabihf/14/../../../../arm-linux-gnueabihf/lib/libc.a(dl-lookup-direct.o)
 .note.GNU-stack
                0x000bd9d0        0x0 /usr/lib/gcc-cross/arm-linux-gnueabihf/14/../../../../arm-linux-gnueabihf/lib/libc.a(dl-addr.o)
 .note.GNU-stack
                0x000bd9d0        0x0 /usr/lib/gcc-cross/arm-linux-gnueabihf/14/../../../../arm-linux-gnueabihf/lib/libc.a(dl-sym.o)
 .note.GNU-stack
                0x000bd9d0        0x0 /usr/lib/gcc-cross/arm-linux-gnueabihf/14/../../../../arm-linux-gnueabihf/lib/libc.a(asprintf.o)
 .note.GNU-stack
                0x000bd9d0        0x0 /usr/lib/gcc-cross/arm-linux-gnueabihf/14/libgcc.a(_udivsi3.o)
 .note.GNU-stack
                0x000bd9d0        0x0 /usr/lib/gcc-cross/arm-linux-gnueabihf/14/libgcc.a(_divsi3.o)
 .note.GNU-stack
                0x000bd9d0        0x0 /usr/lib/gcc-cross/arm-linux-gnueabihf/14/libgcc.a(_aeabi_ldivmod.o)
 .note.GNU-stack
                0x000bd9d0        0x0 /usr/lib/gcc-cross/arm-linux-gnueabihf/14/libgcc.a(_dvmd_lnx.o)
 .note.GNU-stack
                0x000bd9d0        0x0 /usr/lib/gcc-cross/arm-linux-gnueabihf/14/libgcc.a(_udivmoddi4.o)
 .note.GNU-stack
                0x000bd9d0        0x0 /usr/lib/gcc-cross/arm-linux-gnueabihf/14/libgcc_eh.a(unwind-arm.o)
 .note.GNU-stack
                0x000bd9d0        0x0 /usr/lib/gcc-cross/arm-linux-gnueabihf/14/libgcc_eh.a(libunwind.o)
 .note.GNU-stack
                0x000bd9d0        0x0 /usr/lib/gcc-cross/arm-linux-gnueabihf/14/libgcc_eh.a(pr-support.o)
 .note.GNU-stack
                0x000bd9d0        0x0 /usr/lib/gcc-cross/arm-linux-gnueabihf/14/libgcc_eh.a(unwind-c.o)
 .note.GNU-stack
                0x000bd9d0        0x0 /usr/lib/gcc-cross/arm-linux-gnueabihf/14/crtend.o
 .note.GNU-stack
                0x000bd9d0        0x0 /usr/lib/gcc-cross/arm-linux-gnueabihf/14/../../../../arm-linux-gnueabihf/lib/crtn.o

.note.gnu-property
 *(.note.gnu-property)

.note.ABI-tag   0x000bd9d0       0x20
 *(.note.ABI-tag)
 .note.ABI-tag  0x000bd9d0       0x20 /usr/lib/gcc-cross/arm-linux-gnueabihf/14/../../../../arm-linux-gnueabihf/lib/crt1.o

.note.package   0x000bd9f0       0x74
 *(.note.package)
 .note.package  0x000bd9f0       0x74 /usr/lib/gcc-cross/arm-linux-gnueabihf/14/../../../../arm-linux-gnueabihf/lib/crt1.o

.note.dlopen
 *(.note.dlopen)

.note.netbsd.ident
 *(.note.netbsd.ident)

.note.openbsd.ident
 *(.note.openbsd.ident)
                0x000cdc40                        . = DATA_SEGMENT_ALIGN (CONSTANT (MAXPAGESIZE), CONSTANT (COMMONPAGESIZE))

.eh_frame
 *(.eh_frame)
 *(.eh_frame.*)

.sframe
 *(.sframe)
 *(.sframe.*)

.gnu_extab
 *(.gnu_extab)

.gcc_except_table
 *(.gcc_except_table .gcc_except_table.*)

.exception_ranges
 *(.exception_ranges*)

.tdata          0x000cdc40        0xc
                [!provide]                        PROVIDE (__tdata_start = .)
 *(.tdata .tdata.* .gnu.linkonce.td.*)
 .tdata         0x000cdc40        0x4 /usr/lib/gcc-cross/arm-linux-gnueabihf/14/../../../../arm-linux-gnueabihf/lib/libc.a(lc-ctype.o)
                0x000cdc40                _nl_current_LC_CTYPE
 .tdata         0x000cdc44        0x4 /usr/lib/gcc-cross/arm-linux-gnueabihf/14/../../../../arm-linux-gnueabihf/lib/libc.a(lc-numeric.o)
                0x000cdc44                _nl_current_LC_NUMERIC
 .tdata         0x000cdc48        0x4 /usr/lib/gcc-cross/arm-linux-gnueabihf/14/../../../../arm-linux-gnueabihf/lib/libc.a(global-locale.o)
                0x000cdc48                __libc_tsd_LOCALE

.tbss           0x000cdc4c       0x20
 *(.tbss .tbss.* .gnu.linkonce.tb.*)
 .tbss          0x000cdc4c        0xc /usr/lib/gcc-cross/arm-linux-gnueabihf/14/../../../../arm-linux-gnueabihf/lib/libc.a(ctype-info.o)
                0x000cdc4c                __libc_tsd_CTYPE_B
                0x000cdc50                __libc_tsd_CTYPE_TOUPPER
                0x000cdc54                __libc_tsd_CTYPE_TOLOWER
 .tbss          0x000cdc58        0x9 /usr/lib/gcc-cross/arm-linux-gnueabihf/14/../../../../arm-linux-gnueabihf/lib/libc.a(malloc.o)
 *fill*         0x000cdc61        0x3 
 .tbss          0x000cdc64        0x4 /usr/lib/gcc-cross/arm-linux-gnueabihf/14/../../../../arm-linux-gnueabihf/lib/libc.a(errno.o)
                0x000cdc64                errno
                0x000cdc64                __libc_errno
 .tbss          0x000cdc68        0x4 /usr/lib/gcc-cross/arm-linux-gnueabihf/14/../../../../arm-linux-gnueabihf/lib/libc.a(libc_dlerror_result.o)
                0x000cdc68                __libc_dlerror_result
 *(.tcommon)

.preinit_array  0x000cdc4c        0x0
                0x000cdc4c                        PROVIDE (__preinit_array_start = .)
 *(.preinit_array)
                0x000cdc4c                        PROVIDE (__preinit_array_end = .)

.init_array     0x000cdc4c        0x8
                0x000cdc4c                        PROVIDE (__init_array_start = .)
 *(SORT_BY_INIT_PRIORITY(.init_array.*) SORT_BY_INIT_PRIORITY(.ctors.*))
 *(.init_array EXCLUDE_FILE(*crtend?.o *crtend.o *crtbegin?.o *crtbegin.o) .ctors)
 .init_array    0x000cdc4c        0x4 /usr/lib/gcc-cross/arm-linux-gnueabihf/14/crtbeginT.o
 .init_array    0x000cdc50        0x4 /usr/lib/gcc-cross/arm-linux-gnueabihf/14/../../../../arm-linux-gnueabihf/lib/libc.a(stdfiles.o)
                0x000cdc54                        PROVIDE (__init_array_end = .)

.fini_array     0x000cdc54        0x4
                0x000cdc54                        PROVIDE (__fini_array_start = .)
 *(SORT_BY_INIT_PRIORITY(.fini_array.*) SORT_BY_INIT_PRIORITY(.dtors.*))
 *(.fini_array EXCLUDE_FILE(*crtend?.o *crtend.o *crtbegin?.o *crtbegin.o) .dtors)
 .fini_array    0x000cdc54        0x4 /usr/lib/gcc-cross/arm-linux-gnueabihf/14/crtbeginT.o
                0x000cdc58                        PROVIDE (__fini_array_end = .)

.ctors
 *crtbegin.o(.ctors)
 *crtbegin?.o(.ctors)
 *(EXCLUDE_FILE(*crtend?.o *crtend.o) .ctors)
 *(SORT_BY_NAME(.ctors.*))
 *(.ctors)

.dtors
 *crtbegin.o(.dtors)
 *crtbegin?.o(.dtors)
 *(EXCLUDE_FILE(*crtend?.o *crtend.o) .dtors)
 *(SORT_BY_NAME(.dtors.*))
 *(.dtors)

.jcr
 *(.jcr)

.data.rel.ro    0x000cdc58     0x23a4
 *(.data.rel.ro.local* .gnu.linkonce.d.rel.ro.local.*)
 .data.rel.ro.local
                0x000cdc58       0xe0 build/d_iwad.o
 .data.rel.ro.local
                0x000cdd38       0x18 build/d_main.o
 .data.rel.ro.local
                0x000cdd50       0x20 build/w_wad.o
 .data.rel.ro.local
                0x000cdd70      0x380 /usr/lib/gcc-cross/arm-linux-gnueabihf/14/../../../../arm-linux-gnueabihf/lib/libc.a(vfprintf-internal.o)
 .data.rel.ro.local
                0x000ce0f0       0x10 /usr/lib/gcc-cross/arm-linux-gnueabihf/14/../../../../arm-linux-gnueabihf/lib/libc.a(wcsmbsload.o)
                0x000ce0f0                __wcsmbs_gconv_fcts_c
 .data.rel.ro.local
                0x000ce100       0x10 /usr/lib/gcc-cross/arm-linux-gnueabihf/14/../../../../arm-linux-gnueabihf/lib/libc.a(dl-support.o)
 .data.rel.ro.local
                0x000ce110       0x14 /usr/lib/gcc-cross/arm-linux-gnueabihf/14/../../../../arm-linux-gnueabihf/lib/libc.a(plural-exp.o)
                0x000ce110                __gettext_germanic_plural
 .data.rel.ro.local
                0x000ce124      0x218 /usr/lib/gcc-cross/arm-linux-gnueabihf/14/../../../../arm-linux-gnueabihf/lib/libc.a(errlist-data.o)
                0x000ce124                _sys_errlist_internal
 .data.rel.ro.local
                0x000ce33c       0x54 /usr/lib/gcc-cross/arm-linux-gnueabihf/14/../../../../arm-linux-gnueabihf/lib/libc.a(C-address.o)
                0x000ce33c                _nl_C_LC_ADDRESS
 .data.rel.ro.local
                0x000ce390       0x6c /usr/lib/gcc-cross/arm-linux-gnueabihf/14/../../../../arm-linux-gnueabihf/lib/libc.a(C-collate.o)
                0x000ce390                _nl_C_LC_COLLATE
 .data.rel.ro.local
                0x000ce3fc      0x188 /usr/lib/gcc-cross/arm-linux-gnueabihf/14/../../../../arm-linux-gnueabihf/lib/libc.a(C-ctype.o)
                0x000ce3fc                _nl_C_LC_CTYPE
 .data.rel.ro.local
                0x000ce584       0x60 /usr/lib/gcc-cross/arm-linux-gnueabihf/14/../../../../arm-linux-gnueabihf/lib/libc.a(C-identification.o)
                0x000ce584                _nl_C_LC_IDENTIFICATION
 .data.rel.ro.local
                0x000ce5e4       0x28 /usr/lib/gcc-cross/arm-linux-gnueabihf/14/../../../../arm-linux-gnueabihf/lib/libc.a(C-measurement.o)
                0x000ce5e4                _nl_C_LC_MEASUREMENT
 .data.rel.ro.local
                0x000ce60c       0x34 /usr/lib/gcc-cross/arm-linux-gnueabihf/14/../../../../arm-linux-gnueabihf/lib/libc.a(C-messages.o)
                0x000ce60c                _nl_C_LC_MESSAGES
 .data.rel.ro.local
                0x000ce640       0xd8 /usr/lib/gcc-cross/arm-linux-gnueabihf/14/../../../../arm-linux-gnueabihf/lib/libc.a(C-monetary.o)
                0x000ce640                _nl_C_LC_MONETARY
 .data.rel.ro.local
                0x000ce718       0x3c /usr/lib/gcc-cross/arm-linux-gnueabihf/14/../../../../arm-linux-gnueabihf/lib/libc.a(C-name.o)
                0x000ce718                _nl_C_LC_NAME
 .data.rel.ro.local
                0x000ce754       0x38 /usr/lib/gcc-cross/arm-linux-gnueabihf/14/../../../../arm-linux-gnueabihf/lib/libc.a(C-numeric.o)
                0x000ce754                _nl_C_LC_NUMERIC
 .data.rel.ro.local
                0x000ce78c       0x2c /usr/lib/gcc-cross/arm-linux-gnueabihf/14/../../../../arm-linux-gnueabihf/lib/libc.a(C-paper.o)
                0x000ce78c                _nl_C_LC_PAPER
 .data.rel.ro.local
                0x000ce7b8       0x34 /usr/lib/gcc-cross/arm-linux-gnueabihf/14/../../../../arm-linux-gnueabihf/lib/libc.a(C-telephone.o)
                0x000ce7b8                _nl_C_LC_TELEPHONE
 .data.rel.ro.local
                0x000ce7ec      0x29c /usr/lib/gcc-cross/arm-linux-gnueabihf/14/../../../../arm-linux-gnueabihf/lib/libc.a(C-time.o)
                0x000ce7ec                _nl_C_LC_TIME
 *(.data.rel.ro .data.rel.ro.* .gnu.linkonce.d.rel.ro.*)
 .data.rel.ro   0x000cea88        0x8 /usr/lib/gcc-cross/arm-linux-gnueabihf/14/../../../../arm-linux-gnueabihf/lib/libc.a(libc-start.o)
                0x000cea88                __stack_chk_guard
                0x000cea8c                __pointer_chk_guard_local
 .data.rel.ro   0x000cea90      0x498 /usr/lib/gcc-cross/arm-linux-gnueabihf/14/../../../../arm-linux-gnueabihf/lib/libc.a(vtables.o)
                0x000cea90                __io_vtables
                0x000ceb38                _IO_file_jumps
                0x000cec34                _IO_wfile_jumps
 .data.rel.ro   0x000cef28       0x78 /usr/lib/gcc-cross/arm-linux-gnueabihf/14/../../../../arm-linux-gnueabihf/lib/libc.a(wcsmbsload.o)
 .data.rel.ro   0x000cefa0        0x4 /usr/lib/gcc-cross/arm-linux-gnueabihf/14/../../../../arm-linux-gnueabihf/lib/libc.a(dl-tls.o)
                0x000cefa0                _dl_tls_initial_modid_limit
 *fill*         0x000cefa4        0x4 
 .data.rel.ro   0x000cefa8      0xe00 /usr/lib/gcc-cross/arm-linux-gnueabihf/14/../../../../arm-linux-gnueabihf/lib/libc.a(dl-tunables.o)
 .data.rel.ro   0x000cfda8        0x8 /usr/lib/gcc-cross/arm-linux-gnueabihf/14/../../../../arm-linux-gnueabihf/lib/libc.a(dl-rseq-symbols.o)
                0x000cfda8                __GI___rseq_size
                0x000cfda8                _rseq_size
                0x000cfda8                __rseq_size
                0x000cfdac                __rseq_offset
                0x000cfdac                __GI___rseq_offset
                0x000cfdac                _rseq_offset
 .data.rel.ro   0x000cfdb0       0x18 /usr/lib/gcc-cross/arm-linux-gnueabihf/14/../../../../arm-linux-gnueabihf/lib/libc.a(dl-support.o)
                0x000cfdb0                _dl_random
                0x000cfdb4                _dl_vdso_clock_gettime
                0x000cfdb8                _dl_vdso_clock_gettime64
                0x000cfdbc                _dl_vdso_gettimeofday
                0x000cfdc0                _dl_argv
                0x000cfdc4                __libc_stack_end
 .data.rel.ro   0x000cfdc8       0xc0 /usr/lib/gcc-cross/arm-linux-gnueabihf/14/../../../../arm-linux-gnueabihf/lib/libc.a(gconv_builtin.o)
 .data.rel.ro   0x000cfe88       0x68 /usr/lib/gcc-cross/arm-linux-gnueabihf/14/../../../../arm-linux-gnueabihf/lib/libc.a(setlocale.o)
 .data.rel.ro   0x000cfef0       0x74 /usr/lib/gcc-cross/arm-linux-gnueabihf/14/../../../../arm-linux-gnueabihf/lib/libc.a(xlocale.o)
                0x000cfef0                _nl_C_locobj
 .data.rel.ro   0x000cff64       0x10 /usr/lib/gcc-cross/arm-linux-gnueabihf/14/../../../../arm-linux-gnueabihf/lib/libc.a(dl-load.o)
                0x000cff64                __rtld_env_path_list
                0x000cff6c                __rtld_search_dirs
 .data.rel.ro   0x000cff74       0x34 /usr/lib/gcc-cross/arm-linux-gnueabihf/14/../../../../arm-linux-gnueabihf/lib/libc.a(findlocale.o)
                0x000cff74                _nl_C
 .data.rel.ro   0x000cffa8       0x20 /usr/lib/gcc-cross/arm-linux-gnueabihf/14/../../../../arm-linux-gnueabihf/lib/libc.a(dl-find_object.o)
 .data.rel.ro   0x000cffc8       0x34 /usr/lib/gcc-cross/arm-linux-gnueabihf/14/../../../../arm-linux-gnueabihf/lib/libc.a(rtld_static_init.o)

.dynamic
 *(.dynamic)
                0x000d0000                        . = DATA_SEGMENT_RELRO_END (., 0x0)

.got            0x000d0000      0x758
 *(.got.plt)
 .got.plt       0x000d0000        0xc /usr/lib/gcc-cross/arm-linux-gnueabihf/14/../../../../arm-linux-gnueabihf/lib/crt1.o
                0x000d0000                _GLOBAL_OFFSET_TABLE_
 *(.igot.plt)
 .igot.plt      0x000d000c        0x8 /usr/lib/gcc-cross/arm-linux-gnueabihf/14/../../../../arm-linux-gnueabihf/lib/crt1.o
 *(.got)
 .got           0x000d0014      0x744 /usr/lib/gcc-cross/arm-linux-gnueabihf/14/../../../../arm-linux-gnueabihf/lib/crt1.o
 *(.igot)

.data           0x000d0758     0xfd20
                [!provide]                        PROVIDE (__data_start = .)
 *(.data .data.* .gnu.linkonce.d.*)
 .data          0x000d0758        0x4 /usr/lib/gcc-cross/arm-linux-gnueabihf/14/../../../../arm-linux-gnueabihf/lib/crt1.o
                0x000d0758                data_start
                0x000d0758                __data_start
 .data          0x000d075c        0x0 /usr/lib/gcc-cross/arm-linux-gnueabihf/14/../../../../arm-linux-gnueabihf/lib/crti.o
 .data          0x000d075c        0x4 /usr/lib/gcc-cross/arm-linux-gnueabihf/14/crtbeginT.o
                0x000d075c                __dso_handle
 .data          0x000d0760        0xc build/i_video_fbdev.o
                0x000d0760                fb_scaling
                0x000d0764                mouse_acceleration
                0x000d0768                mouse_threshold
 .data          0x000d076c       0x1c build/i_input_tty.o
                0x000d076c                vanilla_keyboard_mapping
 .data          0x000d0788        0x0 build/i_main.o
 .data          0x000d0788        0x0 build/dummy.o
 .data          0x000d0788      0x27c build/am_map.o
                0x000d0788                player_arrow
                0x000d07f8                cheat_player_arrow
                0x000d08f8                triangle_guy
                0x000d0928                thintriangle_guy
                0x000d096c                cheat_amap
 .data          0x000d0a04        0x0 build/doomdef.o
 .data          0x000d0a04        0x8 build/doomstat.o
                0x000d0a04                gamemode
                0x000d0a08                gameversion
 .data          0x000d0a0c        0x0 build/dstrings.o
 .data.rel.local
                0x000d0a0c       0x40 build/dstrings.o
                0x000d0a0c                doom1_endmsg
                0x000d0a2c                doom2_endmsg
 .data          0x000d0a4c        0x0 build/d_event.o
 .data          0x000d0a4c       0xd8 build/d_items.o
                0x000d0a4c                weaponinfo
 .data          0x000d0b24        0x0 build/d_iwad.o
 .data          0x000d0b24        0x4 build/d_loop.o
 .data          0x000d0b28        0xc build/d_main.o
                0x000d0b28                show_endoom
                0x000d0b2c                wipegamestate
 .data.rel.local
                0x000d0b34       0xa0 build/d_main.o
 .data          0x000d0bd4      0x120 build/d_mode.o
 .data          0x000d0cf4        0x0 build/d_net.o
 .data.rel      0x000d0cf4       0x10 build/d_net.o
 .data          0x000d0d04        0x0 build/f_finale.o
 .data.rel.local
                0x000d0d04      0x248 build/f_finale.o
                0x000d0ebc                castorder
 .data          0x000d0f4c        0x0 build/f_wipe.o
 .data.rel.local
                0x000d0f4c       0x18 build/f_wipe.o
 .data          0x000d0f64      0x148 build/g_game.o
                0x000d0f64                precache
                0x000d0f68                forwardmove
                0x000d0f70                sidemove
                0x000d0f78                angleturn
                0x000d0f84                vanilla_savegame_limit
                0x000d0f88                vanilla_demo_limit
                0x000d0f8c                pars
                0x000d102c                cpars
 .data.rel      0x000d10ac       0x20 build/g_game.o
 .data.rel.local
                0x000d10cc        0x8 build/g_game.o
 .data          0x000d10d4        0x0 build/hu_lib.o
 .data          0x000d10d4        0x0 build/hu_stuff.o
 .data.rel.local
                0x000d10d4      0x26c build/hu_stuff.o
                0x000d10d4                chat_macros
                0x000d10fc                player_names
                0x000d110c                mapnames
                0x000d11c0                mapnames_commercial
 .data          0x000d1340     0x313c build/info.o
                0x000d1340                mobjinfo
 .data.rel.local
                0x000d447c      0x22c build/info.o
                0x000d447c                sprnames
 .data.rel      0x000d46a8     0x69c4 build/info.o
                0x000d46a8                states
 .data          0x000db06c        0x0 build/i_cdmus.o
 .data          0x000db06c        0x0 build/i_endoom.o
 .data          0x000db06c       0x34 build/i_joystick.o
 .data          0x000db0a0        0x0 build/i_scale.o
 .data.rel.local
                0x000db0a0      0x12c build/i_scale.o
                0x000db0a0                mode_scale_1x
                0x000db0b4                mode_scale_2x
                0x000db0c8                mode_scale_3x
                0x000db0dc                mode_scale_4x
                0x000db0f0                mode_scale_5x
                0x000db104                mode_stretch_1x
                0x000db118                mode_stretch_2x
                0x000db12c                mode_stretch_3x
                0x000db140                mode_stretch_4x
                0x000db154                mode_stretch_5x
                0x000db168                mode_squash_1x
                0x000db17c                mode_squash_2x
                0x000db190                mode_squash_3x
                0x000db1a4                mode_squash_4x
                0x000db1b8                mode_squash_5x
 .data          0x000db1cc       0x14 build/i_sound.o
                0x000db1cc                snd_samplerate
                0x000db1d0                snd_cachesize
                0x000db1d4                snd_maxslicetime_ms
                0x000db1d8                snd_musicdevice
                0x000db1dc                snd_sfxdevice
 .data.rel.local
                0x000db1e0        0x4 build/i_sound.o
                0x000db1e0                snd_musiccmd
 .data          0x000db1e4        0x4 build/i_system.o
 .data.rel.local
                0x000db1e8        0x4 build/i_system.o
 .data          0x000db1ec        0x0 build/i_timer.o
 .data          0x000db1ec        0x0 build/memio.o
 .data          0x000db1ec        0x0 build/m_argv.o
 .data          0x000db1ec        0x0 build/m_bbox.o
 .data          0x000db1ec        0x0 build/m_cheat.o
 .data          0x000db1ec        0x0 build/m_config.o
 .data.rel.local
                0x000db1ec     0x1260 build/m_config.o
 .data          0x000dc44c      0x19c build/m_controls.o
                0x000dc44c                key_right
                0x000dc450                key_left
                0x000dc454                key_up
                0x000dc458                key_down
                0x000dc45c                key_strafeleft
                0x000dc460                key_straferight
                0x000dc464                key_fire
                0x000dc468                key_use
                0x000dc46c                key_strafe
                0x000dc470                key_speed
                0x000dc474                key_flyup
                0x000dc478                key_flydown
                0x000dc47c                key_flycenter
                0x000dc480                key_lookup
                0x000dc484                key_lookdown
                0x000dc488                key_lookcenter
                0x000dc48c                key_invleft
                0x000dc490                key_invright
                0x000dc494                key_useartifact
                0x000dc498                key_jump
                0x000dc49c                key_arti_all
                0x000dc4a0                key_arti_health
                0x000dc4a4                key_arti_poisonbag
                0x000dc4a8                key_arti_blastradius
                0x000dc4ac                key_arti_teleport
                0x000dc4b0                key_arti_teleportother
                0x000dc4b4                key_arti_egg
                0x000dc4b8                key_arti_invulnerability
                0x000dc4bc                key_usehealth
                0x000dc4c0                key_invquery
                0x000dc4c4                key_mission
                0x000dc4c8                key_invpop
                0x000dc4cc                key_invkey
                0x000dc4d0                key_invhome
                0x000dc4d4                key_invend
                0x000dc4d8                key_invuse
                0x000dc4dc                key_invdrop
                0x000dc4e0                mousebstrafe
                0x000dc4e4                mousebforward
                0x000dc4e8                mousebjump
                0x000dc4ec                mousebstrafeleft
                0x000dc4f0                mousebstraferight
                0x000dc4f4                mousebbackward
                0x000dc4f8                mousebuse
                0x000dc4fc                mousebprevweapon
                0x000dc500                mousebnextweapon
                0x000dc504                key_message_refresh
                0x000dc508                key_pause
                0x000dc50c                key_demo_quit
                0x000dc510                key_spy
                0x000dc514                key_multi_msg
                0x000dc518                key_weapon1
                0x000dc51c                key_weapon2
                0x000dc520                key_weapon3
                0x000dc524                key_weapon4
                0x000dc528                key_weapon5
                0x000dc52c                key_weapon6
                0x000dc530                key_weapon7
                0x000dc534                key_weapon8
                0x000dc538                key_map_north
                0x000dc53c                key_map_south
                0x000dc540                key_map_east
                0x000dc544                key_map_west
                0x000dc548                key_map_zoomin
                0x000dc54c                key_map_zoomout
                0x000dc550                key_map_toggle
                0x000dc554                key_map_maxzoom
                0x000dc558                key_map_follow
                0x000dc55c                key_map_grid
                0x000dc560                key_map_mark
                0x000dc564                key_map_clearmark
                0x000dc568                key_menu_activate
                0x000dc56c                key_menu_up
                0x000dc570                key_menu_down
                0x000dc574                key_menu_left
                0x000dc578                key_menu_right
                0x000dc57c                key_menu_back
                0x000dc580                key_menu_forward
                0x000dc584                key_menu_confirm
                0x000dc588                key_menu_abort
                0x000dc58c                key_menu_help
                0x000dc590                key_menu_save
                0x000dc594                key_menu_load
                0x000dc598                key_menu_volume
                0x000dc59c                key_menu_detail
                0x000dc5a0                key_menu_qsave
                0x000dc5a4                key_menu_endgame
                0x000dc5a8                key_menu_messages
                0x000dc5ac                key_menu_qload
                0x000dc5b0                key_menu_quit
                0x000dc5b4                key_menu_gamma
                0x000dc5b8                key_menu_incscreen
                0x000dc5bc                key_menu_decscreen
                0x000dc5c0                joybstrafe
                0x000dc5c4                joybuse
                0x000dc5c8                joybspeed
                0x000dc5cc                joybstrafeleft
                0x000dc5d0                joybstraferight
                0x000dc5d4                joybjump
                0x000dc5d8                joybprevweapon
                0x000dc5dc                joybnextweapon
                0x000dc5e0                joybmenu
                0x000dc5e4                dclick_use
 .data          0x000dc5e8        0x0 build/m_fixed.o
 .data          0x000dc5e8       0xd0 build/m_menu.o
                0x000dc5e8                mouseSensitivity
                0x000dc5ec                showMessages
                0x000dc5f0                screenblocks
                0x000dc5f4                gammamsg
                0x000dc678                quitsounds
                0x000dc698                quitsounds2
 .data.rel.local
                0x000dc6b8      0x424 build/m_menu.o
                0x000dc6b8                skullName
                0x000dc6c0                MainMenu
                0x000dc738                MainDef
                0x000dc750                EpisodeMenu
                0x000dc7a0                EpiDef
                0x000dc7b8                NewGameMenu
                0x000dc81c                NewDef
                0x000dc834                OptionsMenu
                0x000dc8d4                OptionsDef
                0x000dc8ec                ReadMenu1
                0x000dc900                ReadDef1
                0x000dc918                ReadMenu2
                0x000dc92c                ReadDef2
                0x000dc944                SoundMenu
                0x000dc994                SoundDef
                0x000dc9ac                LoadMenu
                0x000dca24                LoadDef
                0x000dca3c                SaveMenu
                0x000dcab4                SaveDef
 .data          0x000dcadc        0x0 build/m_misc.o
 .data          0x000dcadc        0x0 build/m_random.o
 .data          0x000dcadc        0x0 build/p_ceilng.o
 .data          0x000dcadc        0x0 build/p_doors.o
 .data          0x000dcadc       0x78 build/p_enemy.o
                0x000dcadc                opposite
                0x000dcb00                diags
                0x000dcb10                xspeed
                0x000dcb30                yspeed
                0x000dcb50                TRACEANGLE
 .data          0x000dcb54        0x0 build/p_floor.o
 .data          0x000dcb54       0x20 build/p_inter.o
                0x000dcb54                maxammo
                0x000dcb64                clipammo
 .data          0x000dcb74        0x0 build/p_lights.o
 .data          0x000dcb74        0x0 build/p_map.o
 .data          0x000dcb74        0x0 build/p_maputl.o
 .data.rel      0x000dcb74      0x114 build/p_maputl.o
 .data          0x000dcc88        0x0 build/p_mobj.o
 .data          0x000dcc88        0x0 build/p_plats.o
 .data          0x000dcc88        0x0 build/p_pspr.o
 .data          0x000dcc88        0x0 build/p_saveg.o
 .data          0x000dcc88        0x0 build/p_setup.o
 .data          0x000dcc88        0x0 build/p_sight.o
 .data          0x000dcc88      0x288 build/p_spec.o
                0x000dcc88                animdefs
 .data          0x000dcf10      0x334 build/p_switch.o
                0x000dcf10                alphSwitchList
 .data          0x000dd244        0x0 build/p_telept.o
 .data          0x000dd244        0x0 build/p_tick.o
 .data          0x000dd244        0x0 build/p_user.o
 .data          0x000dd244       0xc0 build/r_bsp.o
                0x000dd244                checkcoord
 .data          0x000dd304        0x0 build/r_data.o
 .data          0x000dd304       0xc8 build/r_draw.o
                0x000dd304                fuzzoffset
 .data          0x000dd3cc        0x4 build/r_main.o
                0x000dd3cc                validcount
 .data          0x000dd3d0        0x0 build/r_plane.o
 .data          0x000dd3d0        0x0 build/r_segs.o
 .data          0x000dd3d0        0x0 build/r_sky.o
 .data          0x000dd3d0        0x0 build/r_things.o
 .data          0x000dd3d0        0x0 build/sha1.o
 .data          0x000dd3d0        0x0 build/sounds.o
 .data.rel.local
                0x000dd3d0     0x18b0 build/sounds.o
                0x000dd3d0                S_music
                0x000dd810                S_sfx
 .data          0x000dec80        0x0 build/statdump.o
 .data          0x000dec80        0x0 build/st_lib.o
 .data          0x000dec80      0x354 build/st_stuff.o
                0x000dec84                cheat_mus
                0x000decb8                cheat_god
                0x000decec                cheat_ammo
                0x000ded20                cheat_ammonokey
                0x000ded54                cheat_noclip
                0x000ded88                cheat_commercial_noclip
                0x000dedbc                cheat_powerup
                0x000def28                cheat_choppers
                0x000def5c                cheat_clev
                0x000def90                cheat_mypos
 .data          0x000defd4        0xc build/s_sound.o
                0x000defd4                sfxVolume
                0x000defd8                musicVolume
                0x000defdc                snd_channels
 .data          0x000defe0        0x0 build/tables.o
 .data.rel.local
                0x000defe0        0x4 build/tables.o
                0x000defe0                finecosine
 .data          0x000defe4        0x0 build/v_video.o
 .data          0x000defe4      0x6a8 build/wi_stuff.o
 .data.rel.local
                0x000df68c       0x10 build/wi_stuff.o
 .data          0x000df69c        0x0 build/w_checksum.o
 .data          0x000df69c        0x0 build/w_file.o
 .data.rel      0x000df69c        0x4 build/w_file.o
 .data          0x000df6a0        0x0 build/w_file_stdc_unbuffered.o
 .data.rel.local
                0x000df6a0        0xc build/w_file_stdc_unbuffered.o
                0x000df6a0                stdc_wad_file
 .data          0x000df6ac        0x0 build/w_main.o
 .data          0x000df6ac        0x0 build/w_wad.o
 .data          0x000df6ac        0x0 build/z_zone.o
 .data          0x000df6ac        0x0 /usr/lib/gcc-cross/arm-linux-gnueabihf/14/../../../../arm-linux-gnueabihf/lib/libc.a(libc-start.o)
 .data          0x000df6ac        0x0 /usr/lib/gcc-cross/arm-linux-gnueabihf/14/../../../../arm-linux-gnueabihf/lib/libc.a(libc-tls.o)
 .data          0x000df6ac        0x0 /usr/lib/gcc-cross/arm-linux-gnueabihf/14/../../../../arm-linux-gnueabihf/lib/libc.a(libc-do-syscall.o)
 .data          0x000df6ac        0x0 /usr/lib/gcc-cross/arm-linux-gnueabihf/14/../../../../arm-linux-gnueabihf/lib/libc.a(errno-loc.o)
 .data          0x000df6ac        0x0 /usr/lib/gcc-cross/arm-linux-gnueabihf/14/../../../../arm-linux-gnueabihf/lib/libc.a(ctype.o)
 .data          0x000df6ac        0x0 /usr/lib/gcc-cross/arm-linux-gnueabihf/14/../../../../arm-linux-gnueabihf/lib/libc.a(ctype-info.o)
 .data          0x000df6ac        0x0 /usr/lib/gcc-cross/arm-linux-gnueabihf/14/../../../../arm-linux-gnueabihf/lib/libc.a(bsd-_setjmp.o)
 .data          0x000df6ac        0x0 /usr/lib/gcc-cross/arm-linux-gnueabihf/14/../../../../arm-linux-gnueabihf/lib/libc.a(abort.o)
 .data          0x000df6ac        0x0 /usr/lib/gcc-cross/arm-linux-gnueabihf/14/../../../../arm-linux-gnueabihf/lib/libc.a(atof.o)
 .data          0x000df6ac        0x0 /usr/lib/gcc-cross/arm-linux-gnueabihf/14/../../../../arm-linux-gnueabihf/lib/libc.a(atoi.o)
 .data          0x000df6ac        0x0 /usr/lib/gcc-cross/arm-linux-gnueabihf/14/../../../../arm-linux-gnueabihf/lib/libc.a(cxa_atexit.o)
 .data.rel.local
                0x000df6ac        0x4 /usr/lib/gcc-cross/arm-linux-gnueabihf/14/../../../../arm-linux-gnueabihf/lib/libc.a(cxa_atexit.o)
                0x000df6ac                __exit_funcs
 .data          0x000df6b0        0x0 /usr/lib/gcc-cross/arm-linux-gnueabihf/14/../../../../arm-linux-gnueabihf/lib/libc.a(exit.o)
 .data          0x000df6b0        0x0 /usr/lib/gcc-cross/arm-linux-gnueabihf/14/../../../../arm-linux-gnueabihf/lib/libc.a(strtod.o)
 .data          0x000df6b0        0x0 /usr/lib/gcc-cross/arm-linux-gnueabihf/14/../../../../arm-linux-gnueabihf/lib/libc.a(strtod_l.o)
 .data          0x000df6b0        0x0 /usr/lib/gcc-cross/arm-linux-gnueabihf/14/../../../../arm-linux-gnueabihf/lib/libc.a(strtod_nan.o)
 .data          0x000df6b0        0x0 /usr/lib/gcc-cross/arm-linux-gnueabihf/14/../../../../arm-linux-gnueabihf/lib/libc.a(strtol.o)
 .data          0x000df6b0        0x0 /usr/lib/gcc-cross/arm-linux-gnueabihf/14/../../../../arm-linux-gnueabihf/lib/libc.a(strtol_l.o)
 .data          0x000df6b0        0x0 /usr/lib/gcc-cross/arm-linux-gnueabihf/14/../../../../arm-linux-gnueabihf/lib/libc.a(strtoull_l.o)
 .data          0x000df6b0        0x0 /usr/lib/gcc-cross/arm-linux-gnueabihf/14/../../../../arm-linux-gnueabihf/lib/libc.a(system.o)
 .data          0x000df6b0        0x0 /usr/lib/gcc-cross/arm-linux-gnueabihf/14/../../../../arm-linux-gnueabihf/lib/libc.a(add_n.o)
 .data          0x000df6b0        0x0 /usr/lib/gcc-cross/arm-linux-gnueabihf/14/../../../../arm-linux-gnueabihf/lib/libc.a(cmp.o)
 .data          0x000df6b0        0x0 /usr/lib/gcc-cross/arm-linux-gnueabihf/14/../../../../arm-linux-gnueabihf/lib/libc.a(lshift.o)
 .data          0x000df6b0        0x0 /usr/lib/gcc-cross/arm-linux-gnueabihf/14/../../../../arm-linux-gnueabihf/lib/libc.a(mul.o)
 .data          0x000df6b0        0x0 /usr/lib/gcc-cross/arm-linux-gnueabihf/14/../../../../arm-linux-gnueabihf/lib/libc.a(mul_1.o)
 .data          0x000df6b0        0x0 /usr/lib/gcc-cross/arm-linux-gnueabihf/14/../../../../arm-linux-gnueabihf/lib/libc.a(mul_n.o)
 .data          0x000df6b0        0x0 /usr/lib/gcc-cross/arm-linux-gnueabihf/14/../../../../arm-linux-gnueabihf/lib/libc.a(rshift.o)
 .data          0x000df6b0        0x0 /usr/lib/gcc-cross/arm-linux-gnueabihf/14/../../../../arm-linux-gnueabihf/lib/libc.a(sub_n.o)
 .data          0x000df6b0        0x0 /usr/lib/gcc-cross/arm-linux-gnueabihf/14/../../../../arm-linux-gnueabihf/lib/libc.a(submul_1.o)
 .data          0x000df6b0        0x0 /usr/lib/gcc-cross/arm-linux-gnueabihf/14/../../../../arm-linux-gnueabihf/lib/libc.a(mpn2dbl.o)
 .data          0x000df6b0        0x0 /usr/lib/gcc-cross/arm-linux-gnueabihf/14/../../../../arm-linux-gnueabihf/lib/libc.a(grouping.o)
 .data          0x000df6b0        0x0 /usr/lib/gcc-cross/arm-linux-gnueabihf/14/../../../../arm-linux-gnueabihf/lib/libc.a(tens_in_limb.o)
 .data          0x000df6b0        0x0 /usr/lib/gcc-cross/arm-linux-gnueabihf/14/../../../../arm-linux-gnueabihf/lib/libc.a(fpioconst.o)
 .data          0x000df6b0        0x0 /usr/lib/gcc-cross/arm-linux-gnueabihf/14/../../../../arm-linux-gnueabihf/lib/libc.a(fprintf.o)
 .data          0x000df6b0        0x0 /usr/lib/gcc-cross/arm-linux-gnueabihf/14/../../../../arm-linux-gnueabihf/lib/libc.a(isoc99_sscanf.o)
 .data          0x000df6b0        0x0 /usr/lib/gcc-cross/arm-linux-gnueabihf/14/../../../../arm-linux-gnueabihf/lib/libc.a(printf.o)
 .data          0x000df6b0        0x0 /usr/lib/gcc-cross/arm-linux-gnueabihf/14/../../../../arm-linux-gnueabihf/lib/libc.a(remove.o)
 .data          0x000df6b0        0x0 /usr/lib/gcc-cross/arm-linux-gnueabihf/14/../../../../arm-linux-gnueabihf/lib/libc.a(rename.o)
 .data          0x000df6b0        0x0 /usr/lib/gcc-cross/arm-linux-gnueabihf/14/../../../../arm-linux-gnueabihf/lib/libc.a(snprintf.o)
 .data          0x000df6b0        0x0 /usr/lib/gcc-cross/arm-linux-gnueabihf/14/../../../../arm-linux-gnueabihf/lib/libc.a(vfprintf.o)
 .data          0x000df6b0        0x0 /usr/lib/gcc-cross/arm-linux-gnueabihf/14/../../../../arm-linux-gnueabihf/lib/libc.a(vfprintf-internal.o)
 .data          0x000df6b0        0x0 /usr/lib/gcc-cross/arm-linux-gnueabihf/14/../../../../arm-linux-gnueabihf/lib/libc.a(vfscanf-internal.o)
 .data          0x000df6b0        0x0 /usr/lib/gcc-cross/arm-linux-gnueabihf/14/../../../../arm-linux-gnueabihf/lib/libc.a(errname.o)
 .data          0x000df6b0        0x0 /usr/lib/gcc-cross/arm-linux-gnueabihf/14/../../../../arm-linux-gnueabihf/lib/libc.a(printf-parsemb.o)
 .data          0x000df6b0        0x0 /usr/lib/gcc-cross/arm-linux-gnueabihf/14/../../../../arm-linux-gnueabihf/lib/libc.a(iofclose.o)
 .data          0x000df6b0        0x0 /usr/lib/gcc-cross/arm-linux-gnueabihf/14/../../../../arm-linux-gnueabihf/lib/libc.a(iofflush.o)
 .data          0x000df6b0        0x0 /usr/lib/gcc-cross/arm-linux-gnueabihf/14/../../../../arm-linux-gnueabihf/lib/libc.a(iofread.o)
 .data          0x000df6b0        0x0 /usr/lib/gcc-cross/arm-linux-gnueabihf/14/../../../../arm-linux-gnueabihf/lib/libc.a(ioftell.o)
 .data          0x000df6b0        0x0 /usr/lib/gcc-cross/arm-linux-gnueabihf/14/../../../../arm-linux-gnueabihf/lib/libc.a(iofwrite.o)
 .data          0x000df6b0        0x0 /usr/lib/gcc-cross/arm-linux-gnueabihf/14/../../../../arm-linux-gnueabihf/lib/libc.a(ioputs.o)
 .data          0x000df6b0        0x0 /usr/lib/gcc-cross/arm-linux-gnueabihf/14/../../../../arm-linux-gnueabihf/lib/libc.a(ioseekoff.o)
 .data          0x000df6b0        0x0 /usr/lib/gcc-cross/arm-linux-gnueabihf/14/../../../../arm-linux-gnueabihf/lib/libc.a(iofopen64.o)
 .data          0x000df6b0        0x0 /usr/lib/gcc-cross/arm-linux-gnueabihf/14/../../../../arm-linux-gnueabihf/lib/libc.a(putchar.o)
 .data          0x000df6b0        0x0 /usr/lib/gcc-cross/arm-linux-gnueabihf/14/../../../../arm-linux-gnueabihf/lib/libc.a(wgenops.o)
 .data          0x000df6b0        0x0 /usr/lib/gcc-cross/arm-linux-gnueabihf/14/../../../../arm-linux-gnueabihf/lib/libc.a(iofwide.o)
 .data          0x000df6b0        0x0 /usr/lib/gcc-cross/arm-linux-gnueabihf/14/../../../../arm-linux-gnueabihf/lib/libc.a(fseek.o)
 .data          0x000df6b0        0x0 /usr/lib/gcc-cross/arm-linux-gnueabihf/14/../../../../arm-linux-gnueabihf/lib/libc.a(vsnprintf.o)
 .data          0x000df6b0        0x0 /usr/lib/gcc-cross/arm-linux-gnueabihf/14/../../../../arm-linux-gnueabihf/lib/libc.a(libc_fatal.o)
 .data          0x000df6b0        0x0 /usr/lib/gcc-cross/arm-linux-gnueabihf/14/../../../../arm-linux-gnueabihf/lib/libc.a(vtables.o)
 .data          0x000df6b0        0x0 /usr/lib/gcc-cross/arm-linux-gnueabihf/14/../../../../arm-linux-gnueabihf/lib/libc.a(fileops.o)
 .data          0x000df6b0        0x0 /usr/lib/gcc-cross/arm-linux-gnueabihf/14/../../../../arm-linux-gnueabihf/lib/libc.a(genops.o)
 .data          0x000df6b0        0x0 /usr/lib/gcc-cross/arm-linux-gnueabihf/14/../../../../arm-linux-gnueabihf/lib/libc.a(stdfiles.o)
 .data.rel.local
                0x000df6b0      0x394 /usr/lib/gcc-cross/arm-linux-gnueabihf/14/../../../../arm-linux-gnueabihf/lib/libc.a(stdfiles.o)
                0x000df6b0                _IO_list_all
                0x000df6b8                _IO_2_1_stderr_
                0x000df7e8                _IO_2_1_stdout_
                0x000df918                _IO_2_1_stdin_
 .data          0x000dfa44        0x0 /usr/lib/gcc-cross/arm-linux-gnueabihf/14/../../../../arm-linux-gnueabihf/lib/libc.a(stdio.o)
 .data.rel      0x000dfa44        0xc /usr/lib/gcc-cross/arm-linux-gnueabihf/14/../../../../arm-linux-gnueabihf/lib/libc.a(stdio.o)
                0x000dfa44                stderr
                0x000dfa48                stdout
                0x000dfa4c                stdin
 .data          0x000dfa50        0x0 /usr/lib/gcc-cross/arm-linux-gnueabihf/14/../../../../arm-linux-gnueabihf/lib/libc.a(strops.o)
 .data          0x000dfa50        0x0 /usr/lib/gcc-cross/arm-linux-gnueabihf/14/../../../../arm-linux-gnueabihf/lib/libc.a(libc-cleanup.o)
 .data          0x000dfa50        0x0 /usr/lib/gcc-cross/arm-linux-gnueabihf/14/../../../../arm-linux-gnueabihf/lib/libc.a(lowlevellock.o)
 .data          0x000dfa50        0x0 /usr/lib/gcc-cross/arm-linux-gnueabihf/14/../../../../arm-linux-gnueabihf/lib/libc.a(nptl_deallocate_tsd.o)
 .data          0x000dfa50        0x4 /usr/lib/gcc-cross/arm-linux-gnueabihf/14/../../../../arm-linux-gnueabihf/lib/libc.a(nptl_nthreads.o)
                0x000dfa50                __nptl_nthreads
 .data          0x000dfa54        0x0 /usr/lib/gcc-cross/arm-linux-gnueabihf/14/../../../../arm-linux-gnueabihf/lib/libc.a(pthread_keys.o)
 .data          0x000dfa54        0x0 /usr/lib/gcc-cross/arm-linux-gnueabihf/14/../../../../arm-linux-gnueabihf/lib/libc.a(pthread_kill.o)
 .data          0x000dfa54        0x0 /usr/lib/gcc-cross/arm-linux-gnueabihf/14/../../../../arm-linux-gnueabihf/lib/libc.a(pthread_rwlock_init.o)
 .data          0x000dfa54        0x0 /usr/lib/gcc-cross/arm-linux-gnueabihf/14/../../../../arm-linux-gnueabihf/lib/libc.a(pthread_rwlock_rdlock.o)
 .data          0x000dfa54        0x0 /usr/lib/gcc-cross/arm-linux-gnueabihf/14/../../../../arm-linux-gnueabihf/lib/libc.a(pthread_rwlock_unlock.o)
 .data          0x000dfa54        0x0 /usr/lib/gcc-cross/arm-linux-gnueabihf/14/../../../../arm-linux-gnueabihf/lib/libc.a(pthread_rwlock_wrlock.o)
 .data          0x000dfa54        0x0 /usr/lib/gcc-cross/arm-linux-gnueabihf/14/../../../../arm-linux-gnueabihf/lib/libc.a(pthread_setcancelstate.o)
 .data          0x000dfa54       0x54 /usr/lib/gcc-cross/arm-linux-gnueabihf/14/../../../../arm-linux-gnueabihf/lib/libc.a(malloc.o)
 .data.rel.local
                0x000dfaa8      0x458 /usr/lib/gcc-cross/arm-linux-gnueabihf/14/../../../../arm-linux-gnueabihf/lib/libc.a(malloc.o)
 .data          0x000dff00        0x0 /usr/lib/gcc-cross/arm-linux-gnueabihf/14/../../../../arm-linux-gnueabihf/lib/libc.a(scratch_buffer_grow_preserve.o)
 .data          0x000dff00        0x0 /usr/lib/gcc-cross/arm-linux-gnueabihf/14/../../../../arm-linux-gnueabihf/lib/libc.a(scratch_buffer_set_array_size.o)
 .data          0x000dff00        0x0 /usr/lib/gcc-cross/arm-linux-gnueabihf/14/../../../../arm-linux-gnueabihf/lib/libc.a(_strerror.o)
 .data          0x000dff00        0x0 /usr/lib/gcc-cross/arm-linux-gnueabihf/14/../../../../arm-linux-gnueabihf/lib/libc.a(memcmp.o)
 .data          0x000dff00        0x0 /usr/lib/gcc-cross/arm-linux-gnueabihf/14/../../../../arm-linux-gnueabihf/lib/libc.a(memcpy.o)
 .data          0x000dff00        0x0 /usr/lib/gcc-cross/arm-linux-gnueabihf/14/../../../../arm-linux-gnueabihf/lib/libc.a(memmove.o)
 .data          0x000dff00        0x0 /usr/lib/gcc-cross/arm-linux-gnueabihf/14/../../../../arm-linux-gnueabihf/lib/libc.a(memset.o)
 .data          0x000dff00        0x0 /usr/lib/gcc-cross/arm-linux-gnueabihf/14/../../../../arm-linux-gnueabihf/lib/libc.a(strcasecmp.o)
 .data          0x000dff00        0x0 /usr/lib/gcc-cross/arm-linux-gnueabihf/14/../../../../arm-linux-gnueabihf/lib/libc.a(strchr.o)
 .data          0x000dff00        0x0 /usr/lib/gcc-cross/arm-linux-gnueabihf/14/../../../../arm-linux-gnueabihf/lib/libc.a(strchrnul.o)
 .data          0x000dff00        0x0 /usr/lib/gcc-cross/arm-linux-gnueabihf/14/../../../../arm-linux-gnueabihf/lib/libc.a(strcmp.o)
 .data          0x000dff00        0x0 /usr/lib/gcc-cross/arm-linux-gnueabihf/14/../../../../arm-linux-gnueabihf/lib/libc.a(strdup.o)
 .data          0x000dff00        0x0 /usr/lib/gcc-cross/arm-linux-gnueabihf/14/../../../../arm-linux-gnueabihf/lib/libc.a(strlen.o)
 .data          0x000dff00        0x0 /usr/lib/gcc-cross/arm-linux-gnueabihf/14/../../../../arm-linux-gnueabihf/lib/libc.a(strncase.o)
 .data          0x000dff00        0x0 /usr/lib/gcc-cross/arm-linux-gnueabihf/14/../../../../arm-linux-gnueabihf/lib/libc.a(strncase_l.o)
 .data          0x000dff00        0x0 /usr/lib/gcc-cross/arm-linux-gnueabihf/14/../../../../arm-linux-gnueabihf/lib/libc.a(strncmp.o)
 .data          0x000dff00        0x0 /usr/lib/gcc-cross/arm-linux-gnueabihf/14/../../../../arm-linux-gnueabihf/lib/libc.a(strncpy.o)
 .data          0x000dff00        0x0 /usr/lib/gcc-cross/arm-linux-gnueabihf/14/../../../../arm-linux-gnueabihf/lib/libc.a(strnlen.o)
 .data          0x000dff00        0x0 /usr/lib/gcc-cross/arm-linux-gnueabihf/14/../../../../arm-linux-gnueabihf/lib/libc.a(strrchr.o)
 .data          0x000dff00        0x0 /usr/lib/gcc-cross/arm-linux-gnueabihf/14/../../../../arm-linux-gnueabihf/lib/libc.a(strstr.o)
 .data          0x000dff00        0x0 /usr/lib/gcc-cross/arm-linux-gnueabihf/14/../../../../arm-linux-gnueabihf/lib/libc.a(memcpy_neon.o)
 .data          0x000dff00        0x0 /usr/lib/gcc-cross/arm-linux-gnueabihf/14/../../../../arm-linux-gnueabihf/lib/libc.a(memcpy_vfp.o)
 .data          0x000dff00        0x0 /usr/lib/gcc-cross/arm-linux-gnueabihf/14/../../../../arm-linux-gnueabihf/lib/libc.a(mbrlen.o)
 .data          0x000dff00        0x0 /usr/lib/gcc-cross/arm-linux-gnueabihf/14/../../../../arm-linux-gnueabihf/lib/libc.a(mbrtowc.o)
 .data          0x000dff00        0x0 /usr/lib/gcc-cross/arm-linux-gnueabihf/14/../../../../arm-linux-gnueabihf/lib/libc.a(wcrtomb.o)
 .data          0x000dff00        0x0 /usr/lib/gcc-cross/arm-linux-gnueabihf/14/../../../../arm-linux-gnueabihf/lib/libc.a(wcsmbsload.o)
 .data          0x000dff00        0x0 /usr/lib/gcc-cross/arm-linux-gnueabihf/14/../../../../arm-linux-gnueabihf/lib/libc.a(wcsrtombs.o)
 .data          0x000dff00        0x0 /usr/lib/gcc-cross/arm-linux-gnueabihf/14/../../../../arm-linux-gnueabihf/lib/libc.a(wmemcpy.o)
 .data          0x000dff00        0x0 /usr/lib/gcc-cross/arm-linux-gnueabihf/14/../../../../arm-linux-gnueabihf/lib/libc.a(wmemmove.o)
 .data          0x000dff00        0x0 /usr/lib/gcc-cross/arm-linux-gnueabihf/14/../../../../arm-linux-gnueabihf/lib/libc.a(wmempcpy.o)
 .data          0x000dff00        0x0 /usr/lib/gcc-cross/arm-linux-gnueabihf/14/../../../../arm-linux-gnueabihf/lib/libc.a(gettimeofday.o)
 .data          0x000dff00        0x0 /usr/lib/gcc-cross/arm-linux-gnueabihf/14/../../../../arm-linux-gnueabihf/lib/libc.a(clock_gettime.o)
 .data          0x000dff00        0x0 /usr/lib/gcc-cross/arm-linux-gnueabihf/14/../../../../arm-linux-gnueabihf/lib/libc.a(_exit.o)
 .data          0x000dff00        0x0 /usr/lib/gcc-cross/arm-linux-gnueabihf/14/../../../../arm-linux-gnueabihf/lib/libc.a(getpid.o)
 .data          0x000dff00        0x0 /usr/lib/gcc-cross/arm-linux-gnueabihf/14/../../../../arm-linux-gnueabihf/lib/libc.a(spawn.o)
 .data          0x000dff00        0x0 /usr/lib/gcc-cross/arm-linux-gnueabihf/14/../../../../arm-linux-gnueabihf/lib/libc.a(spawnattr_destroy.o)
 .data          0x000dff00        0x0 /usr/lib/gcc-cross/arm-linux-gnueabihf/14/../../../../arm-linux-gnueabihf/lib/libc.a(spawnattr_init.o)
 .data          0x000dff00        0x0 /usr/lib/gcc-cross/arm-linux-gnueabihf/14/../../../../arm-linux-gnueabihf/lib/libc.a(spawnattr_setdefault.o)
 .data          0x000dff00        0x0 /usr/lib/gcc-cross/arm-linux-gnueabihf/14/../../../../arm-linux-gnueabihf/lib/libc.a(spawnattr_setflags.o)
 .data          0x000dff00        0x0 /usr/lib/gcc-cross/arm-linux-gnueabihf/14/../../../../arm-linux-gnueabihf/lib/libc.a(spawnattr_setsigmask.o)
 .data          0x000dff00        0x0 /usr/lib/gcc-cross/arm-linux-gnueabihf/14/../../../../arm-linux-gnueabihf/lib/libc.a(spawni.o)
 .data          0x000dff00        0x0 /usr/lib/gcc-cross/arm-linux-gnueabihf/14/../../../../arm-linux-gnueabihf/lib/libc.a(waitid.o)
 .data          0x000dff00        0x0 /usr/lib/gcc-cross/arm-linux-gnueabihf/14/../../../../arm-linux-gnueabihf/lib/libc.a(waitpid.o)
 .data          0x000dff00        0x0 /usr/lib/gcc-cross/arm-linux-gnueabihf/14/../../../../arm-linux-gnueabihf/lib/libc.a(environ.o)
 .data          0x000dff00        0x0 /usr/lib/gcc-cross/arm-linux-gnueabihf/14/../../../../arm-linux-gnueabihf/lib/libc.a(chdir.o)
 .data          0x000dff00        0x0 /usr/lib/gcc-cross/arm-linux-gnueabihf/14/../../../../arm-linux-gnueabihf/lib/libc.a(close.o)
 .data          0x000dff00        0x0 /usr/lib/gcc-cross/arm-linux-gnueabihf/14/../../../../arm-linux-gnueabihf/lib/libc.a(dup2.o)
 .data          0x000dff00        0x0 /usr/lib/gcc-cross/arm-linux-gnueabihf/14/../../../../arm-linux-gnueabihf/lib/libc.a(fchdir.o)
 .data          0x000dff00        0x0 /usr/lib/gcc-cross/arm-linux-gnueabihf/14/../../../../arm-linux-gnueabihf/lib/libc.a(fcntl.o)
 .data          0x000dff00        0x0 /usr/lib/gcc-cross/arm-linux-gnueabihf/14/../../../../arm-linux-gnueabihf/lib/libc.a(fcntl64.o)
 .data          0x000dff00        0x0 /usr/lib/gcc-cross/arm-linux-gnueabihf/14/../../../../arm-linux-gnueabihf/lib/libc.a(fstat64.o)
 .data          0x000dff00        0x0 /usr/lib/gcc-cross/arm-linux-gnueabihf/14/../../../../arm-linux-gnueabihf/lib/libc.a(fstatat64.o)
 .data          0x000dff00        0x0 /usr/lib/gcc-cross/arm-linux-gnueabihf/14/../../../../arm-linux-gnueabihf/lib/libc.a(lseek64.o)
 .data          0x000dff00        0x0 /usr/lib/gcc-cross/arm-linux-gnueabihf/14/../../../../arm-linux-gnueabihf/lib/libc.a(mkdir.o)
 .data          0x000dff00        0x0 /usr/lib/gcc-cross/arm-linux-gnueabihf/14/../../../../arm-linux-gnueabihf/lib/libc.a(open.o)
 .data          0x000dff00        0x0 /usr/lib/gcc-cross/arm-linux-gnueabihf/14/../../../../arm-linux-gnueabihf/lib/libc.a(open64.o)
 .data          0x000dff00        0x0 /usr/lib/gcc-cross/arm-linux-gnueabihf/14/../../../../arm-linux-gnueabihf/lib/libc.a(read.o)
 .data          0x000dff00        0x0 /usr/lib/gcc-cross/arm-linux-gnueabihf/14/../../../../arm-linux-gnueabihf/lib/libc.a(rmdir.o)
 .data          0x000dff00        0x0 /usr/lib/gcc-cross/arm-linux-gnueabihf/14/../../../../arm-linux-gnueabihf/lib/libc.a(unlink.o)
 .data          0x000dff00        0x0 /usr/lib/gcc-cross/arm-linux-gnueabihf/14/../../../../arm-linux-gnueabihf/lib/libc.a(write.o)
 .data          0x000dff00        0x0 /usr/lib/gcc-cross/arm-linux-gnueabihf/14/../../../../arm-linux-gnueabihf/lib/libc.a(close_nocancel.o)
 .data          0x000dff00        0x0 /usr/lib/gcc-cross/arm-linux-gnueabihf/14/../../../../arm-linux-gnueabihf/lib/libc.a(fcntl_nocancel.o)
 .data          0x000dff00        0x0 /usr/lib/gcc-cross/arm-linux-gnueabihf/14/../../../../arm-linux-gnueabihf/lib/libc.a(open_nocancel.o)
 .data          0x000dff00        0x0 /usr/lib/gcc-cross/arm-linux-gnueabihf/14/../../../../arm-linux-gnueabihf/lib/libc.a(read_nocancel.o)
 .data          0x000dff00        0x0 /usr/lib/gcc-cross/arm-linux-gnueabihf/14/../../../../arm-linux-gnueabihf/lib/libc.a(stat_t64_cp.o)
 .data          0x000dff00        0x0 /usr/lib/gcc-cross/arm-linux-gnueabihf/14/../../../../arm-linux-gnueabihf/lib/libc.a(write_nocancel.o)
 .data          0x000dff00        0x0 /usr/lib/gcc-cross/arm-linux-gnueabihf/14/../../../../arm-linux-gnueabihf/lib/libc.a(tcsetattr.o)
 .data          0x000dff00        0x0 /usr/lib/gcc-cross/arm-linux-gnueabihf/14/../../../../arm-linux-gnueabihf/lib/libc.a(tcgetattr.o)
 .data          0x000dff00        0x0 /usr/lib/gcc-cross/arm-linux-gnueabihf/14/../../../../arm-linux-gnueabihf/lib/libc.a(tcsetpgrp.o)
 .data          0x000dff00        0x0 /usr/lib/gcc-cross/arm-linux-gnueabihf/14/../../../../arm-linux-gnueabihf/lib/libc.a(getrlimit64.o)
 .data          0x000dff00        0x0 /usr/lib/gcc-cross/arm-linux-gnueabihf/14/../../../../arm-linux-gnueabihf/lib/libc.a(brk.o)
 .data          0x000dff00        0x0 /usr/lib/gcc-cross/arm-linux-gnueabihf/14/../../../../arm-linux-gnueabihf/lib/libc.a(getpagesize.o)
 .data          0x000dff00        0x0 /usr/lib/gcc-cross/arm-linux-gnueabihf/14/../../../../arm-linux-gnueabihf/lib/libc.a(getsysstats.o)
 .data          0x000dff00        0x0 /usr/lib/gcc-cross/arm-linux-gnueabihf/14/../../../../arm-linux-gnueabihf/lib/libc.a(ioctl.o)
 .data          0x000dff00        0x0 /usr/lib/gcc-cross/arm-linux-gnueabihf/14/../../../../arm-linux-gnueabihf/lib/libc.a(madvise.o)
 .data          0x000dff00        0x0 /usr/lib/gcc-cross/arm-linux-gnueabihf/14/../../../../arm-linux-gnueabihf/lib/libc.a(mmap.o)
 .data          0x000dff00        0x0 /usr/lib/gcc-cross/arm-linux-gnueabihf/14/../../../../arm-linux-gnueabihf/lib/libc.a(mmap64.o)
 .data          0x000dff00        0x0 /usr/lib/gcc-cross/arm-linux-gnueabihf/14/../../../../arm-linux-gnueabihf/lib/libc.a(mprotect.o)
 .data          0x000dff00        0x0 /usr/lib/gcc-cross/arm-linux-gnueabihf/14/../../../../arm-linux-gnueabihf/lib/libc.a(munmap.o)
 .data          0x000dff00        0x0 /usr/lib/gcc-cross/arm-linux-gnueabihf/14/../../../../arm-linux-gnueabihf/lib/libc.a(sbrk.o)
 .data          0x000dff00        0x1 /usr/lib/gcc-cross/arm-linux-gnueabihf/14/../../../../arm-linux-gnueabihf/lib/libc.a(single_threaded.o)
                0x000dff00                __libc_single_threaded
 .data          0x000dff01        0x0 /usr/lib/gcc-cross/arm-linux-gnueabihf/14/../../../../arm-linux-gnueabihf/lib/libc.a(usleep.o)
 *fill*         0x000dff01        0x3 
 .data          0x000dff04        0x4 /usr/lib/gcc-cross/arm-linux-gnueabihf/14/../../../../arm-linux-gnueabihf/lib/libc.a(clone-internal.o)
 .data          0x000dff08        0x0 /usr/lib/gcc-cross/arm-linux-gnueabihf/14/../../../../arm-linux-gnueabihf/lib/libc.a(clone-pidfd-support.o)
 .data          0x000dff08        0x0 /usr/lib/gcc-cross/arm-linux-gnueabihf/14/../../../../arm-linux-gnueabihf/lib/libc.a(clone3.o)
 .data          0x000dff08        0x0 /usr/lib/gcc-cross/arm-linux-gnueabihf/14/../../../../arm-linux-gnueabihf/lib/libc.a(closefrom_fallback.o)
 .data          0x000dff08        0x0 /usr/lib/gcc-cross/arm-linux-gnueabihf/14/../../../../arm-linux-gnueabihf/lib/libc.a(mremap.o)
 .data          0x000dff08        0x4 /usr/lib/gcc-cross/arm-linux-gnueabihf/14/../../../../arm-linux-gnueabihf/lib/libc.a(setvmaname.o)
 .data          0x000dff0c        0x0 /usr/lib/gcc-cross/arm-linux-gnueabihf/14/../../../../arm-linux-gnueabihf/lib/libc.a(sysinfo.o)
 .data          0x000dff0c        0x0 /usr/lib/gcc-cross/arm-linux-gnueabihf/14/../../../../arm-linux-gnueabihf/lib/libc.a(gettid.o)
 .data          0x000dff0c        0x0 /usr/lib/gcc-cross/arm-linux-gnueabihf/14/../../../../arm-linux-gnueabihf/lib/libc.a(malloc-hugepages.o)
 .data          0x000dff0c        0x0 /usr/lib/gcc-cross/arm-linux-gnueabihf/14/../../../../arm-linux-gnueabihf/lib/libc.a(wctrans.o)
 .data          0x000dff0c        0x0 /usr/lib/gcc-cross/arm-linux-gnueabihf/14/../../../../arm-linux-gnueabihf/lib/libc.a(towctrans.o)
 .data          0x000dff0c        0x0 /usr/lib/gcc-cross/arm-linux-gnueabihf/14/../../../../arm-linux-gnueabihf/lib/libc.a(chk_fail.o)
 .data          0x000dff0c        0x0 /usr/lib/gcc-cross/arm-linux-gnueabihf/14/../../../../arm-linux-gnueabihf/lib/libc.a(fortify_fail.o)
 .data          0x000dff0c        0x0 /usr/lib/gcc-cross/arm-linux-gnueabihf/14/../../../../arm-linux-gnueabihf/lib/libc.a(fprintf_chk.o)
 .data          0x000dff0c        0x0 /usr/lib/gcc-cross/arm-linux-gnueabihf/14/../../../../arm-linux-gnueabihf/lib/libc.a(memcpy_chk.o)
 .data          0x000dff0c        0x0 /usr/lib/gcc-cross/arm-linux-gnueabihf/14/../../../../arm-linux-gnueabihf/lib/libc.a(readonly-area.o)
 .data          0x000dff0c        0x0 /usr/lib/gcc-cross/arm-linux-gnueabihf/14/../../../../arm-linux-gnueabihf/lib/libc.a(stack_chk_fail.o)
 .data          0x000dff0c        0x0 /usr/lib/gcc-cross/arm-linux-gnueabihf/14/../../../../arm-linux-gnueabihf/lib/libc.a(dl-debug.o)
 .data          0x000dff0c        0x0 /usr/lib/gcc-cross/arm-linux-gnueabihf/14/../../../../arm-linux-gnueabihf/lib/libc.a(dl-debug-symbols.o)
 .data          0x000dff0c        0x0 /usr/lib/gcc-cross/arm-linux-gnueabihf/14/../../../../arm-linux-gnueabihf/lib/libc.a(dl-tls.o)
 .data          0x000dff0c        0x0 /usr/lib/gcc-cross/arm-linux-gnueabihf/14/../../../../arm-linux-gnueabihf/lib/libc.a(dl-tls_init_tp.o)
 .data          0x000dff0c        0x0 /usr/lib/gcc-cross/arm-linux-gnueabihf/14/../../../../arm-linux-gnueabihf/lib/libc.a(dl-tunables.o)
 .data          0x000dff0c        0x0 /usr/lib/gcc-cross/arm-linux-gnueabihf/14/../../../../arm-linux-gnueabihf/lib/libc.a(dl-rseq-symbols.o)
 .data          0x000dff0c        0x0 /usr/lib/gcc-cross/arm-linux-gnueabihf/14/../../../../arm-linux-gnueabihf/lib/libc.a(dl-early_allocate.o)
 *fill*         0x000dff0c        0x4 
 .data          0x000dff10       0x68 /usr/lib/gcc-cross/arm-linux-gnueabihf/14/../../../../arm-linux-gnueabihf/lib/libc.a(dl-support.o)
                0x000dff10                _dl_pagesize
                0x000dff14                _dl_minsigstacksize
                0x000dff18                _dl_nns
                0x000dff1c                _dl_stack_flags
                0x000dff20                _dl_load_tls_lock
                0x000dff38                _dl_load_write_lock
                0x000dff50                _dl_load_lock
                0x000dff68                _dl_debug_fd
                0x000dff70                _dl_load_adds
 .data.rel.local
                0x000dff78      0x2e4 /usr/lib/gcc-cross/arm-linux-gnueabihf/14/../../../../arm-linux-gnueabihf/lib/libc.a(dl-support.o)
                0x000e01e8                _dl_initial_searchlist
                0x000e01f4                _dl_ns
 .data          0x000e025c        0x4 /usr/lib/gcc-cross/arm-linux-gnueabihf/14/../../../../arm-linux-gnueabihf/lib/libc.a(enbl-secure.o)
                0x000e025c                __libc_enable_secure
 .data          0x000e0260        0x0 /usr/lib/gcc-cross/arm-linux-gnueabihf/14/../../../../arm-linux-gnueabihf/lib/libc.a(libc_early_init.o)
 .data          0x000e0260        0x0 /usr/lib/gcc-cross/arm-linux-gnueabihf/14/../../../../arm-linux-gnueabihf/lib/libc.a(check_fds.o)
 .data          0x000e0260        0x0 /usr/lib/gcc-cross/arm-linux-gnueabihf/14/../../../../arm-linux-gnueabihf/lib/libc.a(init-first.o)
 .data          0x000e0260        0x0 /usr/lib/gcc-cross/arm-linux-gnueabihf/14/../../../../arm-linux-gnueabihf/lib/libc.a(sysdep.o)
 .data          0x000e0260        0x0 /usr/lib/gcc-cross/arm-linux-gnueabihf/14/../../../../arm-linux-gnueabihf/lib/libc.a(errno.o)
 .data          0x000e0260        0x0 /usr/lib/gcc-cross/arm-linux-gnueabihf/14/../../../../arm-linux-gnueabihf/lib/libc.a(gconv_db.o)
 .data          0x000e0260        0x0 /usr/lib/gcc-cross/arm-linux-gnueabihf/14/../../../../arm-linux-gnueabihf/lib/libc.a(gconv_conf.o)
 .data.rel.local
                0x000e0260      0x180 /usr/lib/gcc-cross/arm-linux-gnueabihf/14/../../../../arm-linux-gnueabihf/lib/libc.a(gconv_conf.o)
 .data          0x000e03e0        0x0 /usr/lib/gcc-cross/arm-linux-gnueabihf/14/../../../../arm-linux-gnueabihf/lib/libc.a(gconv_builtin.o)
 .data          0x000e03e0        0x0 /usr/lib/gcc-cross/arm-linux-gnueabihf/14/../../../../arm-linux-gnueabihf/lib/libc.a(gconv_simple.o)
 .data          0x000e03e0        0x0 /usr/lib/gcc-cross/arm-linux-gnueabihf/14/../../../../arm-linux-gnueabihf/lib/libc.a(gconv_trans.o)
 .data          0x000e03e0        0x0 /usr/lib/gcc-cross/arm-linux-gnueabihf/14/../../../../arm-linux-gnueabihf/lib/libc.a(gconv_cache.o)
 .data          0x000e03e0        0x0 /usr/lib/gcc-cross/arm-linux-gnueabihf/14/../../../../arm-linux-gnueabihf/lib/libc.a(gconv_dl.o)
 .data          0x000e03e0        0x0 /usr/lib/gcc-cross/arm-linux-gnueabihf/14/../../../../arm-linux-gnueabihf/lib/libc.a(setlocale.o)
 .data          0x000e03e0        0x0 /usr/lib/gcc-cross/arm-linux-gnueabihf/14/../../../../arm-linux-gnueabihf/lib/libc.a(lc-ctype.o)
 .data          0x000e03e0        0x0 /usr/lib/gcc-cross/arm-linux-gnueabihf/14/../../../../arm-linux-gnueabihf/lib/libc.a(lc-numeric.o)
 .data          0x000e03e0        0x0 /usr/lib/gcc-cross/arm-linux-gnueabihf/14/../../../../arm-linux-gnueabihf/lib/libc.a(C_name.o)
 .data          0x000e03e0        0x0 /usr/lib/gcc-cross/arm-linux-gnueabihf/14/../../../../arm-linux-gnueabihf/lib/libc.a(SYS_libc.o)
 .data          0x000e03e0        0x0 /usr/lib/gcc-cross/arm-linux-gnueabihf/14/../../../../arm-linux-gnueabihf/lib/libc.a(global-locale.o)
 .data.rel      0x000e03e0       0x74 /usr/lib/gcc-cross/arm-linux-gnueabihf/14/../../../../arm-linux-gnueabihf/lib/libc.a(global-locale.o)
                0x000e03e0                _nl_global_locale
 .data          0x000e0454        0x0 /usr/lib/gcc-cross/arm-linux-gnueabihf/14/../../../../arm-linux-gnueabihf/lib/libc.a(xlocale.o)
 .data          0x000e0454        0x0 /usr/lib/gcc-cross/arm-linux-gnueabihf/14/../../../../arm-linux-gnueabihf/lib/libc.a(__libc_assert_fail.o)
 .data          0x000e0454        0x0 /usr/lib/gcc-cross/arm-linux-gnueabihf/14/../../../../arm-linux-gnueabihf/lib/libc.a(dcgettext.o)
 .data          0x000e0454        0x0 /usr/lib/gcc-cross/arm-linux-gnueabihf/14/../../../../arm-linux-gnueabihf/lib/libc.a(dcigettext.o)
 .data.rel.local
                0x000e0454        0x4 /usr/lib/gcc-cross/arm-linux-gnueabihf/14/../../../../arm-linux-gnueabihf/lib/libc.a(dcigettext.o)
                0x000e0454                _nl_current_default_domain
 .data          0x000e0458        0x0 /usr/lib/gcc-cross/arm-linux-gnueabihf/14/../../../../arm-linux-gnueabihf/lib/libc.a(finddomain.o)
 .data          0x000e0458        0x0 /usr/lib/gcc-cross/arm-linux-gnueabihf/14/../../../../arm-linux-gnueabihf/lib/libc.a(loadmsgcat.o)
 .data          0x000e0458        0x0 /usr/lib/gcc-cross/arm-linux-gnueabihf/14/../../../../arm-linux-gnueabihf/lib/libc.a(localealias.o)
 .data          0x000e0458        0x0 /usr/lib/gcc-cross/arm-linux-gnueabihf/14/../../../../arm-linux-gnueabihf/lib/libc.a(l10nflist.o)
 .data          0x000e0458        0x0 /usr/lib/gcc-cross/arm-linux-gnueabihf/14/../../../../arm-linux-gnueabihf/lib/libc.a(explodename.o)
 .data          0x000e0458        0x0 /usr/lib/gcc-cross/arm-linux-gnueabihf/14/../../../../arm-linux-gnueabihf/lib/libc.a(plural.o)
 .data          0x000e0458        0x0 /usr/lib/gcc-cross/arm-linux-gnueabihf/14/../../../../arm-linux-gnueabihf/lib/libc.a(plural-exp.o)
 .data          0x000e0458        0x0 /usr/lib/gcc-cross/arm-linux-gnueabihf/14/../../../../arm-linux-gnueabihf/lib/libc.a(hash-string.o)
 .data          0x000e0458        0x0 /usr/lib/gcc-cross/arm-linux-gnueabihf/14/../../../../arm-linux-gnueabihf/lib/libc.a(setjmp.o)
 .data          0x000e0458        0x0 /usr/lib/gcc-cross/arm-linux-gnueabihf/14/../../../../arm-linux-gnueabihf/lib/libc.a(sigjmp.o)
 .data          0x000e0458        0x0 /usr/lib/gcc-cross/arm-linux-gnueabihf/14/../../../../arm-linux-gnueabihf/lib/libc.a(raise.o)
 .data          0x000e0458        0x0 /usr/lib/gcc-cross/arm-linux-gnueabihf/14/../../../../arm-linux-gnueabihf/lib/libc.a(sigaction.o)
 .data          0x000e0458        0x0 /usr/lib/gcc-cross/arm-linux-gnueabihf/14/../../../../arm-linux-gnueabihf/lib/libc.a(libc_sigaction.o)
 .data          0x000e0458        0x0 /usr/lib/gcc-cross/arm-linux-gnueabihf/14/../../../../arm-linux-gnueabihf/lib/libc.a(sigprocmask.o)
 .data          0x000e0458        0x0 /usr/lib/gcc-cross/arm-linux-gnueabihf/14/../../../../arm-linux-gnueabihf/lib/libc.a(sigrestorer.o)
 .data          0x000e0458        0x0 /usr/lib/gcc-cross/arm-linux-gnueabihf/14/../../../../arm-linux-gnueabihf/lib/libc.a(getenv.o)
 .data          0x000e0458        0x0 /usr/lib/gcc-cross/arm-linux-gnueabihf/14/../../../../arm-linux-gnueabihf/lib/libc.a(getrandom.o)
 .data          0x000e0458        0x0 /usr/lib/gcc-cross/arm-linux-gnueabihf/14/../../../../arm-linux-gnueabihf/lib/libc.a(qsort.o)
 .data          0x000e0458        0x0 /usr/lib/gcc-cross/arm-linux-gnueabihf/14/../../../../arm-linux-gnueabihf/lib/libc.a(setenv.o)
 .data          0x000e0458        0x0 /usr/lib/gcc-cross/arm-linux-gnueabihf/14/../../../../arm-linux-gnueabihf/lib/libc.a(strtof.o)
 .data          0x000e0458        0x0 /usr/lib/gcc-cross/arm-linux-gnueabihf/14/../../../../arm-linux-gnueabihf/lib/libc.a(strtof_l.o)
 .data          0x000e0458        0x0 /usr/lib/gcc-cross/arm-linux-gnueabihf/14/../../../../arm-linux-gnueabihf/lib/libc.a(strtof_nan.o)
 .data          0x000e0458        0x0 /usr/lib/gcc-cross/arm-linux-gnueabihf/14/../../../../arm-linux-gnueabihf/lib/libc.a(strtold.o)
 .data          0x000e0458        0x0 /usr/lib/gcc-cross/arm-linux-gnueabihf/14/../../../../arm-linux-gnueabihf/lib/libc.a(strtold_l.o)
 .data          0x000e0458        0x0 /usr/lib/gcc-cross/arm-linux-gnueabihf/14/../../../../arm-linux-gnueabihf/lib/libc.a(strtoll.o)
 .data          0x000e0458        0x0 /usr/lib/gcc-cross/arm-linux-gnueabihf/14/../../../../arm-linux-gnueabihf/lib/libc.a(strtoll_l.o)
 .data          0x000e0458        0x0 /usr/lib/gcc-cross/arm-linux-gnueabihf/14/../../../../arm-linux-gnueabihf/lib/libc.a(strtoul.o)
 .data          0x000e0458        0x0 /usr/lib/gcc-cross/arm-linux-gnueabihf/14/../../../../arm-linux-gnueabihf/lib/libc.a(strtoul_l.o)
 .data          0x000e0458        0x0 /usr/lib/gcc-cross/arm-linux-gnueabihf/14/../../../../arm-linux-gnueabihf/lib/libc.a(strtoull.o)
 .data          0x000e0458        0x0 /usr/lib/gcc-cross/arm-linux-gnueabihf/14/../../../../arm-linux-gnueabihf/lib/libc.a(addmul_1.o)
 .data          0x000e0458        0x0 /usr/lib/gcc-cross/arm-linux-gnueabihf/14/../../../../arm-linux-gnueabihf/lib/libc.a(mpn2flt.o)
 .data          0x000e0458        0x0 /usr/lib/gcc-cross/arm-linux-gnueabihf/14/../../../../arm-linux-gnueabihf/lib/libc.a(_itoa.o)
 .data          0x000e0458        0x0 /usr/lib/gcc-cross/arm-linux-gnueabihf/14/../../../../arm-linux-gnueabihf/lib/libc.a(funlockfile.o)
 .data          0x000e0458        0x0 /usr/lib/gcc-cross/arm-linux-gnueabihf/14/../../../../arm-linux-gnueabihf/lib/libc.a(grouping_iterator.o)
 .data          0x000e0458        0x0 /usr/lib/gcc-cross/arm-linux-gnueabihf/14/../../../../arm-linux-gnueabihf/lib/libc.a(itoa-digits.o)
 .data          0x000e0458        0x0 /usr/lib/gcc-cross/arm-linux-gnueabihf/14/../../../../arm-linux-gnueabihf/lib/libc.a(itoa-udigits.o)
 .data          0x000e0458        0x0 /usr/lib/gcc-cross/arm-linux-gnueabihf/14/../../../../arm-linux-gnueabihf/lib/libc.a(printf_buffer_done.o)
 .data          0x000e0458        0x0 /usr/lib/gcc-cross/arm-linux-gnueabihf/14/../../../../arm-linux-gnueabihf/lib/libc.a(printf_buffer_pad_1.o)
 .data          0x000e0458        0x0 /usr/lib/gcc-cross/arm-linux-gnueabihf/14/../../../../arm-linux-gnueabihf/lib/libc.a(printf_buffer_putc_1.o)
 .data          0x000e0458        0x0 /usr/lib/gcc-cross/arm-linux-gnueabihf/14/../../../../arm-linux-gnueabihf/lib/libc.a(printf_buffer_puts_1.o)
 .data          0x000e0458        0x0 /usr/lib/gcc-cross/arm-linux-gnueabihf/14/../../../../arm-linux-gnueabihf/lib/libc.a(printf_buffer_to_file.o)
 .data          0x000e0458        0x0 /usr/lib/gcc-cross/arm-linux-gnueabihf/14/../../../../arm-linux-gnueabihf/lib/libc.a(printf_buffer_write.o)
 .data          0x000e0458        0x0 /usr/lib/gcc-cross/arm-linux-gnueabihf/14/../../../../arm-linux-gnueabihf/lib/libc.a(printf_fp.o)
 .data          0x000e0458        0x0 /usr/lib/gcc-cross/arm-linux-gnueabihf/14/../../../../arm-linux-gnueabihf/lib/libc.a(printf_fphex.o)
 .data          0x000e0458        0x0 /usr/lib/gcc-cross/arm-linux-gnueabihf/14/../../../../arm-linux-gnueabihf/lib/libc.a(printf_function_invoke.o)
 .data          0x000e0458        0x0 /usr/lib/gcc-cross/arm-linux-gnueabihf/14/../../../../arm-linux-gnueabihf/lib/libc.a(reg-modifier.o)
 .data          0x000e0458        0x0 /usr/lib/gcc-cross/arm-linux-gnueabihf/14/../../../../arm-linux-gnueabihf/lib/libc.a(reg-printf.o)
 .data          0x000e0458        0x4 /usr/lib/gcc-cross/arm-linux-gnueabihf/14/../../../../arm-linux-gnueabihf/lib/libc.a(reg-type.o)
 .data          0x000e045c        0x0 /usr/lib/gcc-cross/arm-linux-gnueabihf/14/../../../../arm-linux-gnueabihf/lib/libc.a(translated_number_width.o)
 .data          0x000e045c        0x0 /usr/lib/gcc-cross/arm-linux-gnueabihf/14/../../../../arm-linux-gnueabihf/lib/libc.a(wprintf_buffer_putc_1.o)
 .data          0x000e045c        0x0 /usr/lib/gcc-cross/arm-linux-gnueabihf/14/../../../../arm-linux-gnueabihf/lib/libc.a(wprintf_buffer_to_file.o)
 .data          0x000e045c        0x0 /usr/lib/gcc-cross/arm-linux-gnueabihf/14/../../../../arm-linux-gnueabihf/lib/libc.a(errlist.o)
 .data          0x000e045c        0x0 /usr/lib/gcc-cross/arm-linux-gnueabihf/14/../../../../arm-linux-gnueabihf/lib/libc.a(errlist-data.o)
 .data          0x000e045c        0x0 /usr/lib/gcc-cross/arm-linux-gnueabihf/14/../../../../arm-linux-gnueabihf/lib/libc.a(filedoalloc.o)
 .data          0x000e045c        0x0 /usr/lib/gcc-cross/arm-linux-gnueabihf/14/../../../../arm-linux-gnueabihf/lib/libc.a(iofopen.o)
 .data          0x000e045c        0x0 /usr/lib/gcc-cross/arm-linux-gnueabihf/14/../../../../arm-linux-gnueabihf/lib/libc.a(iofputs.o)
 .data          0x000e045c        0x0 /usr/lib/gcc-cross/arm-linux-gnueabihf/14/../../../../arm-linux-gnueabihf/lib/libc.a(iogetdelim.o)
 .data          0x000e045c        0x0 /usr/lib/gcc-cross/arm-linux-gnueabihf/14/../../../../arm-linux-gnueabihf/lib/libc.a(wfileops.o)
 .data          0x000e045c        0x0 /usr/lib/gcc-cross/arm-linux-gnueabihf/14/../../../../arm-linux-gnueabihf/lib/libc.a(iofgets_u.o)
 .data          0x000e045c        0x0 /usr/lib/gcc-cross/arm-linux-gnueabihf/14/../../../../arm-linux-gnueabihf/lib/libc.a(alloca_cutoff.o)
 .data          0x000e045c        0x0 /usr/lib/gcc-cross/arm-linux-gnueabihf/14/../../../../arm-linux-gnueabihf/lib/libc.a(cancellation.o)
 .data          0x000e045c        0x0 /usr/lib/gcc-cross/arm-linux-gnueabihf/14/../../../../arm-linux-gnueabihf/lib/libc.a(futex-internal.o)
 .data          0x000e045c        0x4 /usr/lib/gcc-cross/arm-linux-gnueabihf/14/../../../../arm-linux-gnueabihf/lib/libc.a(pthread_mutex_conf.o)
                0x000e045c                __mutex_aconf
 .data          0x000e0460        0x0 /usr/lib/gcc-cross/arm-linux-gnueabihf/14/../../../../arm-linux-gnueabihf/lib/libc.a(pthread_mutex_lock.o)
 .data          0x000e0460        0x0 /usr/lib/gcc-cross/arm-linux-gnueabihf/14/../../../../arm-linux-gnueabihf/lib/libc.a(pthread_mutex_unlock.o)
 .data          0x000e0460        0x0 /usr/lib/gcc-cross/arm-linux-gnueabihf/14/../../../../arm-linux-gnueabihf/lib/libc.a(pthread_once.o)
 .data          0x000e0460        0x0 /usr/lib/gcc-cross/arm-linux-gnueabihf/14/../../../../arm-linux-gnueabihf/lib/libc.a(pthread_self.o)
 .data          0x000e0460        0x0 /usr/lib/gcc-cross/arm-linux-gnueabihf/14/../../../../arm-linux-gnueabihf/lib/libc.a(pthread_sigmask.o)
 .data          0x000e0460        0x0 /usr/lib/gcc-cross/arm-linux-gnueabihf/14/../../../../arm-linux-gnueabihf/lib/libc.a(syscall_cancel.o)
 .data          0x000e0460        0x8 /usr/lib/gcc-cross/arm-linux-gnueabihf/14/../../../../arm-linux-gnueabihf/lib/libc.a(tpp.o)
                0x000e0460                __sched_fifo_max_prio
                0x000e0464                __sched_fifo_min_prio
 .data          0x000e0468        0x0 /usr/lib/gcc-cross/arm-linux-gnueabihf/14/../../../../arm-linux-gnueabihf/lib/libc.a(vars.o)
 .data          0x000e0468        0x0 /usr/lib/gcc-cross/arm-linux-gnueabihf/14/../../../../arm-linux-gnueabihf/lib/libc.a(argz-addsep.o)
 .data          0x000e0468        0x0 /usr/lib/gcc-cross/arm-linux-gnueabihf/14/../../../../arm-linux-gnueabihf/lib/libc.a(argz-ctsep.o)
 .data          0x000e0468        0x0 /usr/lib/gcc-cross/arm-linux-gnueabihf/14/../../../../arm-linux-gnueabihf/lib/libc.a(memchr.o)
 .data          0x000e0468        0x0 /usr/lib/gcc-cross/arm-linux-gnueabihf/14/../../../../arm-linux-gnueabihf/lib/libc.a(strcasecmp_l.o)
 .data          0x000e0468        0x0 /usr/lib/gcc-cross/arm-linux-gnueabihf/14/../../../../arm-linux-gnueabihf/lib/libc.a(strcpy.o)
 .data          0x000e0468        0x0 /usr/lib/gcc-cross/arm-linux-gnueabihf/14/../../../../arm-linux-gnueabihf/lib/libc.a(strcspn.o)
 .data          0x000e0468        0x0 /usr/lib/gcc-cross/arm-linux-gnueabihf/14/../../../../arm-linux-gnueabihf/lib/libc.a(strtok_r.o)
 .data          0x000e0468        0x0 /usr/lib/gcc-cross/arm-linux-gnueabihf/14/../../../../arm-linux-gnueabihf/lib/libc.a(memchr_neon.o)
 .data          0x000e0468        0x0 /usr/lib/gcc-cross/arm-linux-gnueabihf/14/../../../../arm-linux-gnueabihf/lib/libc.a(memchr_noneon.o)
 .data          0x000e0468        0x0 /usr/lib/gcc-cross/arm-linux-gnueabihf/14/../../../../arm-linux-gnueabihf/lib/libc.a(wcslen.o)
 .data          0x000e0468        0x0 /usr/lib/gcc-cross/arm-linux-gnueabihf/14/../../../../arm-linux-gnueabihf/lib/libc.a(wcsnlen.o)
 .data          0x000e0468        0x0 /usr/lib/gcc-cross/arm-linux-gnueabihf/14/../../../../arm-linux-gnueabihf/lib/libc.a(wmemchr.o)
 .data          0x000e0468        0x0 /usr/lib/gcc-cross/arm-linux-gnueabihf/14/../../../../arm-linux-gnueabihf/lib/libc.a(closedir.o)
 .data          0x000e0468        0x0 /usr/lib/gcc-cross/arm-linux-gnueabihf/14/../../../../arm-linux-gnueabihf/lib/libc.a(getdents64.o)
 .data          0x000e0468        0x0 /usr/lib/gcc-cross/arm-linux-gnueabihf/14/../../../../arm-linux-gnueabihf/lib/libc.a(opendir.o)
 .data          0x000e0468        0x0 /usr/lib/gcc-cross/arm-linux-gnueabihf/14/../../../../arm-linux-gnueabihf/lib/libc.a(readdir64.o)
 .data          0x000e0468        0x0 /usr/lib/gcc-cross/arm-linux-gnueabihf/14/../../../../arm-linux-gnueabihf/lib/libc.a(execve.o)
 .data          0x000e0468        0x0 /usr/lib/gcc-cross/arm-linux-gnueabihf/14/../../../../arm-linux-gnueabihf/lib/libc.a(execvpe.o)
 .data          0x000e0468        0x0 /usr/lib/gcc-cross/arm-linux-gnueabihf/14/../../../../arm-linux-gnueabihf/lib/libc.a(getgid.o)
 .data          0x000e0468        0x0 /usr/lib/gcc-cross/arm-linux-gnueabihf/14/../../../../arm-linux-gnueabihf/lib/libc.a(getpgid.o)
 .data          0x000e0468        0x0 /usr/lib/gcc-cross/arm-linux-gnueabihf/14/../../../../arm-linux-gnueabihf/lib/libc.a(getuid.o)
 .data          0x000e0468        0x0 /usr/lib/gcc-cross/arm-linux-gnueabihf/14/../../../../arm-linux-gnueabihf/lib/libc.a(nanosleep.o)
 .data          0x000e0468        0x0 /usr/lib/gcc-cross/arm-linux-gnueabihf/14/../../../../arm-linux-gnueabihf/lib/libc.a(sched_cpucount.o)
 .data          0x000e0468        0x0 /usr/lib/gcc-cross/arm-linux-gnueabihf/14/../../../../arm-linux-gnueabihf/lib/libc.a(sched_getp.o)
 .data          0x000e0468        0x0 /usr/lib/gcc-cross/arm-linux-gnueabihf/14/../../../../arm-linux-gnueabihf/lib/libc.a(sched_gets.o)
 .data          0x000e0468        0x0 /usr/lib/gcc-cross/arm-linux-gnueabihf/14/../../../../arm-linux-gnueabihf/lib/libc.a(sched_primax.o)
 .data          0x000e0468        0x0 /usr/lib/gcc-cross/arm-linux-gnueabihf/14/../../../../arm-linux-gnueabihf/lib/libc.a(sched_primin.o)
 .data          0x000e0468        0x0 /usr/lib/gcc-cross/arm-linux-gnueabihf/14/../../../../arm-linux-gnueabihf/lib/libc.a(sched_setp.o)
 .data          0x000e0468        0x0 /usr/lib/gcc-cross/arm-linux-gnueabihf/14/../../../../arm-linux-gnueabihf/lib/libc.a(sched_sets.o)
 .data          0x000e0468        0x0 /usr/lib/gcc-cross/arm-linux-gnueabihf/14/../../../../arm-linux-gnueabihf/lib/libc.a(setpgid.o)
 .data          0x000e0468        0x0 /usr/lib/gcc-cross/arm-linux-gnueabihf/14/../../../../arm-linux-gnueabihf/lib/libc.a(setsid.o)
 .data          0x000e0468        0x0 /usr/lib/gcc-cross/arm-linux-gnueabihf/14/../../../../arm-linux-gnueabihf/lib/libc.a(wait4.o)
 .data          0x000e0468        0x0 /usr/lib/gcc-cross/arm-linux-gnueabihf/14/../../../../arm-linux-gnueabihf/lib/libc.a(getcwd.o)
 .data          0x000e0468        0x0 /usr/lib/gcc-cross/arm-linux-gnueabihf/14/../../../../arm-linux-gnueabihf/lib/libc.a(isatty.o)
 .data          0x000e0468        0x0 /usr/lib/gcc-cross/arm-linux-gnueabihf/14/../../../../arm-linux-gnueabihf/lib/libc.a(lseek.o)
 .data          0x000e0468        0x0 /usr/lib/gcc-cross/arm-linux-gnueabihf/14/../../../../arm-linux-gnueabihf/lib/libc.a(lstat64.o)
 .data          0x000e0468        0x0 /usr/lib/gcc-cross/arm-linux-gnueabihf/14/../../../../arm-linux-gnueabihf/lib/libc.a(openat64.o)
 .data          0x000e0468        0x0 /usr/lib/gcc-cross/arm-linux-gnueabihf/14/../../../../arm-linux-gnueabihf/lib/libc.a(open64_nocancel.o)
 .data          0x000e0468        0x0 /usr/lib/gcc-cross/arm-linux-gnueabihf/14/../../../../arm-linux-gnueabihf/lib/libc.a(openat_nocancel.o)
 .data          0x000e0468        0x0 /usr/lib/gcc-cross/arm-linux-gnueabihf/14/../../../../arm-linux-gnueabihf/lib/libc.a(pread64_nocancel.o)
 .data          0x000e0468        0x0 /usr/lib/gcc-cross/arm-linux-gnueabihf/14/../../../../arm-linux-gnueabihf/lib/libc.a(getrlimit.o)
 .data          0x000e0468        0x0 /usr/lib/gcc-cross/arm-linux-gnueabihf/14/../../../../arm-linux-gnueabihf/lib/libc.a(tsearch.o)
 .data          0x000e0468        0x0 /usr/lib/gcc-cross/arm-linux-gnueabihf/14/../../../../arm-linux-gnueabihf/lib/libc.a(init-misc.o)
 .data.rel.local
                0x000e0468        0x8 /usr/lib/gcc-cross/arm-linux-gnueabihf/14/../../../../arm-linux-gnueabihf/lib/libc.a(init-misc.o)
                0x000e0468                __progname
                0x000e0468                program_invocation_short_name
                0x000e046c                program_invocation_name
                0x000e046c                __progname_full
 .data          0x000e0470        0x0 /usr/lib/gcc-cross/arm-linux-gnueabihf/14/../../../../arm-linux-gnueabihf/lib/libc.a(clone.o)
 .data          0x000e0470        0x0 /usr/lib/gcc-cross/arm-linux-gnueabihf/14/../../../../arm-linux-gnueabihf/lib/libc.a(asprintf_chk.o)
 .data          0x000e0470        0x0 /usr/lib/gcc-cross/arm-linux-gnueabihf/14/../../../../arm-linux-gnueabihf/lib/libc.a(memmove_chk.o)
 .data          0x000e0470        0x0 /usr/lib/gcc-cross/arm-linux-gnueabihf/14/../../../../arm-linux-gnueabihf/lib/libc.a(dl-catch.o)
 .data          0x000e0470        0x0 /usr/lib/gcc-cross/arm-linux-gnueabihf/14/../../../../arm-linux-gnueabihf/lib/libc.a(dl-exception.o)
 .data          0x000e0470        0x0 /usr/lib/gcc-cross/arm-linux-gnueabihf/14/../../../../arm-linux-gnueabihf/lib/libc.a(dl-execstack-tunable.o)
 .data          0x000e0470        0x0 /usr/lib/gcc-cross/arm-linux-gnueabihf/14/../../../../arm-linux-gnueabihf/lib/libc.a(dl-load.o)
 .data          0x000e0470        0x0 /usr/lib/gcc-cross/arm-linux-gnueabihf/14/../../../../arm-linux-gnueabihf/lib/libc.a(dl-lookup.o)
 .data          0x000e0470        0x0 /usr/lib/gcc-cross/arm-linux-gnueabihf/14/../../../../arm-linux-gnueabihf/lib/libc.a(dl-misc.o)
 .data          0x000e0470        0x0 /usr/lib/gcc-cross/arm-linux-gnueabihf/14/../../../../arm-linux-gnueabihf/lib/libc.a(dl-object.o)
 .data          0x000e0470        0x0 /usr/lib/gcc-cross/arm-linux-gnueabihf/14/../../../../arm-linux-gnueabihf/lib/libc.a(dl-origin.o)
 .data          0x000e0470        0x0 /usr/lib/gcc-cross/arm-linux-gnueabihf/14/../../../../arm-linux-gnueabihf/lib/libc.a(dl-printf.o)
 .data          0x000e0470        0x0 /usr/lib/gcc-cross/arm-linux-gnueabihf/14/../../../../arm-linux-gnueabihf/lib/libc.a(dl-reloc.o)
 .data          0x000e0470        0x0 /usr/lib/gcc-cross/arm-linux-gnueabihf/14/../../../../arm-linux-gnueabihf/lib/libc.a(dl-scope.o)
 .data          0x000e0470        0x0 /usr/lib/gcc-cross/arm-linux-gnueabihf/14/../../../../arm-linux-gnueabihf/lib/libc.a(dl-setup_hash.o)
 .data          0x000e0470        0x0 /usr/lib/gcc-cross/arm-linux-gnueabihf/14/../../../../arm-linux-gnueabihf/lib/libc.a(dl-thread_gscope_wait.o)
 .data          0x000e0470        0x0 /usr/lib/gcc-cross/arm-linux-gnueabihf/14/../../../../arm-linux-gnueabihf/lib/libc.a(dl-trampoline.o)
 .data          0x000e0470        0x0 /usr/lib/gcc-cross/arm-linux-gnueabihf/14/../../../../arm-linux-gnueabihf/lib/libc.a(dl-cache.o)
 .data          0x000e0470        0x0 /usr/lib/gcc-cross/arm-linux-gnueabihf/14/../../../../arm-linux-gnueabihf/lib/libc.a(dl-tlsdesc.o)
 .data          0x000e0470        0x0 /usr/lib/gcc-cross/arm-linux-gnueabihf/14/../../../../arm-linux-gnueabihf/lib/libc.a(dl-libc.o)
 .data          0x000e0470        0x0 /usr/lib/gcc-cross/arm-linux-gnueabihf/14/../../../../arm-linux-gnueabihf/lib/libc.a(gconv_open.o)
 .data          0x000e0470        0x0 /usr/lib/gcc-cross/arm-linux-gnueabihf/14/../../../../arm-linux-gnueabihf/lib/libc.a(gconv.o)
 .data          0x000e0470        0x0 /usr/lib/gcc-cross/arm-linux-gnueabihf/14/../../../../arm-linux-gnueabihf/lib/libc.a(gconv_close.o)
 .data          0x000e0470        0x0 /usr/lib/gcc-cross/arm-linux-gnueabihf/14/../../../../arm-linux-gnueabihf/lib/libc.a(gconv_charset.o)
 .data          0x000e0470        0x0 /usr/lib/gcc-cross/arm-linux-gnueabihf/14/../../../../arm-linux-gnueabihf/lib/libc.a(findlocale.o)
 .data          0x000e0470        0x0 /usr/lib/gcc-cross/arm-linux-gnueabihf/14/../../../../arm-linux-gnueabihf/lib/libc.a(loadarchive.o)
 .data          0x000e0470        0x0 /usr/lib/gcc-cross/arm-linux-gnueabihf/14/../../../../arm-linux-gnueabihf/lib/libc.a(loadlocale.o)
 .data          0x000e0470        0x0 /usr/lib/gcc-cross/arm-linux-gnueabihf/14/../../../../arm-linux-gnueabihf/lib/libc.a(C-address.o)
 .data          0x000e0470        0x0 /usr/lib/gcc-cross/arm-linux-gnueabihf/14/../../../../arm-linux-gnueabihf/lib/libc.a(C-collate.o)
 .data          0x000e0470        0x0 /usr/lib/gcc-cross/arm-linux-gnueabihf/14/../../../../arm-linux-gnueabihf/lib/libc.a(C-ctype.o)
 .data          0x000e0470        0x0 /usr/lib/gcc-cross/arm-linux-gnueabihf/14/../../../../arm-linux-gnueabihf/lib/libc.a(C-identification.o)
 .data          0x000e0470        0x0 /usr/lib/gcc-cross/arm-linux-gnueabihf/14/../../../../arm-linux-gnueabihf/lib/libc.a(C-measurement.o)
 .data          0x000e0470        0x0 /usr/lib/gcc-cross/arm-linux-gnueabihf/14/../../../../arm-linux-gnueabihf/lib/libc.a(C-messages.o)
 .data          0x000e0470        0x0 /usr/lib/gcc-cross/arm-linux-gnueabihf/14/../../../../arm-linux-gnueabihf/lib/libc.a(C-monetary.o)
 .data          0x000e0470        0x0 /usr/lib/gcc-cross/arm-linux-gnueabihf/14/../../../../arm-linux-gnueabihf/lib/libc.a(C-name.o)
 .data          0x000e0470        0x0 /usr/lib/gcc-cross/arm-linux-gnueabihf/14/../../../../arm-linux-gnueabihf/lib/libc.a(C-numeric.o)
 .data          0x000e0470        0x0 /usr/lib/gcc-cross/arm-linux-gnueabihf/14/../../../../arm-linux-gnueabihf/lib/libc.a(C-paper.o)
 .data          0x000e0470        0x0 /usr/lib/gcc-cross/arm-linux-gnueabihf/14/../../../../arm-linux-gnueabihf/lib/libc.a(C-telephone.o)
 .data          0x000e0470        0x0 /usr/lib/gcc-cross/arm-linux-gnueabihf/14/../../../../arm-linux-gnueabihf/lib/libc.a(C-time.o)
 .data          0x000e0470        0x0 /usr/lib/gcc-cross/arm-linux-gnueabihf/14/../../../../arm-linux-gnueabihf/lib/libc.a(localename.o)
 .data          0x000e0470        0x0 /usr/lib/gcc-cross/arm-linux-gnueabihf/14/../../../../arm-linux-gnueabihf/lib/libc.a(__longjmp.o)
 .data          0x000e0470        0x0 /usr/lib/gcc-cross/arm-linux-gnueabihf/14/../../../../arm-linux-gnueabihf/lib/libc.a(divrem.o)
 .data          0x000e0470        0x0 /usr/lib/gcc-cross/arm-linux-gnueabihf/14/../../../../arm-linux-gnueabihf/lib/libc.a(dbl2mpn.o)
 .data          0x000e0470        0x0 /usr/lib/gcc-cross/arm-linux-gnueabihf/14/../../../../arm-linux-gnueabihf/lib/libc.a(printf_buffer_as_file.o)
 .data          0x000e0470        0x0 /usr/lib/gcc-cross/arm-linux-gnueabihf/14/../../../../arm-linux-gnueabihf/lib/libc.a(printf_buffer_flush.o)
 .data          0x000e0470        0x0 /usr/lib/gcc-cross/arm-linux-gnueabihf/14/../../../../arm-linux-gnueabihf/lib/libc.a(wprintf_buffer_done.o)
 .data          0x000e0470        0x0 /usr/lib/gcc-cross/arm-linux-gnueabihf/14/../../../../arm-linux-gnueabihf/lib/libc.a(wprintf_buffer_flush.o)
 .data          0x000e0470        0x0 /usr/lib/gcc-cross/arm-linux-gnueabihf/14/../../../../arm-linux-gnueabihf/lib/libc.a(iogetline.o)
 .data          0x000e0470        0x0 /usr/lib/gcc-cross/arm-linux-gnueabihf/14/../../../../arm-linux-gnueabihf/lib/libc.a(vasprintf.o)
 .data          0x000e0470        0x0 /usr/lib/gcc-cross/arm-linux-gnueabihf/14/../../../../arm-linux-gnueabihf/lib/libc.a(cleanup_compat.o)
 .data          0x000e0470        0x8 /usr/lib/gcc-cross/arm-linux-gnueabihf/14/../../../../arm-linux-gnueabihf/lib/libc.a(nptl-stack.o)
                0x000e0470                __nptl_stack_cache_maxsize
                0x000e0474                __nptl_stack_hugetlb
 .data          0x000e0478        0x0 /usr/lib/gcc-cross/arm-linux-gnueabihf/14/../../../../arm-linux-gnueabihf/lib/libc.a(memmem.o)
 .data          0x000e0478        0x0 /usr/lib/gcc-cross/arm-linux-gnueabihf/14/../../../../arm-linux-gnueabihf/lib/libc.a(strndup.o)
 .data          0x000e0478        0x0 /usr/lib/gcc-cross/arm-linux-gnueabihf/14/../../../../arm-linux-gnueabihf/lib/libc.a(strsep.o)
 .data          0x000e0478        0x0 /usr/lib/gcc-cross/arm-linux-gnueabihf/14/../../../../arm-linux-gnueabihf/lib/libc.a(strspn.o)
 .data          0x000e0478        0x0 /usr/lib/gcc-cross/arm-linux-gnueabihf/14/../../../../arm-linux-gnueabihf/lib/libc.a(clock_nanosleep.o)
 .data          0x000e0478        0x0 /usr/lib/gcc-cross/arm-linux-gnueabihf/14/../../../../arm-linux-gnueabihf/lib/libc.a(lc-time-cleanup.o)
 .data          0x000e0478        0x0 /usr/lib/gcc-cross/arm-linux-gnueabihf/14/../../../../arm-linux-gnueabihf/lib/libc.a(fdopendir.o)
 .data          0x000e0478        0x0 /usr/lib/gcc-cross/arm-linux-gnueabihf/14/../../../../arm-linux-gnueabihf/lib/libc.a(rewinddir.o)
 .data          0x000e0478        0x0 /usr/lib/gcc-cross/arm-linux-gnueabihf/14/../../../../arm-linux-gnueabihf/lib/libc.a(sysconf.o)
 .data          0x000e0478        0x0 /usr/lib/gcc-cross/arm-linux-gnueabihf/14/../../../../arm-linux-gnueabihf/lib/libc.a(stat64.o)
 .data          0x000e0478        0x0 /usr/lib/gcc-cross/arm-linux-gnueabihf/14/../../../../arm-linux-gnueabihf/lib/libc.a(getclktck.o)
 .data          0x000e0478        0x0 /usr/lib/gcc-cross/arm-linux-gnueabihf/14/../../../../arm-linux-gnueabihf/lib/libc.a(getdtsz.o)
 .data          0x000e0478        0x0 /usr/lib/gcc-cross/arm-linux-gnueabihf/14/../../../../arm-linux-gnueabihf/lib/libc.a(dl-close.o)
 .data          0x000e0478        0x0 /usr/lib/gcc-cross/arm-linux-gnueabihf/14/../../../../arm-linux-gnueabihf/lib/libc.a(dl-execstack.o)
 .data          0x000e0478        0x0 /usr/lib/gcc-cross/arm-linux-gnueabihf/14/../../../../arm-linux-gnueabihf/lib/libc.a(dl-open.o)
 .data          0x000e0478        0x0 /usr/lib/gcc-cross/arm-linux-gnueabihf/14/../../../../arm-linux-gnueabihf/lib/libc.a(dl-runtime.o)
 .data          0x000e0478        0x0 /usr/lib/gcc-cross/arm-linux-gnueabihf/14/../../../../arm-linux-gnueabihf/lib/libc.a(dl-sort-maps.o)
 .data          0x000e0478        0x0 /usr/lib/gcc-cross/arm-linux-gnueabihf/14/../../../../arm-linux-gnueabihf/lib/libc.a(dl-version.o)
 .data          0x000e0478        0x0 /usr/lib/gcc-cross/arm-linux-gnueabihf/14/../../../../arm-linux-gnueabihf/lib/libc.a(tlsdesc.o)
 .data          0x000e0478        0x0 /usr/lib/gcc-cross/arm-linux-gnueabihf/14/../../../../arm-linux-gnueabihf/lib/libc.a(dl-addr-obj.o)
 .data          0x000e0478        0x0 /usr/lib/gcc-cross/arm-linux-gnueabihf/14/../../../../arm-linux-gnueabihf/lib/libc.a(dl-find_object.o)
 .data          0x000e0478        0x0 /usr/lib/gcc-cross/arm-linux-gnueabihf/14/../../../../arm-linux-gnueabihf/lib/libc.a(rtld_static_init.o)
 .data          0x000e0478        0x0 /usr/lib/gcc-cross/arm-linux-gnueabihf/14/../../../../arm-linux-gnueabihf/lib/libc.a(dladdr.o)
 .data          0x000e0478        0x0 /usr/lib/gcc-cross/arm-linux-gnueabihf/14/../../../../arm-linux-gnueabihf/lib/libc.a(dladdr1.o)
 .data          0x000e0478        0x0 /usr/lib/gcc-cross/arm-linux-gnueabihf/14/../../../../arm-linux-gnueabihf/lib/libc.a(dlclose.o)
 .data          0x000e0478        0x0 /usr/lib/gcc-cross/arm-linux-gnueabihf/14/../../../../arm-linux-gnueabihf/lib/libc.a(dlerror.o)
 .data          0x000e0478        0x0 /usr/lib/gcc-cross/arm-linux-gnueabihf/14/../../../../arm-linux-gnueabihf/lib/libc.a(dlinfo.o)
 .data          0x000e0478        0x0 /usr/lib/gcc-cross/arm-linux-gnueabihf/14/../../../../arm-linux-gnueabihf/lib/libc.a(dlmopen.o)
 .data          0x000e0478        0x0 /usr/lib/gcc-cross/arm-linux-gnueabihf/14/../../../../arm-linux-gnueabihf/lib/libc.a(dlopen.o)
 .data          0x000e0478        0x0 /usr/lib/gcc-cross/arm-linux-gnueabihf/14/../../../../arm-linux-gnueabihf/lib/libc.a(dlsym.o)
 .data          0x000e0478        0x0 /usr/lib/gcc-cross/arm-linux-gnueabihf/14/../../../../arm-linux-gnueabihf/lib/libc.a(dlvsym.o)
 .data          0x000e0478        0x0 /usr/lib/gcc-cross/arm-linux-gnueabihf/14/../../../../arm-linux-gnueabihf/lib/libc.a(libc_dlerror_result.o)
 .data          0x000e0478        0x0 /usr/lib/gcc-cross/arm-linux-gnueabihf/14/../../../../arm-linux-gnueabihf/lib/libc.a(get_child_max.o)
 .data          0x000e0478        0x0 /usr/lib/gcc-cross/arm-linux-gnueabihf/14/../../../../arm-linux-gnueabihf/lib/libc.a(atomic_wide_counter.o)
 .data          0x000e0478        0x0 /usr/lib/gcc-cross/arm-linux-gnueabihf/14/../../../../arm-linux-gnueabihf/lib/libc.a(dl-call-libc-early-init.o)
 .data          0x000e0478        0x0 /usr/lib/gcc-cross/arm-linux-gnueabihf/14/../../../../arm-linux-gnueabihf/lib/libc.a(dl-call_fini.o)
 .data          0x000e0478        0x0 /usr/lib/gcc-cross/arm-linux-gnueabihf/14/../../../../arm-linux-gnueabihf/lib/libc.a(dl-deps.o)
 .data          0x000e0478        0x0 /usr/lib/gcc-cross/arm-linux-gnueabihf/14/../../../../arm-linux-gnueabihf/lib/libc.a(dl-init.o)
 .data          0x000e0478        0x0 /usr/lib/gcc-cross/arm-linux-gnueabihf/14/../../../../arm-linux-gnueabihf/lib/libc.a(dl-lookup-direct.o)
 .data          0x000e0478        0x0 /usr/lib/gcc-cross/arm-linux-gnueabihf/14/../../../../arm-linux-gnueabihf/lib/libc.a(dl-addr.o)
 .data          0x000e0478        0x0 /usr/lib/gcc-cross/arm-linux-gnueabihf/14/../../../../arm-linux-gnueabihf/lib/libc.a(dl-sym.o)
 .data          0x000e0478        0x0 /usr/lib/gcc-cross/arm-linux-gnueabihf/14/../../../../arm-linux-gnueabihf/lib/libc.a(asprintf.o)
 .data          0x000e0478        0x0 /usr/lib/gcc-cross/arm-linux-gnueabihf/14/libgcc.a(_udivsi3.o)
 .data          0x000e0478        0x0 /usr/lib/gcc-cross/arm-linux-gnueabihf/14/libgcc.a(_divsi3.o)
 .data          0x000e0478        0x0 /usr/lib/gcc-cross/arm-linux-gnueabihf/14/libgcc.a(_aeabi_ldivmod.o)
 .data          0x000e0478        0x0 /usr/lib/gcc-cross/arm-linux-gnueabihf/14/libgcc.a(_dvmd_lnx.o)
 .data          0x000e0478        0x0 /usr/lib/gcc-cross/arm-linux-gnueabihf/14/libgcc.a(_udivmoddi4.o)
 .data          0x000e0478        0x0 /usr/lib/gcc-cross/arm-linux-gnueabihf/14/libgcc_eh.a(unwind-arm.o)
 .data          0x000e0478        0x0 /usr/lib/gcc-cross/arm-linux-gnueabihf/14/libgcc_eh.a(libunwind.o)
 .data          0x000e0478        0x0 /usr/lib/gcc-cross/arm-linux-gnueabihf/14/libgcc_eh.a(pr-support.o)
 .data          0x000e0478        0x0 /usr/lib/gcc-cross/arm-linux-gnueabihf/14/libgcc_eh.a(unwind-c.o)
 .data          0x000e0478        0x0 /usr/lib/gcc-cross/arm-linux-gnueabihf/14/crtend.o
 .data          0x000e0478        0x0 /usr/lib/gcc-cross/arm-linux-gnueabihf/14/../../../../arm-linux-gnueabihf/lib/crtn.o

.tm_clone_table
                0x000e0478        0x0
 .tm_clone_table
                0x000e0478        0x0 /usr/lib/gcc-cross/arm-linux-gnueabihf/14/crtbeginT.o
 .tm_clone_table
                0x000e0478        0x0 /usr/lib/gcc-cross/arm-linux-gnueabihf/14/crtend.o

.data1
 *(.data1)
                0x000e0478                        _edata = .
                [!provide]                        PROVIDE (edata = .)
                0x000e0478                        . = ALIGN (ALIGNOF (NEXT_SECTION))
                0x000e0478                        __bss_start = .
                0x000e0478                        __bss_start__ = .

.bss            0x000e0478    0x3e638
 *(.dynbss)
 *(.bss .bss.* .gnu.linkonce.b.*)
 .bss           0x000e0478        0x0 /usr/lib/gcc-cross/arm-linux-gnueabihf/14/../../../../arm-linux-gnueabihf/lib/crt1.o
 .bss           0x000e0478        0x0 /usr/lib/gcc-cross/arm-linux-gnueabihf/14/../../../../arm-linux-gnueabihf/lib/crti.o
 .bss           0x000e0478       0x1c /usr/lib/gcc-cross/arm-linux-gnueabihf/14/crtbeginT.o
 .bss           0x000e0494      0x6c4 build/i_video_fbdev.o
                0x000e0494                fb
                0x000e0534                usemouse
                0x000e0538                I_VideoBuffer
                0x000e053c                I_VideoBuffer_FB
                0x000e0540                fd_fb
                0x000e0544                X_width
                0x000e0548                X_height
                0x000e054c                screensaver_mode
                0x000e0550                screenvisible
                0x000e0554                usegamma
 .bss           0x000e0b58       0x40 build/i_input_tty.o
 .bss           0x000e0b98        0x0 build/i_main.o
 .bss           0x000e0b98        0x8 build/dummy.o
                0x000e0b98                net_client_connected
                0x000e0b9c                drone
 .bss           0x000e0ba0      0x158 build/am_map.o
                0x000e0ba0                automapactive
 .bss           0x000e0cf8        0x0 build/doomdef.o
 .bss           0x000e0cf8        0xc build/doomstat.o
                0x000e0cf8                gamemission
                0x000e0cfc                gamedescription
                0x000e0d00                modifiedgame
 .bss           0x000e0d04        0x0 build/dstrings.o
 .bss           0x000e0d04      0x508 build/d_event.o
 .bss           0x000e120c        0x0 build/d_items.o
 .bss           0x000e120c      0x208 build/d_iwad.o
 .bss           0x000e1414     0x5068 build/d_loop.o
                0x000e1414                gametic
                0x000e1418                singletics
                0x000e141c                ticdup
                0x000e1420                offsetms
                0x000e1424                lasttime
 .bss           0x000e647c      0x8dc build/d_main.o
                0x000e647c                savegamedir
                0x000e6480                iwadfile
                0x000e6484                devparm
                0x000e6488                nomonsters
                0x000e648c                respawnparm
                0x000e6490                fastparm
                0x000e6494                startskill
                0x000e6498                startepisode
                0x000e649c                startmap
                0x000e64a0                autostart
                0x000e64a4                startloadgame
                0x000e64a8                advancedemo
                0x000e64ac                storedemo
                0x000e64b0                bfgedition
                0x000e64b4                main_loop_started
                0x000e64b8                wadfile
                0x000e68b8                mapdir
                0x000e6cb8                demosequence
                0x000e6cbc                pagetic
                0x000e6cc0                pagename
                0x000e6cc4                title
 .bss           0x000e6d58        0x0 build/d_mode.o
 .bss           0x000e6d58       0x54 build/d_net.o
                0x000e6d58                netcmds
 .bss           0x000e6dac       0x30 build/f_finale.o
                0x000e6dac                finalestage
                0x000e6db0                finalecount
                0x000e6db4                finaletext
                0x000e6db8                finaleflat
                0x000e6dbc                castnum
                0x000e6dc0                casttics
                0x000e6dc4                caststate
                0x000e6dc8                castdeath
                0x000e6dcc                castframes
                0x000e6dd0                castonmelee
                0x000e6dd4                castattacking
 .bss           0x000e6ddc       0x14 build/f_wipe.o
 .bss           0x000e6df0      0xec4 build/g_game.o
                0x000e6df0                oldgamestate
                0x000e6df4                gameaction
                0x000e6df8                gamestate
                0x000e6dfc                gameskill
                0x000e6e00                respawnmonsters
                0x000e6e04                gameepisode
                0x000e6e08                gamemap
                0x000e6e0c                timelimit
                0x000e6e10                paused
                0x000e6e14                sendpause
                0x000e6e18                sendsave
                0x000e6e1c                usergame
                0x000e6e20                timingdemo
                0x000e6e24                nodrawers
                0x000e6e28                starttime
                0x000e6e2c                viewactive
                0x000e6e30                deathmatch
                0x000e6e34                netgame
                0x000e6e38                playeringame
                0x000e6e48                players
                0x000e72c8                turbodetected
                0x000e72d8                consoleplayer
                0x000e72dc                displayplayer
                0x000e72e0                levelstarttic
                0x000e72e4                totalkills
                0x000e72e8                totalitems
                0x000e72ec                totalsecret
                0x000e72f0                demoname
                0x000e72f4                demorecording
                0x000e72f8                longtics
                0x000e72fc                lowres_turn
                0x000e7300                demoplayback
                0x000e7304                netdemo
                0x000e7308                demobuffer
                0x000e730c                demo_p
                0x000e7310                demoend
                0x000e7314                singledemo
                0x000e7318                testcontrols
                0x000e731c                testcontrols_mousespeed
                0x000e7320                wminfo
                0x000e73e8                consistancy
                0x000e75e8                mousex
                0x000e75ec                mousey
                0x000e75f0                bodyque
                0x000e7670                bodyqueslot
                0x000e7674                secretexit
                0x000e7678                savename
                0x000e7778                d_skill
                0x000e777c                d_episode
                0x000e7780                d_map
                0x000e7784                defdemoname
 .bss           0x000e7cb4        0x0 build/hu_lib.o
 .bss           0x000e7cb4      0x689 build/hu_stuff.o
                0x000e7cb4                chat_char
                0x000e7cb8                hu_font
                0x000e7db4                chat_on
                0x000e7db8                message_dontfuckwithme
 .bss           0x000e833d        0x0 build/info.o
 *fill*         0x000e833d        0x3 
 .bss           0x000e8340        0x4 build/i_cdmus.o
                0x000e8340                cd_Error
 .bss           0x000e8344        0x0 build/i_endoom.o
 .bss           0x000e8344       0x14 build/i_joystick.o
 .bss           0x000e8358       0x18 build/i_scale.o
 .bss           0x000e8370       0x10 build/i_sound.o
 .bss           0x000e8380       0x18 build/i_system.o
 .bss           0x000e8398        0x4 build/i_timer.o
 .bss           0x000e839c        0x0 build/memio.o
 .bss           0x000e839c        0x8 build/m_argv.o
                0x000e839c                myargc
                0x000e83a0                myargv
 .bss           0x000e83a4        0x0 build/m_bbox.o
 .bss           0x000e83a4        0x0 build/m_cheat.o
 .bss           0x000e83a4        0xc build/m_config.o
                0x000e83a4                configdir
 .bss           0x000e83b0       0x34 build/m_controls.o
                0x000e83b0                mousebfire
                0x000e83b4                key_multi_msgplayer
                0x000e83d4                key_prevweapon
                0x000e83d8                key_nextweapon
                0x000e83dc                key_menu_screenshot
                0x000e83e0                joybfire
 .bss           0x000e83e4        0x0 build/m_fixed.o
 .bss           0x000e83e4      0x280 build/m_menu.o
                0x000e83e4                detailLevel
                0x000e83e8                screenSize
                0x000e83ec                quickSaveSlot
                0x000e83f0                messageToPrint
                0x000e83f4                messageString
                0x000e83f8                messx
                0x000e83fc                messy
                0x000e8400                messageLastMenuActive
                0x000e8404                messageNeedsInput
                0x000e8408                messageRoutine
                0x000e840c                saveStringEnter
                0x000e8410                saveSlot
                0x000e8414                saveCharIndex
                0x000e8418                saveOldString
                0x000e8430                inhelpscreens
                0x000e8434                menuactive
                0x000e8438                savegamestrings
                0x000e8528                endstring
                0x000e85c8                itemOn
                0x000e85ca                skullAnimCounter
                0x000e85cc                whichSkull
                0x000e85d0                currentMenu
                0x000e85d4                main_e
                0x000e85d8                episodes_e
                0x000e85dc                newgame_e
                0x000e85e0                options_e
                0x000e85e4                read_e
                0x000e85e8                read_e2
                0x000e85ec                sound_e
                0x000e85f0                load_e
                0x000e85f4                tempstring
                0x000e8644                epi
 .bss           0x000e8664        0x0 build/m_misc.o
 .bss           0x000e8664        0x8 build/m_random.o
                0x000e8664                rndindex
                0x000e8668                prndindex
 .bss           0x000e866c       0x78 build/p_ceilng.o
                0x000e866c                activeceilings
 .bss           0x000e86e4        0x0 build/p_doors.o
 .bss           0x000e86e4       0xa0 build/p_enemy.o
                0x000e86e4                soundtarget
                0x000e86e8                corpsehit
                0x000e86ec                vileobj
                0x000e86f0                viletryx
                0x000e86f4                viletryy
                0x000e86f8                braintargets
                0x000e8778                numbraintargets
                0x000e877c                braintargeton
 .bss           0x000e8784        0x0 build/p_floor.o
 .bss           0x000e8784        0x0 build/p_inter.o
 .bss           0x000e8784        0x0 build/p_lights.o
 .bss           0x000e8784       0xd8 build/p_map.o
                0x000e8784                tmbbox
                0x000e8794                tmthing
                0x000e8798                tmflags
                0x000e879c                tmx
                0x000e87a0                tmy
                0x000e87a4                floatok
                0x000e87a8                tmfloorz
                0x000e87ac                tmceilingz
                0x000e87b0                tmdropoffz
                0x000e87b4                ceilingline
                0x000e87b8                spechit
                0x000e8808                numspechit
                0x000e880c                bestslidefrac
                0x000e8810                secondslidefrac
                0x000e8814                bestslideline
                0x000e8818                secondslideline
                0x000e881c                slidemo
                0x000e8820                tmxmove
                0x000e8824                tmymove
                0x000e8828                linetarget
                0x000e882c                shootthing
                0x000e8830                shootz
                0x000e8834                la_damage
                0x000e8838                attackrange
                0x000e883c                aimslope
                0x000e8840                usething
                0x000e8844                bombsource
                0x000e8848                bombspot
                0x000e884c                bombdamage
                0x000e8850                crushchange
                0x000e8854                nofit
 .bss           0x000e885c      0x908 build/p_maputl.o
                0x000e885c                opentop
                0x000e8860                openbottom
                0x000e8864                openrange
                0x000e8868                lowfloor
                0x000e886c                intercepts
                0x000e9148                intercept_p
                0x000e914c                trace
                0x000e915c                earlyout
                0x000e9160                ptflags
 .bss           0x000e9164      0x7a8 build/p_mobj.o
                0x000e9164                test
                0x000e9168                itemrespawnque
                0x000e9668                itemrespawntime
                0x000e9868                iquehead
                0x000e986c                iquetail
 .bss           0x000e990c       0x78 build/p_plats.o
                0x000e990c                activeplats
 .bss           0x000e9984        0xc build/p_pspr.o
                0x000e9984                swingx
                0x000e9988                swingy
                0x000e998c                bulletslope
 .bss           0x000e9990       0x1c build/p_saveg.o
                0x000e9990                save_stream
                0x000e9994                savegamelength
                0x000e9998                savegame_error
                0x000e999c                specials_e
 .bss           0x000e99ac      0x148 build/p_setup.o
                0x000e99ac                numvertexes
                0x000e99b0                vertexes
                0x000e99b4                numsegs
                0x000e99b8                segs
                0x000e99bc                numsectors
                0x000e99c0                sectors
                0x000e99c4                numsubsectors
                0x000e99c8                subsectors
                0x000e99cc                numnodes
                0x000e99d0                nodes
                0x000e99d4                numlines
                0x000e99d8                lines
                0x000e99dc                numsides
                0x000e99e0                sides
                0x000e99e4                bmapwidth
                0x000e99e8                bmapheight
                0x000e99ec                blockmap
                0x000e99f0                blockmaplump
                0x000e99f4                bmaporgx
                0x000e99f8                bmaporgy
                0x000e99fc                blocklinks
                0x000e9a00                rejectmatrix
                0x000e9a04                deathmatchstarts
                0x000e9a68                deathmatch_p
                0x000e9a6c                playerstarts
 .bss           0x000e9af4       0x2c build/p_sight.o
                0x000e9af4                sightzstart
                0x000e9af8                topslope
                0x000e9afc                bottomslope
                0x000e9b00                strace
                0x000e9b10                t2x
                0x000e9b14                t2y
                0x000e9b18                sightcounts
 .bss           0x000e9b20      0x398 build/p_spec.o
                0x000e9b20                anims
                0x000e9da0                lastanim
                0x000e9da4                levelTimer
                0x000e9da8                levelTimeCount
                0x000e9dac                numlinespecials
                0x000e9db0                linespeciallist
 .bss           0x000e9eb8      0x2d4 build/p_switch.o
                0x000e9eb8                switchlist
                0x000ea048                numswitches
                0x000ea04c                buttonlist
 .bss           0x000ea18c        0x0 build/p_telept.o
 .bss           0x000ea18c       0x10 build/p_tick.o
                0x000ea18c                leveltime
                0x000ea190                thinkercap
 .bss           0x000ea19c        0x4 build/p_user.o
                0x000ea19c                onground
 .bss           0x000ea1a0     0x311c build/r_bsp.o
                0x000ea1a0                curline
                0x000ea1a4                sidedef
                0x000ea1a8                linedef
                0x000ea1ac                frontsector
                0x000ea1b0                backsector
                0x000ea1b4                drawsegs
                0x000ed1b4                ds_p
                0x000ed1b8                newend
                0x000ed1bc                solidsegs
 .bss           0x000ed2bc       0x6c build/r_data.o
                0x000ed2bc                firstflat
                0x000ed2c0                lastflat
                0x000ed2c4                numflats
                0x000ed2c8                firstpatch
                0x000ed2cc                lastpatch
                0x000ed2d0                numpatches
                0x000ed2d4                firstspritelump
                0x000ed2d8                lastspritelump
                0x000ed2dc                numspritelumps
                0x000ed2e0                numtextures
                0x000ed2e4                textures
                0x000ed2e8                textures_hashtable
                0x000ed2ec                texturewidthmask
                0x000ed2f0                textureheight
                0x000ed2f4                texturecompositesize
                0x000ed2f8                texturecolumnlump
                0x000ed2fc                texturecolumnofs
                0x000ed300                texturecomposite
                0x000ed304                flattranslation
                0x000ed308                texturetranslation
                0x000ed30c                spritewidth
                0x000ed310                spriteoffset
                0x000ed314                spritetopoffset
                0x000ed318                colormaps
                0x000ed31c                flatmemory
                0x000ed320                texturememory
                0x000ed324                spritememory
 .bss           0x000ed328     0x21f0 build/r_draw.o
                0x000ed328                viewimage
                0x000ed32c                viewwidth
                0x000ed330                scaledviewwidth
                0x000ed334                viewheight
                0x000ed338                viewwindowx
                0x000ed33c                viewwindowy
                0x000ed340                ylookup
                0x000ee040                columnofs
                0x000ef1c0                translations
                0x000ef4c0                dc_colormap
                0x000ef4c4                dc_x
                0x000ef4c8                dc_yl
                0x000ef4cc                dc_yh
                0x000ef4d0                dc_iscale
                0x000ef4d4                dc_texturemid
                0x000ef4d8                dc_source
                0x000ef4dc                dccount
                0x000ef4e0                fuzzpos
                0x000ef4e4                dc_translation
                0x000ef4e8                translationtables
                0x000ef4ec                ds_y
                0x000ef4f0                ds_x1
                0x000ef4f4                ds_x2
                0x000ef4f8                ds_colormap
                0x000ef4fc                ds_xfrac
                0x000ef500                ds_yfrac
                0x000ef504                ds_xstep
                0x000ef508                ds_ystep
                0x000ef50c                ds_source
                0x000ef510                dscount
 .bss           0x000ef518     0x7238 build/r_main.o
                0x000ef518                viewangleoffset
                0x000ef51c                fixedcolormap
                0x000ef520                centerx
                0x000ef524                centery
                0x000ef528                centerxfrac
                0x000ef52c                centeryfrac
                0x000ef530                projection
                0x000ef534                framecount
                0x000ef538                sscount
                0x000ef53c                linecount
                0x000ef540                loopcount
                0x000ef544                viewx
                0x000ef548                viewy
                0x000ef54c                viewz
                0x000ef550                viewangle
                0x000ef554                viewcos
                0x000ef558                viewsin
                0x000ef55c                viewplayer
                0x000ef560                detailshift
                0x000ef564                clipangle
                0x000ef568                viewangletox
                0x000f3568                xtoviewangle
                0x000f3a6c                scalelight
                0x000f466c                scalelightfixed
                0x000f472c                zlight
                0x000f672c                extralight
                0x000f6730                colfunc
                0x000f6734                basecolfunc
                0x000f6738                fuzzcolfunc
                0x000f673c                transcolfunc
                0x000f6740                spanfunc
                0x000f6744                setsizeneeded
                0x000f6748                setblocks
                0x000f674c                setdetail
 .bss           0x000f6750    0x20c08 build/r_plane.o
                0x000f6750                floorfunc
                0x000f6754                ceilingfunc
                0x000f6758                visplanes
                0x0010b358                lastvisplane
                0x0010b35c                floorplane
                0x0010b360                ceilingplane
                0x0010b364                openings
                0x00115364                lastopening
                0x00115368                floorclip
                0x001155e8                ceilingclip
                0x00115868                spanstart
                0x00115b88                spanstop
                0x00115ea8                planezlight
                0x00115eac                planeheight
                0x00115eb0                yslope
                0x001161d0                distscale
                0x001166d0                basexscale
                0x001166d4                baseyscale
                0x001166d8                cachedheight
                0x001169f8                cacheddistance
                0x00116d18                cachedxstep
                0x00117038                cachedystep
 .bss           0x00117358       0x84 build/r_segs.o
                0x00117358                segtextured
                0x0011735c                markfloor
                0x00117360                markceiling
                0x00117364                maskedtexture
                0x00117368                toptexture
                0x0011736c                bottomtexture
                0x00117370                midtexture
                0x00117374                rw_normalangle
                0x00117378                rw_angle1
                0x0011737c                rw_x
                0x00117380                rw_stopx
                0x00117384                rw_centerangle
                0x00117388                rw_offset
                0x0011738c                rw_distance
                0x00117390                rw_scale
                0x00117394                rw_scalestep
                0x00117398                rw_midtexturemid
                0x0011739c                rw_toptexturemid
                0x001173a0                rw_bottomtexturemid
                0x001173a4                worldtop
                0x001173a8                worldbottom
                0x001173ac                worldhigh
                0x001173b0                worldlow
                0x001173b4                pixhigh
                0x001173b8                pixlow
                0x001173bc                pixhighstep
                0x001173c0                pixlowstep
                0x001173c4                topfrac
                0x001173c8                topstep
                0x001173cc                bottomfrac
                0x001173d0                bottomstep
                0x001173d4                walllights
                0x001173d8                maskedtexturecol
 .bss           0x001173dc        0xc build/r_sky.o
                0x001173dc                skyflatnum
                0x001173e0                skytexture
                0x001173e4                skytexturemid
 .bss           0x001173e8     0x2bd8 build/r_things.o
                0x001173e8                pspritescale
                0x001173ec                pspriteiscale
                0x001173f0                spritelights
                0x001173f4                negonearray
                0x00117674                screenheightarray
                0x001178f4                sprites
                0x001178f8                numsprites
                0x001178fc                sprtemp
                0x00117c28                maxframe
                0x00117c2c                spritename
                0x00117c30                vissprites
                0x00119a30                vissprite_p
                0x00119a34                newvissprite
                0x00119a38                overflowsprite
                0x00119a74                mfloorclip
                0x00119a78                mceilingclip
                0x00119a7c                spryscale
                0x00119a80                sprtopscreen
                0x00119a84                vsprsortedhead
 .bss           0x00119fc0        0x0 build/sha1.o
 .bss           0x00119fc0        0x0 build/sounds.o
 .bss           0x00119fc0     0x1904 build/statdump.o
 .bss           0x0011b8c4        0x4 build/st_lib.o
                0x0011b8c4                sttminus
 .bss           0x0011b8c8      0x4c8 build/st_stuff.o
                0x0011b8c8                st_backing_screen
 .bss           0x0011bd90       0x10 build/s_sound.o
 .bss           0x0011bda0        0x0 build/tables.o
 .bss           0x0011bda0       0x20 build/v_video.o
                0x0011bda0                tinttable
                0x0011bda4                xlatab
                0x0011bda8                dirtybox
 .bss           0x0011bdc0      0x180 build/wi_stuff.o
 .bss           0x0011bf40        0x8 build/w_checksum.o
 .bss           0x0011bf48        0x0 build/w_file.o
 .bss           0x0011bf48        0x0 build/w_file_stdc_unbuffered.o
 .bss           0x0011bf48        0x0 build/w_main.o
 .bss           0x0011bf48        0xc build/w_wad.o
                0x0011bf48                lumpinfo
                0x0011bf4c                numlumps
 .bss           0x0011bf54        0x4 build/z_zone.o
                0x0011bf54                mainzone
 .bss           0x0011bf58        0x0 /usr/lib/gcc-cross/arm-linux-gnueabihf/14/../../../../arm-linux-gnueabihf/lib/libc.a(libc-start.o)
 .bss           0x0011bf58      0x42d /usr/lib/gcc-cross/arm-linux-gnueabihf/14/../../../../arm-linux-gnueabihf/lib/libc.a(libc-tls.o)
                0x0011c160                _dl_tls_max_dtv_idx
                0x0011c164                _dl_tls_dtv_slotinfo_list
                0x0011c168                _dl_tls_static_nelem
                0x0011c16c                _dl_tls_static_align
                0x0011c170                _dl_tls_static_size
                0x0011c174                _dl_static_dtv
                0x0011c374                _dl_tls_generation
                0x0011c378                _dl_tls_static_optional
                0x0011c37c                _dl_tls_static_surplus
                0x0011c380                _dl_tls_static_used
                0x0011c384                _dl_tls_dtv_gaps
 .bss           0x0011c385        0x0 /usr/lib/gcc-cross/arm-linux-gnueabihf/14/../../../../arm-linux-gnueabihf/lib/libc.a(libc-do-syscall.o)
 .bss           0x0011c385        0x0 /usr/lib/gcc-cross/arm-linux-gnueabihf/14/../../../../arm-linux-gnueabihf/lib/libc.a(errno-loc.o)
 .bss           0x0011c385        0x0 /usr/lib/gcc-cross/arm-linux-gnueabihf/14/../../../../arm-linux-gnueabihf/lib/libc.a(ctype.o)
 .bss           0x0011c385        0x0 /usr/lib/gcc-cross/arm-linux-gnueabihf/14/../../../../arm-linux-gnueabihf/lib/libc.a(ctype-info.o)
 .bss           0x0011c385        0x0 /usr/lib/gcc-cross/arm-linux-gnueabihf/14/../../../../arm-linux-gnueabihf/lib/libc.a(bsd-_setjmp.o)
 *fill*         0x0011c385        0x3 
 .bss           0x0011c388       0x24 /usr/lib/gcc-cross/arm-linux-gnueabihf/14/../../../../arm-linux-gnueabihf/lib/libc.a(abort.o)
                0x0011c3a8                __abort_msg
 .bss           0x0011c3ac        0x0 /usr/lib/gcc-cross/arm-linux-gnueabihf/14/../../../../arm-linux-gnueabihf/lib/libc.a(atof.o)
 .bss           0x0011c3ac        0x0 /usr/lib/gcc-cross/arm-linux-gnueabihf/14/../../../../arm-linux-gnueabihf/lib/libc.a(atoi.o)
 *fill*         0x0011c3ac        0x4 
 .bss           0x0011c3b0      0x214 /usr/lib/gcc-cross/arm-linux-gnueabihf/14/../../../../arm-linux-gnueabihf/lib/libc.a(cxa_atexit.o)
                0x0011c3b0                __new_exitfn_called
                0x0011c3b8                __exit_funcs_lock
 .bss           0x0011c5c4        0xd /usr/lib/gcc-cross/arm-linux-gnueabihf/14/../../../../arm-linux-gnueabihf/lib/libc.a(exit.o)
                0x0011c5d0                __exit_funcs_done
 .bss           0x0011c5d1        0x0 /usr/lib/gcc-cross/arm-linux-gnueabihf/14/../../../../arm-linux-gnueabihf/lib/libc.a(strtod.o)
 .bss           0x0011c5d1        0x0 /usr/lib/gcc-cross/arm-linux-gnueabihf/14/../../../../arm-linux-gnueabihf/lib/libc.a(strtod_l.o)
 .bss           0x0011c5d1        0x0 /usr/lib/gcc-cross/arm-linux-gnueabihf/14/../../../../arm-linux-gnueabihf/lib/libc.a(strtod_nan.o)
 .bss           0x0011c5d1        0x0 /usr/lib/gcc-cross/arm-linux-gnueabihf/14/../../../../arm-linux-gnueabihf/lib/libc.a(strtol.o)
 .bss           0x0011c5d1        0x0 /usr/lib/gcc-cross/arm-linux-gnueabihf/14/../../../../arm-linux-gnueabihf/lib/libc.a(strtol_l.o)
 .bss           0x0011c5d1        0x0 /usr/lib/gcc-cross/arm-linux-gnueabihf/14/../../../../arm-linux-gnueabihf/lib/libc.a(strtoull_l.o)
 *fill*         0x0011c5d1        0x3 
 .bss           0x0011c5d4      0x120 /usr/lib/gcc-cross/arm-linux-gnueabihf/14/../../../../arm-linux-gnueabihf/lib/libc.a(system.o)
 .bss           0x0011c6f4        0x0 /usr/lib/gcc-cross/arm-linux-gnueabihf/14/../../../../arm-linux-gnueabihf/lib/libc.a(add_n.o)
 .bss           0x0011c6f4        0x0 /usr/lib/gcc-cross/arm-linux-gnueabihf/14/../../../../arm-linux-gnueabihf/lib/libc.a(cmp.o)
 .bss           0x0011c6f4        0x0 /usr/lib/gcc-cross/arm-linux-gnueabihf/14/../../../../arm-linux-gnueabihf/lib/libc.a(lshift.o)
 .bss           0x0011c6f4        0x0 /usr/lib/gcc-cross/arm-linux-gnueabihf/14/../../../../arm-linux-gnueabihf/lib/libc.a(mul.o)
 .bss           0x0011c6f4        0x0 /usr/lib/gcc-cross/arm-linux-gnueabihf/14/../../../../arm-linux-gnueabihf/lib/libc.a(mul_1.o)
 .bss           0x0011c6f4        0x0 /usr/lib/gcc-cross/arm-linux-gnueabihf/14/../../../../arm-linux-gnueabihf/lib/libc.a(mul_n.o)
 .bss           0x0011c6f4        0x0 /usr/lib/gcc-cross/arm-linux-gnueabihf/14/../../../../arm-linux-gnueabihf/lib/libc.a(rshift.o)
 .bss           0x0011c6f4        0x0 /usr/lib/gcc-cross/arm-linux-gnueabihf/14/../../../../arm-linux-gnueabihf/lib/libc.a(sub_n.o)
 .bss           0x0011c6f4        0x0 /usr/lib/gcc-cross/arm-linux-gnueabihf/14/../../../../arm-linux-gnueabihf/lib/libc.a(submul_1.o)
 .bss           0x0011c6f4        0x0 /usr/lib/gcc-cross/arm-linux-gnueabihf/14/../../../../arm-linux-gnueabihf/lib/libc.a(mpn2dbl.o)
 .bss           0x0011c6f4        0x0 /usr/lib/gcc-cross/arm-linux-gnueabihf/14/../../../../arm-linux-gnueabihf/lib/libc.a(grouping.o)
 .bss           0x0011c6f4        0x0 /usr/lib/gcc-cross/arm-linux-gnueabihf/14/../../../../arm-linux-gnueabihf/lib/libc.a(tens_in_limb.o)
 .bss           0x0011c6f4        0x0 /usr/lib/gcc-cross/arm-linux-gnueabihf/14/../../../../arm-linux-gnueabihf/lib/libc.a(fpioconst.o)
 .bss           0x0011c6f4        0x0 /usr/lib/gcc-cross/arm-linux-gnueabihf/14/../../../../arm-linux-gnueabihf/lib/libc.a(fprintf.o)
 .bss           0x0011c6f4        0x0 /usr/lib/gcc-cross/arm-linux-gnueabihf/14/../../../../arm-linux-gnueabihf/lib/libc.a(isoc99_sscanf.o)
 .bss           0x0011c6f4        0x0 /usr/lib/gcc-cross/arm-linux-gnueabihf/14/../../../../arm-linux-gnueabihf/lib/libc.a(printf.o)
 .bss           0x0011c6f4        0x0 /usr/lib/gcc-cross/arm-linux-gnueabihf/14/../../../../arm-linux-gnueabihf/lib/libc.a(remove.o)
 .bss           0x0011c6f4        0x0 /usr/lib/gcc-cross/arm-linux-gnueabihf/14/../../../../arm-linux-gnueabihf/lib/libc.a(rename.o)
 .bss           0x0011c6f4        0x0 /usr/lib/gcc-cross/arm-linux-gnueabihf/14/../../../../arm-linux-gnueabihf/lib/libc.a(snprintf.o)
 .bss           0x0011c6f4        0x0 /usr/lib/gcc-cross/arm-linux-gnueabihf/14/../../../../arm-linux-gnueabihf/lib/libc.a(vfprintf.o)
 .bss           0x0011c6f4        0x0 /usr/lib/gcc-cross/arm-linux-gnueabihf/14/../../../../arm-linux-gnueabihf/lib/libc.a(vfprintf-internal.o)
 .bss           0x0011c6f4        0x0 /usr/lib/gcc-cross/arm-linux-gnueabihf/14/../../../../arm-linux-gnueabihf/lib/libc.a(vfscanf-internal.o)
 .bss           0x0011c6f4        0x0 /usr/lib/gcc-cross/arm-linux-gnueabihf/14/../../../../arm-linux-gnueabihf/lib/libc.a(errname.o)
 .bss           0x0011c6f4        0x0 /usr/lib/gcc-cross/arm-linux-gnueabihf/14/../../../../arm-linux-gnueabihf/lib/libc.a(printf-parsemb.o)
 .bss           0x0011c6f4        0x0 /usr/lib/gcc-cross/arm-linux-gnueabihf/14/../../../../arm-linux-gnueabihf/lib/libc.a(iofclose.o)
 .bss           0x0011c6f4        0x0 /usr/lib/gcc-cross/arm-linux-gnueabihf/14/../../../../arm-linux-gnueabihf/lib/libc.a(iofflush.o)
 .bss           0x0011c6f4        0x0 /usr/lib/gcc-cross/arm-linux-gnueabihf/14/../../../../arm-linux-gnueabihf/lib/libc.a(iofread.o)
 .bss           0x0011c6f4        0x0 /usr/lib/gcc-cross/arm-linux-gnueabihf/14/../../../../arm-linux-gnueabihf/lib/libc.a(ioftell.o)
 .bss           0x0011c6f4        0x0 /usr/lib/gcc-cross/arm-linux-gnueabihf/14/../../../../arm-linux-gnueabihf/lib/libc.a(iofwrite.o)
 .bss           0x0011c6f4        0x0 /usr/lib/gcc-cross/arm-linux-gnueabihf/14/../../../../arm-linux-gnueabihf/lib/libc.a(ioputs.o)
 .bss           0x0011c6f4        0x0 /usr/lib/gcc-cross/arm-linux-gnueabihf/14/../../../../arm-linux-gnueabihf/lib/libc.a(ioseekoff.o)
 .bss           0x0011c6f4        0x0 /usr/lib/gcc-cross/arm-linux-gnueabihf/14/../../../../arm-linux-gnueabihf/lib/libc.a(iofopen64.o)
 .bss           0x0011c6f4        0x0 /usr/lib/gcc-cross/arm-linux-gnueabihf/14/../../../../arm-linux-gnueabihf/lib/libc.a(putchar.o)
 .bss           0x0011c6f4        0x0 /usr/lib/gcc-cross/arm-linux-gnueabihf/14/../../../../arm-linux-gnueabihf/lib/libc.a(wgenops.o)
 .bss           0x0011c6f4        0x0 /usr/lib/gcc-cross/arm-linux-gnueabihf/14/../../../../arm-linux-gnueabihf/lib/libc.a(iofwide.o)
 .bss           0x0011c6f4        0x0 /usr/lib/gcc-cross/arm-linux-gnueabihf/14/../../../../arm-linux-gnueabihf/lib/libc.a(fseek.o)
 .bss           0x0011c6f4        0x0 /usr/lib/gcc-cross/arm-linux-gnueabihf/14/../../../../arm-linux-gnueabihf/lib/libc.a(vsnprintf.o)
 .bss           0x0011c6f4        0x0 /usr/lib/gcc-cross/arm-linux-gnueabihf/14/../../../../arm-linux-gnueabihf/lib/libc.a(libc_fatal.o)
 .bss           0x0011c6f4        0x0 /usr/lib/gcc-cross/arm-linux-gnueabihf/14/../../../../arm-linux-gnueabihf/lib/libc.a(vtables.o)
 .bss           0x0011c6f4        0x0 /usr/lib/gcc-cross/arm-linux-gnueabihf/14/../../../../arm-linux-gnueabihf/lib/libc.a(fileops.o)
 .bss           0x0011c6f4       0x1c /usr/lib/gcc-cross/arm-linux-gnueabihf/14/../../../../arm-linux-gnueabihf/lib/libc.a(genops.o)
 .bss           0x0011c710       0x24 /usr/lib/gcc-cross/arm-linux-gnueabihf/14/../../../../arm-linux-gnueabihf/lib/libc.a(stdfiles.o)
 .bss           0x0011c734        0x0 /usr/lib/gcc-cross/arm-linux-gnueabihf/14/../../../../arm-linux-gnueabihf/lib/libc.a(stdio.o)
 .bss           0x0011c734        0x0 /usr/lib/gcc-cross/arm-linux-gnueabihf/14/../../../../arm-linux-gnueabihf/lib/libc.a(strops.o)
 .bss           0x0011c734        0x0 /usr/lib/gcc-cross/arm-linux-gnueabihf/14/../../../../arm-linux-gnueabihf/lib/libc.a(libc-cleanup.o)
 .bss           0x0011c734        0x0 /usr/lib/gcc-cross/arm-linux-gnueabihf/14/../../../../arm-linux-gnueabihf/lib/libc.a(lowlevellock.o)
 .bss           0x0011c734        0x0 /usr/lib/gcc-cross/arm-linux-gnueabihf/14/../../../../arm-linux-gnueabihf/lib/libc.a(nptl_deallocate_tsd.o)
 .bss           0x0011c734        0x0 /usr/lib/gcc-cross/arm-linux-gnueabihf/14/../../../../arm-linux-gnueabihf/lib/libc.a(nptl_nthreads.o)
 .bss           0x0011c734     0x2000 /usr/lib/gcc-cross/arm-linux-gnueabihf/14/../../../../arm-linux-gnueabihf/lib/libc.a(pthread_keys.o)
                0x0011c734                __pthread_keys
 .bss           0x0011e734        0x0 /usr/lib/gcc-cross/arm-linux-gnueabihf/14/../../../../arm-linux-gnueabihf/lib/libc.a(pthread_kill.o)
 .bss           0x0011e734        0x0 /usr/lib/gcc-cross/arm-linux-gnueabihf/14/../../../../arm-linux-gnueabihf/lib/libc.a(pthread_rwlock_init.o)
 .bss           0x0011e734        0x0 /usr/lib/gcc-cross/arm-linux-gnueabihf/14/../../../../arm-linux-gnueabihf/lib/libc.a(pthread_rwlock_rdlock.o)
 .bss           0x0011e734        0x0 /usr/lib/gcc-cross/arm-linux-gnueabihf/14/../../../../arm-linux-gnueabihf/lib/libc.a(pthread_rwlock_unlock.o)
 .bss           0x0011e734        0x0 /usr/lib/gcc-cross/arm-linux-gnueabihf/14/../../../../arm-linux-gnueabihf/lib/libc.a(pthread_rwlock_wrlock.o)
 .bss           0x0011e734        0x0 /usr/lib/gcc-cross/arm-linux-gnueabihf/14/../../../../arm-linux-gnueabihf/lib/libc.a(pthread_setcancelstate.o)
 .bss           0x0011e734       0x28 /usr/lib/gcc-cross/arm-linux-gnueabihf/14/../../../../arm-linux-gnueabihf/lib/libc.a(malloc.o)
 .bss           0x0011e75c        0x0 /usr/lib/gcc-cross/arm-linux-gnueabihf/14/../../../../arm-linux-gnueabihf/lib/libc.a(scratch_buffer_grow_preserve.o)
 .bss           0x0011e75c        0x0 /usr/lib/gcc-cross/arm-linux-gnueabihf/14/../../../../arm-linux-gnueabihf/lib/libc.a(scratch_buffer_set_array_size.o)
 .bss           0x0011e75c        0x0 /usr/lib/gcc-cross/arm-linux-gnueabihf/14/../../../../arm-linux-gnueabihf/lib/libc.a(_strerror.o)
 .bss           0x0011e75c        0x0 /usr/lib/gcc-cross/arm-linux-gnueabihf/14/../../../../arm-linux-gnueabihf/lib/libc.a(memcmp.o)
 .bss           0x0011e75c        0x0 /usr/lib/gcc-cross/arm-linux-gnueabihf/14/../../../../arm-linux-gnueabihf/lib/libc.a(memcpy.o)
 .bss           0x0011e75c        0x0 /usr/lib/gcc-cross/arm-linux-gnueabihf/14/../../../../arm-linux-gnueabihf/lib/libc.a(memmove.o)
 .bss           0x0011e75c        0x0 /usr/lib/gcc-cross/arm-linux-gnueabihf/14/../../../../arm-linux-gnueabihf/lib/libc.a(memset.o)
 .bss           0x0011e75c        0x0 /usr/lib/gcc-cross/arm-linux-gnueabihf/14/../../../../arm-linux-gnueabihf/lib/libc.a(strcasecmp.o)
 .bss           0x0011e75c        0x0 /usr/lib/gcc-cross/arm-linux-gnueabihf/14/../../../../arm-linux-gnueabihf/lib/libc.a(strchr.o)
 .bss           0x0011e75c        0x0 /usr/lib/gcc-cross/arm-linux-gnueabihf/14/../../../../arm-linux-gnueabihf/lib/libc.a(strchrnul.o)
 .bss           0x0011e75c        0x0 /usr/lib/gcc-cross/arm-linux-gnueabihf/14/../../../../arm-linux-gnueabihf/lib/libc.a(strcmp.o)
 .bss           0x0011e75c        0x0 /usr/lib/gcc-cross/arm-linux-gnueabihf/14/../../../../arm-linux-gnueabihf/lib/libc.a(strdup.o)
 .bss           0x0011e75c        0x0 /usr/lib/gcc-cross/arm-linux-gnueabihf/14/../../../../arm-linux-gnueabihf/lib/libc.a(strlen.o)
 .bss           0x0011e75c        0x0 /usr/lib/gcc-cross/arm-linux-gnueabihf/14/../../../../arm-linux-gnueabihf/lib/libc.a(strncase.o)
 .bss           0x0011e75c        0x0 /usr/lib/gcc-cross/arm-linux-gnueabihf/14/../../../../arm-linux-gnueabihf/lib/libc.a(strncase_l.o)
 .bss           0x0011e75c        0x0 /usr/lib/gcc-cross/arm-linux-gnueabihf/14/../../../../arm-linux-gnueabihf/lib/libc.a(strncmp.o)
 .bss           0x0011e75c        0x0 /usr/lib/gcc-cross/arm-linux-gnueabihf/14/../../../../arm-linux-gnueabihf/lib/libc.a(strncpy.o)
 .bss           0x0011e75c        0x0 /usr/lib/gcc-cross/arm-linux-gnueabihf/14/../../../../arm-linux-gnueabihf/lib/libc.a(strnlen.o)
 .bss           0x0011e75c        0x0 /usr/lib/gcc-cross/arm-linux-gnueabihf/14/../../../../arm-linux-gnueabihf/lib/libc.a(strrchr.o)
 .bss           0x0011e75c        0x0 /usr/lib/gcc-cross/arm-linux-gnueabihf/14/../../../../arm-linux-gnueabihf/lib/libc.a(strstr.o)
 .bss           0x0011e75c        0x0 /usr/lib/gcc-cross/arm-linux-gnueabihf/14/../../../../arm-linux-gnueabihf/lib/libc.a(memcpy_neon.o)
 .bss           0x0011e75c        0x0 /usr/lib/gcc-cross/arm-linux-gnueabihf/14/../../../../arm-linux-gnueabihf/lib/libc.a(memcpy_vfp.o)
 .bss           0x0011e75c        0x8 /usr/lib/gcc-cross/arm-linux-gnueabihf/14/../../../../arm-linux-gnueabihf/lib/libc.a(mbrlen.o)
 .bss           0x0011e764        0x8 /usr/lib/gcc-cross/arm-linux-gnueabihf/14/../../../../arm-linux-gnueabihf/lib/libc.a(mbrtowc.o)
 .bss           0x0011e76c        0x8 /usr/lib/gcc-cross/arm-linux-gnueabihf/14/../../../../arm-linux-gnueabihf/lib/libc.a(wcrtomb.o)
 .bss           0x0011e774        0x0 /usr/lib/gcc-cross/arm-linux-gnueabihf/14/../../../../arm-linux-gnueabihf/lib/libc.a(wcsmbsload.o)
 .bss           0x0011e774        0x8 /usr/lib/gcc-cross/arm-linux-gnueabihf/14/../../../../arm-linux-gnueabihf/lib/libc.a(wcsrtombs.o)
 .bss           0x0011e77c        0x0 /usr/lib/gcc-cross/arm-linux-gnueabihf/14/../../../../arm-linux-gnueabihf/lib/libc.a(wmemcpy.o)
 .bss           0x0011e77c        0x0 /usr/lib/gcc-cross/arm-linux-gnueabihf/14/../../../../arm-linux-gnueabihf/lib/libc.a(wmemmove.o)
 .bss           0x0011e77c        0x0 /usr/lib/gcc-cross/arm-linux-gnueabihf/14/../../../../arm-linux-gnueabihf/lib/libc.a(wmempcpy.o)
 .bss           0x0011e77c        0x0 /usr/lib/gcc-cross/arm-linux-gnueabihf/14/../../../../arm-linux-gnueabihf/lib/libc.a(gettimeofday.o)
 .bss           0x0011e77c        0x0 /usr/lib/gcc-cross/arm-linux-gnueabihf/14/../../../../arm-linux-gnueabihf/lib/libc.a(clock_gettime.o)
 .bss           0x0011e77c        0x0 /usr/lib/gcc-cross/arm-linux-gnueabihf/14/../../../../arm-linux-gnueabihf/lib/libc.a(_exit.o)
 .bss           0x0011e77c        0x0 /usr/lib/gcc-cross/arm-linux-gnueabihf/14/../../../../arm-linux-gnueabihf/lib/libc.a(getpid.o)
 .bss           0x0011e77c        0x0 /usr/lib/gcc-cross/arm-linux-gnueabihf/14/../../../../arm-linux-gnueabihf/lib/libc.a(spawn.o)
 .bss           0x0011e77c        0x0 /usr/lib/gcc-cross/arm-linux-gnueabihf/14/../../../../arm-linux-gnueabihf/lib/libc.a(spawnattr_destroy.o)
 .bss           0x0011e77c        0x0 /usr/lib/gcc-cross/arm-linux-gnueabihf/14/../../../../arm-linux-gnueabihf/lib/libc.a(spawnattr_init.o)
 .bss           0x0011e77c        0x0 /usr/lib/gcc-cross/arm-linux-gnueabihf/14/../../../../arm-linux-gnueabihf/lib/libc.a(spawnattr_setdefault.o)
 .bss           0x0011e77c        0x0 /usr/lib/gcc-cross/arm-linux-gnueabihf/14/../../../../arm-linux-gnueabihf/lib/libc.a(spawnattr_setflags.o)
 .bss           0x0011e77c        0x0 /usr/lib/gcc-cross/arm-linux-gnueabihf/14/../../../../arm-linux-gnueabihf/lib/libc.a(spawnattr_setsigmask.o)
 .bss           0x0011e77c        0x0 /usr/lib/gcc-cross/arm-linux-gnueabihf/14/../../../../arm-linux-gnueabihf/lib/libc.a(spawni.o)
 .bss           0x0011e77c        0x0 /usr/lib/gcc-cross/arm-linux-gnueabihf/14/../../../../arm-linux-gnueabihf/lib/libc.a(waitid.o)
 .bss           0x0011e77c        0x0 /usr/lib/gcc-cross/arm-linux-gnueabihf/14/../../../../arm-linux-gnueabihf/lib/libc.a(waitpid.o)
 .bss           0x0011e77c        0xc /usr/lib/gcc-cross/arm-linux-gnueabihf/14/../../../../arm-linux-gnueabihf/lib/libc.a(environ.o)
                0x0011e77c                __environ_counter
                0x0011e780                __environ_array_list
                0x0011e784                _environ
                0x0011e784                __environ
                0x0011e784                environ
 .bss           0x0011e788        0x0 /usr/lib/gcc-cross/arm-linux-gnueabihf/14/../../../../arm-linux-gnueabihf/lib/libc.a(chdir.o)
 .bss           0x0011e788        0x0 /usr/lib/gcc-cross/arm-linux-gnueabihf/14/../../../../arm-linux-gnueabihf/lib/libc.a(close.o)
 .bss           0x0011e788        0x0 /usr/lib/gcc-cross/arm-linux-gnueabihf/14/../../../../arm-linux-gnueabihf/lib/libc.a(dup2.o)
 .bss           0x0011e788        0x0 /usr/lib/gcc-cross/arm-linux-gnueabihf/14/../../../../arm-linux-gnueabihf/lib/libc.a(fchdir.o)
 .bss           0x0011e788        0x0 /usr/lib/gcc-cross/arm-linux-gnueabihf/14/../../../../arm-linux-gnueabihf/lib/libc.a(fcntl.o)
 .bss           0x0011e788        0x0 /usr/lib/gcc-cross/arm-linux-gnueabihf/14/../../../../arm-linux-gnueabihf/lib/libc.a(fcntl64.o)
 .bss           0x0011e788        0x0 /usr/lib/gcc-cross/arm-linux-gnueabihf/14/../../../../arm-linux-gnueabihf/lib/libc.a(fstat64.o)
 .bss           0x0011e788        0x0 /usr/lib/gcc-cross/arm-linux-gnueabihf/14/../../../../arm-linux-gnueabihf/lib/libc.a(fstatat64.o)
 .bss           0x0011e788        0x0 /usr/lib/gcc-cross/arm-linux-gnueabihf/14/../../../../arm-linux-gnueabihf/lib/libc.a(lseek64.o)
 .bss           0x0011e788        0x0 /usr/lib/gcc-cross/arm-linux-gnueabihf/14/../../../../arm-linux-gnueabihf/lib/libc.a(mkdir.o)
 .bss           0x0011e788        0x0 /usr/lib/gcc-cross/arm-linux-gnueabihf/14/../../../../arm-linux-gnueabihf/lib/libc.a(open.o)
 .bss           0x0011e788        0x0 /usr/lib/gcc-cross/arm-linux-gnueabihf/14/../../../../arm-linux-gnueabihf/lib/libc.a(open64.o)
 .bss           0x0011e788        0x0 /usr/lib/gcc-cross/arm-linux-gnueabihf/14/../../../../arm-linux-gnueabihf/lib/libc.a(read.o)
 .bss           0x0011e788        0x0 /usr/lib/gcc-cross/arm-linux-gnueabihf/14/../../../../arm-linux-gnueabihf/lib/libc.a(rmdir.o)
 .bss           0x0011e788        0x0 /usr/lib/gcc-cross/arm-linux-gnueabihf/14/../../../../arm-linux-gnueabihf/lib/libc.a(unlink.o)
 .bss           0x0011e788        0x0 /usr/lib/gcc-cross/arm-linux-gnueabihf/14/../../../../arm-linux-gnueabihf/lib/libc.a(write.o)
 .bss           0x0011e788        0x0 /usr/lib/gcc-cross/arm-linux-gnueabihf/14/../../../../arm-linux-gnueabihf/lib/libc.a(close_nocancel.o)
 .bss           0x0011e788        0x0 /usr/lib/gcc-cross/arm-linux-gnueabihf/14/../../../../arm-linux-gnueabihf/lib/libc.a(fcntl_nocancel.o)
 .bss           0x0011e788        0x0 /usr/lib/gcc-cross/arm-linux-gnueabihf/14/../../../../arm-linux-gnueabihf/lib/libc.a(open_nocancel.o)
 .bss           0x0011e788        0x0 /usr/lib/gcc-cross/arm-linux-gnueabihf/14/../../../../arm-linux-gnueabihf/lib/libc.a(read_nocancel.o)
 .bss           0x0011e788        0x0 /usr/lib/gcc-cross/arm-linux-gnueabihf/14/../../../../arm-linux-gnueabihf/lib/libc.a(stat_t64_cp.o)
 .bss           0x0011e788        0x0 /usr/lib/gcc-cross/arm-linux-gnueabihf/14/../../../../arm-linux-gnueabihf/lib/libc.a(write_nocancel.o)
 .bss           0x0011e788        0x0 /usr/lib/gcc-cross/arm-linux-gnueabihf/14/../../../../arm-linux-gnueabihf/lib/libc.a(tcsetattr.o)
 .bss           0x0011e788        0x0 /usr/lib/gcc-cross/arm-linux-gnueabihf/14/../../../../arm-linux-gnueabihf/lib/libc.a(tcgetattr.o)
 .bss           0x0011e788        0x0 /usr/lib/gcc-cross/arm-linux-gnueabihf/14/../../../../arm-linux-gnueabihf/lib/libc.a(tcsetpgrp.o)
 .bss           0x0011e788        0x0 /usr/lib/gcc-cross/arm-linux-gnueabihf/14/../../../../arm-linux-gnueabihf/lib/libc.a(getrlimit64.o)
 .bss           0x0011e788        0x4 /usr/lib/gcc-cross/arm-linux-gnueabihf/14/../../../../arm-linux-gnueabihf/lib/libc.a(brk.o)
                0x0011e788                __curbrk
 .bss           0x0011e78c        0x0 /usr/lib/gcc-cross/arm-linux-gnueabihf/14/../../../../arm-linux-gnueabihf/lib/libc.a(getpagesize.o)
 .bss           0x0011e78c        0x0 /usr/lib/gcc-cross/arm-linux-gnueabihf/14/../../../../arm-linux-gnueabihf/lib/libc.a(getsysstats.o)
 .bss           0x0011e78c        0x0 /usr/lib/gcc-cross/arm-linux-gnueabihf/14/../../../../arm-linux-gnueabihf/lib/libc.a(ioctl.o)
 .bss           0x0011e78c        0x0 /usr/lib/gcc-cross/arm-linux-gnueabihf/14/../../../../arm-linux-gnueabihf/lib/libc.a(madvise.o)
 .bss           0x0011e78c        0x0 /usr/lib/gcc-cross/arm-linux-gnueabihf/14/../../../../arm-linux-gnueabihf/lib/libc.a(mmap.o)
 .bss           0x0011e78c        0x0 /usr/lib/gcc-cross/arm-linux-gnueabihf/14/../../../../arm-linux-gnueabihf/lib/libc.a(mmap64.o)
 .bss           0x0011e78c        0x0 /usr/lib/gcc-cross/arm-linux-gnueabihf/14/../../../../arm-linux-gnueabihf/lib/libc.a(mprotect.o)
 .bss           0x0011e78c        0x0 /usr/lib/gcc-cross/arm-linux-gnueabihf/14/../../../../arm-linux-gnueabihf/lib/libc.a(munmap.o)
 .bss           0x0011e78c        0x0 /usr/lib/gcc-cross/arm-linux-gnueabihf/14/../../../../arm-linux-gnueabihf/lib/libc.a(sbrk.o)
 .bss           0x0011e78c        0x0 /usr/lib/gcc-cross/arm-linux-gnueabihf/14/../../../../arm-linux-gnueabihf/lib/libc.a(single_threaded.o)
 .bss           0x0011e78c        0x0 /usr/lib/gcc-cross/arm-linux-gnueabihf/14/../../../../arm-linux-gnueabihf/lib/libc.a(usleep.o)
 .bss           0x0011e78c        0x0 /usr/lib/gcc-cross/arm-linux-gnueabihf/14/../../../../arm-linux-gnueabihf/lib/libc.a(clone-internal.o)
 .bss           0x0011e78c        0x4 /usr/lib/gcc-cross/arm-linux-gnueabihf/14/../../../../arm-linux-gnueabihf/lib/libc.a(clone-pidfd-support.o)
 .bss           0x0011e790        0x0 /usr/lib/gcc-cross/arm-linux-gnueabihf/14/../../../../arm-linux-gnueabihf/lib/libc.a(clone3.o)
 .bss           0x0011e790        0x0 /usr/lib/gcc-cross/arm-linux-gnueabihf/14/../../../../arm-linux-gnueabihf/lib/libc.a(closefrom_fallback.o)
 .bss           0x0011e790        0x0 /usr/lib/gcc-cross/arm-linux-gnueabihf/14/../../../../arm-linux-gnueabihf/lib/libc.a(mremap.o)
 .bss           0x0011e790        0x0 /usr/lib/gcc-cross/arm-linux-gnueabihf/14/../../../../arm-linux-gnueabihf/lib/libc.a(setvmaname.o)
 .bss           0x0011e790        0x0 /usr/lib/gcc-cross/arm-linux-gnueabihf/14/../../../../arm-linux-gnueabihf/lib/libc.a(sysinfo.o)
 .bss           0x0011e790        0x0 /usr/lib/gcc-cross/arm-linux-gnueabihf/14/../../../../arm-linux-gnueabihf/lib/libc.a(gettid.o)
 .bss           0x0011e790        0x0 /usr/lib/gcc-cross/arm-linux-gnueabihf/14/../../../../arm-linux-gnueabihf/lib/libc.a(malloc-hugepages.o)
 .bss           0x0011e790        0x0 /usr/lib/gcc-cross/arm-linux-gnueabihf/14/../../../../arm-linux-gnueabihf/lib/libc.a(wctrans.o)
 .bss           0x0011e790        0x0 /usr/lib/gcc-cross/arm-linux-gnueabihf/14/../../../../arm-linux-gnueabihf/lib/libc.a(towctrans.o)
 .bss           0x0011e790        0x0 /usr/lib/gcc-cross/arm-linux-gnueabihf/14/../../../../arm-linux-gnueabihf/lib/libc.a(chk_fail.o)
 .bss           0x0011e790        0x0 /usr/lib/gcc-cross/arm-linux-gnueabihf/14/../../../../arm-linux-gnueabihf/lib/libc.a(fortify_fail.o)
 .bss           0x0011e790        0x0 /usr/lib/gcc-cross/arm-linux-gnueabihf/14/../../../../arm-linux-gnueabihf/lib/libc.a(fprintf_chk.o)
 .bss           0x0011e790        0x0 /usr/lib/gcc-cross/arm-linux-gnueabihf/14/../../../../arm-linux-gnueabihf/lib/libc.a(memcpy_chk.o)
 .bss           0x0011e790        0x0 /usr/lib/gcc-cross/arm-linux-gnueabihf/14/../../../../arm-linux-gnueabihf/lib/libc.a(readonly-area.o)
 .bss           0x0011e790        0x0 /usr/lib/gcc-cross/arm-linux-gnueabihf/14/../../../../arm-linux-gnueabihf/lib/libc.a(stack_chk_fail.o)
 .bss           0x0011e790        0x0 /usr/lib/gcc-cross/arm-linux-gnueabihf/14/../../../../arm-linux-gnueabihf/lib/libc.a(dl-debug.o)
 .bss           0x0011e790       0x18 /usr/lib/gcc-cross/arm-linux-gnueabihf/14/../../../../arm-linux-gnueabihf/lib/libc.a(dl-debug-symbols.o)
                0x0011e790                _r_debug_extended
                0x0011e790                _r_debug
 .bss           0x0011e7a8        0x4 /usr/lib/gcc-cross/arm-linux-gnueabihf/14/../../../../arm-linux-gnueabihf/lib/libc.a(dl-tls.o)
                0x0011e7a8                _dl_tls_threads_in_update
 .bss           0x0011e7ac        0x8 /usr/lib/gcc-cross/arm-linux-gnueabihf/14/../../../../arm-linux-gnueabihf/lib/libc.a(dl-tls_init_tp.o)
                0x0011e7ac                __nptl_initial_report_events
                0x0011e7b0                _rseq_align
 .bss           0x0011e7b4        0x0 /usr/lib/gcc-cross/arm-linux-gnueabihf/14/../../../../arm-linux-gnueabihf/lib/libc.a(dl-tunables.o)
 .bss           0x0011e7b4        0x0 /usr/lib/gcc-cross/arm-linux-gnueabihf/14/../../../../arm-linux-gnueabihf/lib/libc.a(dl-rseq-symbols.o)
 .bss           0x0011e7b4        0x0 /usr/lib/gcc-cross/arm-linux-gnueabihf/14/../../../../arm-linux-gnueabihf/lib/libc.a(dl-early_allocate.o)
 *fill*         0x0011e7b4        0x4 
 .bss           0x0011e7b8       0xa4 /usr/lib/gcc-cross/arm-linux-gnueabihf/14/../../../../arm-linux-gnueabihf/lib/libc.a(dl-support.o)
                0x0011e7b8                _dl_auxv
                0x0011e7bc                _dl_platform
                0x0011e7c0                _dl_hwcap
                0x0011e7c8                _dl_hwcap2
                0x0011e7d0                _dl_hwcap3
                0x0011e7d8                _dl_hwcap4
                0x0011e7e0                _dl_clktck
                0x0011e7e4                _dl_fpu_control
                0x0011e7e8                _dl_sysinfo_dso
                0x0011e7ec                _dl_phdr
                0x0011e7f0                _dl_phnum
                0x0011e7f4                _dl_debug_mask
                0x0011e7f8                _dl_sysinfo_map
                0x0011e7fc                _dl_verbose
                0x0011e800                _dl_init_all_dirs
                0x0011e804                _dl_all_dirs
                0x0011e808                _dl_lazy
                0x0011e80c                _dl_bind_not
                0x0011e810                _dl_dynamic_weak
                0x0011e814                _dl_platformlen
                0x0011e818                _dl_scope_free_list
                0x0011e81c                _dl_stack_cache_lock
                0x0011e820                _dl_in_flight_stack
                0x0011e824                _dl_stack_cache_actsize
                0x0011e828                _dl_stack_cache
                0x0011e830                _dl_stack_user
                0x0011e838                _dl_stack_used
                0x0011e840                _dl_dso_sort_algo
                0x0011e844                _dl_initfirst
                0x0011e848                _dl_inhibit_cache
                0x0011e850                _dl_origin_path
                0x0011e854                _dl_profile_map
                0x0011e858                _dl_inhibit_rpath
 .bss           0x0011e85c        0x0 /usr/lib/gcc-cross/arm-linux-gnueabihf/14/../../../../arm-linux-gnueabihf/lib/libc.a(enbl-secure.o)
 .bss           0x0011e85c        0x0 /usr/lib/gcc-cross/arm-linux-gnueabihf/14/../../../../arm-linux-gnueabihf/lib/libc.a(libc_early_init.o)
 .bss           0x0011e85c        0x0 /usr/lib/gcc-cross/arm-linux-gnueabihf/14/../../../../arm-linux-gnueabihf/lib/libc.a(check_fds.o)
 .bss           0x0011e85c        0x8 /usr/lib/gcc-cross/arm-linux-gnueabihf/14/../../../../arm-linux-gnueabihf/lib/libc.a(init-first.o)
                0x0011e85c                __libc_argc
                0x0011e860                __libc_argv
 .bss           0x0011e864        0x0 /usr/lib/gcc-cross/arm-linux-gnueabihf/14/../../../../arm-linux-gnueabihf/lib/libc.a(sysdep.o)
 .bss           0x0011e864        0x0 /usr/lib/gcc-cross/arm-linux-gnueabihf/14/../../../../arm-linux-gnueabihf/lib/libc.a(errno.o)
 .bss           0x0011e864       0x10 /usr/lib/gcc-cross/arm-linux-gnueabihf/14/../../../../arm-linux-gnueabihf/lib/libc.a(gconv_db.o)
                0x0011e864                __gconv_modules_db
                0x0011e868                __gconv_alias_db
                0x0011e870                __gconv_lock
 .bss           0x0011e874       0x14 /usr/lib/gcc-cross/arm-linux-gnueabihf/14/../../../../arm-linux-gnueabihf/lib/libc.a(gconv_conf.o)
                0x0011e874                __gconv_path_elem
                0x0011e878                __gconv_path_envvar
                0x0011e87c                __gconv_max_path_elem_len
 .bss           0x0011e888        0x0 /usr/lib/gcc-cross/arm-linux-gnueabihf/14/../../../../arm-linux-gnueabihf/lib/libc.a(gconv_builtin.o)
 .bss           0x0011e888        0x0 /usr/lib/gcc-cross/arm-linux-gnueabihf/14/../../../../arm-linux-gnueabihf/lib/libc.a(gconv_simple.o)
 .bss           0x0011e888        0x0 /usr/lib/gcc-cross/arm-linux-gnueabihf/14/../../../../arm-linux-gnueabihf/lib/libc.a(gconv_trans.o)
 .bss           0x0011e888        0xc /usr/lib/gcc-cross/arm-linux-gnueabihf/14/../../../../arm-linux-gnueabihf/lib/libc.a(gconv_cache.o)
 .bss           0x0011e894        0x4 /usr/lib/gcc-cross/arm-linux-gnueabihf/14/../../../../arm-linux-gnueabihf/lib/libc.a(gconv_dl.o)
 .bss           0x0011e898       0x20 /usr/lib/gcc-cross/arm-linux-gnueabihf/14/../../../../arm-linux-gnueabihf/lib/libc.a(setlocale.o)
                0x0011e898                __libc_setlocale_lock
 .bss           0x0011e8b8        0x0 /usr/lib/gcc-cross/arm-linux-gnueabihf/14/../../../../arm-linux-gnueabihf/lib/libc.a(lc-ctype.o)
 .bss           0x0011e8b8        0x0 /usr/lib/gcc-cross/arm-linux-gnueabihf/14/../../../../arm-linux-gnueabihf/lib/libc.a(lc-numeric.o)
 .bss           0x0011e8b8        0x0 /usr/lib/gcc-cross/arm-linux-gnueabihf/14/../../../../arm-linux-gnueabihf/lib/libc.a(C_name.o)
 .bss           0x0011e8b8        0x0 /usr/lib/gcc-cross/arm-linux-gnueabihf/14/../../../../arm-linux-gnueabihf/lib/libc.a(SYS_libc.o)
 .bss           0x0011e8b8        0x0 /usr/lib/gcc-cross/arm-linux-gnueabihf/14/../../../../arm-linux-gnueabihf/lib/libc.a(global-locale.o)
 .bss           0x0011e8b8        0x0 /usr/lib/gcc-cross/arm-linux-gnueabihf/14/../../../../arm-linux-gnueabihf/lib/libc.a(xlocale.o)
 .bss           0x0011e8b8        0x0 /usr/lib/gcc-cross/arm-linux-gnueabihf/14/../../../../arm-linux-gnueabihf/lib/libc.a(__libc_assert_fail.o)
 .bss           0x0011e8b8        0x0 /usr/lib/gcc-cross/arm-linux-gnueabihf/14/../../../../arm-linux-gnueabihf/lib/libc.a(dcgettext.o)
 .bss           0x0011e8b8       0x60 /usr/lib/gcc-cross/arm-linux-gnueabihf/14/../../../../arm-linux-gnueabihf/lib/libc.a(dcigettext.o)
                0x0011e8d0                _nl_state_lock
                0x0011e914                _nl_domain_bindings
 .bss           0x0011e918       0x24 /usr/lib/gcc-cross/arm-linux-gnueabihf/14/../../../../arm-linux-gnueabihf/lib/libc.a(finddomain.o)
 .bss           0x0011e93c       0x10 /usr/lib/gcc-cross/arm-linux-gnueabihf/14/../../../../arm-linux-gnueabihf/lib/libc.a(loadmsgcat.o)
                0x0011e948                _nl_msg_cat_cntr
 .bss           0x0011e94c       0x20 /usr/lib/gcc-cross/arm-linux-gnueabihf/14/../../../../arm-linux-gnueabihf/lib/libc.a(localealias.o)
 .bss           0x0011e96c        0x0 /usr/lib/gcc-cross/arm-linux-gnueabihf/14/../../../../arm-linux-gnueabihf/lib/libc.a(l10nflist.o)
 .bss           0x0011e96c        0x0 /usr/lib/gcc-cross/arm-linux-gnueabihf/14/../../../../arm-linux-gnueabihf/lib/libc.a(explodename.o)
 .bss           0x0011e96c        0x0 /usr/lib/gcc-cross/arm-linux-gnueabihf/14/../../../../arm-linux-gnueabihf/lib/libc.a(plural.o)
 .bss           0x0011e96c        0x0 /usr/lib/gcc-cross/arm-linux-gnueabihf/14/../../../../arm-linux-gnueabihf/lib/libc.a(plural-exp.o)
 .bss           0x0011e96c        0x0 /usr/lib/gcc-cross/arm-linux-gnueabihf/14/../../../../arm-linux-gnueabihf/lib/libc.a(hash-string.o)
 .bss           0x0011e96c        0x0 /usr/lib/gcc-cross/arm-linux-gnueabihf/14/../../../../arm-linux-gnueabihf/lib/libc.a(setjmp.o)
 .bss           0x0011e96c        0x0 /usr/lib/gcc-cross/arm-linux-gnueabihf/14/../../../../arm-linux-gnueabihf/lib/libc.a(sigjmp.o)
 .bss           0x0011e96c        0x0 /usr/lib/gcc-cross/arm-linux-gnueabihf/14/../../../../arm-linux-gnueabihf/lib/libc.a(raise.o)
 .bss           0x0011e96c        0x0 /usr/lib/gcc-cross/arm-linux-gnueabihf/14/../../../../arm-linux-gnueabihf/lib/libc.a(sigaction.o)
 .bss           0x0011e96c        0x0 /usr/lib/gcc-cross/arm-linux-gnueabihf/14/../../../../arm-linux-gnueabihf/lib/libc.a(libc_sigaction.o)
 .bss           0x0011e96c        0x0 /usr/lib/gcc-cross/arm-linux-gnueabihf/14/../../../../arm-linux-gnueabihf/lib/libc.a(sigprocmask.o)
 .bss           0x0011e96c        0x0 /usr/lib/gcc-cross/arm-linux-gnueabihf/14/../../../../arm-linux-gnueabihf/lib/libc.a(sigrestorer.o)
 .bss           0x0011e96c        0x0 /usr/lib/gcc-cross/arm-linux-gnueabihf/14/../../../../arm-linux-gnueabihf/lib/libc.a(getenv.o)
 .bss           0x0011e96c        0x0 /usr/lib/gcc-cross/arm-linux-gnueabihf/14/../../../../arm-linux-gnueabihf/lib/libc.a(getrandom.o)
 .bss           0x0011e96c        0x0 /usr/lib/gcc-cross/arm-linux-gnueabihf/14/../../../../arm-linux-gnueabihf/lib/libc.a(qsort.o)
 .bss           0x0011e96c        0x8 /usr/lib/gcc-cross/arm-linux-gnueabihf/14/../../../../arm-linux-gnueabihf/lib/libc.a(setenv.o)
 .bss           0x0011e974        0x0 /usr/lib/gcc-cross/arm-linux-gnueabihf/14/../../../../arm-linux-gnueabihf/lib/libc.a(strtof.o)
 .bss           0x0011e974        0x0 /usr/lib/gcc-cross/arm-linux-gnueabihf/14/../../../../arm-linux-gnueabihf/lib/libc.a(strtof_l.o)
 .bss           0x0011e974        0x0 /usr/lib/gcc-cross/arm-linux-gnueabihf/14/../../../../arm-linux-gnueabihf/lib/libc.a(strtof_nan.o)
 .bss           0x0011e974        0x0 /usr/lib/gcc-cross/arm-linux-gnueabihf/14/../../../../arm-linux-gnueabihf/lib/libc.a(strtold.o)
 .bss           0x0011e974        0x0 /usr/lib/gcc-cross/arm-linux-gnueabihf/14/../../../../arm-linux-gnueabihf/lib/libc.a(strtold_l.o)
 .bss           0x0011e974        0x0 /usr/lib/gcc-cross/arm-linux-gnueabihf/14/../../../../arm-linux-gnueabihf/lib/libc.a(strtoll.o)
 .bss           0x0011e974        0x0 /usr/lib/gcc-cross/arm-linux-gnueabihf/14/../../../../arm-linux-gnueabihf/lib/libc.a(strtoll_l.o)
 .bss           0x0011e974        0x0 /usr/lib/gcc-cross/arm-linux-gnueabihf/14/../../../../arm-linux-gnueabihf/lib/libc.a(strtoul.o)
 .bss           0x0011e974        0x0 /usr/lib/gcc-cross/arm-linux-gnueabihf/14/../../../../arm-linux-gnueabihf/lib/libc.a(strtoul_l.o)
 .bss           0x0011e974        0x0 /usr/lib/gcc-cross/arm-linux-gnueabihf/14/../../../../arm-linux-gnueabihf/lib/libc.a(strtoull.o)
 .bss           0x0011e974        0x0 /usr/lib/gcc-cross/arm-linux-gnueabihf/14/../../../../arm-linux-gnueabihf/lib/libc.a(addmul_1.o)
 .bss           0x0011e974        0x0 /usr/lib/gcc-cross/arm-linux-gnueabihf/14/../../../../arm-linux-gnueabihf/lib/libc.a(mpn2flt.o)
 .bss           0x0011e974        0x0 /usr/lib/gcc-cross/arm-linux-gnueabihf/14/../../../../arm-linux-gnueabihf/lib/libc.a(_itoa.o)
 .bss           0x0011e974        0x0 /usr/lib/gcc-cross/arm-linux-gnueabihf/14/../../../../arm-linux-gnueabihf/lib/libc.a(funlockfile.o)
 .bss           0x0011e974        0x0 /usr/lib/gcc-cross/arm-linux-gnueabihf/14/../../../../arm-linux-gnueabihf/lib/libc.a(grouping_iterator.o)
 .bss           0x0011e974        0x0 /usr/lib/gcc-cross/arm-linux-gnueabihf/14/../../../../arm-linux-gnueabihf/lib/libc.a(itoa-digits.o)
 .bss           0x0011e974        0x0 /usr/lib/gcc-cross/arm-linux-gnueabihf/14/../../../../arm-linux-gnueabihf/lib/libc.a(itoa-udigits.o)
 .bss           0x0011e974        0x0 /usr/lib/gcc-cross/arm-linux-gnueabihf/14/../../../../arm-linux-gnueabihf/lib/libc.a(printf_buffer_done.o)
 .bss           0x0011e974        0x0 /usr/lib/gcc-cross/arm-linux-gnueabihf/14/../../../../arm-linux-gnueabihf/lib/libc.a(printf_buffer_pad_1.o)
 .bss           0x0011e974        0x0 /usr/lib/gcc-cross/arm-linux-gnueabihf/14/../../../../arm-linux-gnueabihf/lib/libc.a(printf_buffer_putc_1.o)
 .bss           0x0011e974        0x0 /usr/lib/gcc-cross/arm-linux-gnueabihf/14/../../../../arm-linux-gnueabihf/lib/libc.a(printf_buffer_puts_1.o)
 .bss           0x0011e974        0x0 /usr/lib/gcc-cross/arm-linux-gnueabihf/14/../../../../arm-linux-gnueabihf/lib/libc.a(printf_buffer_to_file.o)
 .bss           0x0011e974        0x0 /usr/lib/gcc-cross/arm-linux-gnueabihf/14/../../../../arm-linux-gnueabihf/lib/libc.a(printf_buffer_write.o)
 .bss           0x0011e974        0x0 /usr/lib/gcc-cross/arm-linux-gnueabihf/14/../../../../arm-linux-gnueabihf/lib/libc.a(printf_fp.o)
 .bss           0x0011e974        0x0 /usr/lib/gcc-cross/arm-linux-gnueabihf/14/../../../../arm-linux-gnueabihf/lib/libc.a(printf_fphex.o)
 .bss           0x0011e974        0x0 /usr/lib/gcc-cross/arm-linux-gnueabihf/14/../../../../arm-linux-gnueabihf/lib/libc.a(printf_function_invoke.o)
 .bss           0x0011e974        0xc /usr/lib/gcc-cross/arm-linux-gnueabihf/14/../../../../arm-linux-gnueabihf/lib/libc.a(reg-modifier.o)
                0x0011e97c                __printf_modifier_table
 .bss           0x0011e980        0xc /usr/lib/gcc-cross/arm-linux-gnueabihf/14/../../../../arm-linux-gnueabihf/lib/libc.a(reg-printf.o)
                0x0011e984                __printf_function_table
                0x0011e988                __libc_reg_printf_freemem_ptr
                0x0011e988                __printf_arginfo_table
 .bss           0x0011e98c        0x8 /usr/lib/gcc-cross/arm-linux-gnueabihf/14/../../../../arm-linux-gnueabihf/lib/libc.a(reg-type.o)
                0x0011e990                __libc_reg_type_freemem_ptr
                0x0011e990                __printf_va_arg_table
 .bss           0x0011e994        0x0 /usr/lib/gcc-cross/arm-linux-gnueabihf/14/../../../../arm-linux-gnueabihf/lib/libc.a(translated_number_width.o)
 .bss           0x0011e994        0x0 /usr/lib/gcc-cross/arm-linux-gnueabihf/14/../../../../arm-linux-gnueabihf/lib/libc.a(wprintf_buffer_putc_1.o)
 .bss           0x0011e994        0x0 /usr/lib/gcc-cross/arm-linux-gnueabihf/14/../../../../arm-linux-gnueabihf/lib/libc.a(wprintf_buffer_to_file.o)
 .bss           0x0011e994        0x0 /usr/lib/gcc-cross/arm-linux-gnueabihf/14/../../../../arm-linux-gnueabihf/lib/libc.a(errlist.o)
 .bss           0x0011e994        0x0 /usr/lib/gcc-cross/arm-linux-gnueabihf/14/../../../../arm-linux-gnueabihf/lib/libc.a(errlist-data.o)
 .bss           0x0011e994        0x0 /usr/lib/gcc-cross/arm-linux-gnueabihf/14/../../../../arm-linux-gnueabihf/lib/libc.a(filedoalloc.o)
 .bss           0x0011e994        0x0 /usr/lib/gcc-cross/arm-linux-gnueabihf/14/../../../../arm-linux-gnueabihf/lib/libc.a(iofopen.o)
 .bss           0x0011e994        0x0 /usr/lib/gcc-cross/arm-linux-gnueabihf/14/../../../../arm-linux-gnueabihf/lib/libc.a(iofputs.o)
 .bss           0x0011e994        0x0 /usr/lib/gcc-cross/arm-linux-gnueabihf/14/../../../../arm-linux-gnueabihf/lib/libc.a(iogetdelim.o)
 .bss           0x0011e994        0x0 /usr/lib/gcc-cross/arm-linux-gnueabihf/14/../../../../arm-linux-gnueabihf/lib/libc.a(wfileops.o)
 .bss           0x0011e994        0x0 /usr/lib/gcc-cross/arm-linux-gnueabihf/14/../../../../arm-linux-gnueabihf/lib/libc.a(iofgets_u.o)
 .bss           0x0011e994        0x0 /usr/lib/gcc-cross/arm-linux-gnueabihf/14/../../../../arm-linux-gnueabihf/lib/libc.a(alloca_cutoff.o)
 .bss           0x0011e994        0x0 /usr/lib/gcc-cross/arm-linux-gnueabihf/14/../../../../arm-linux-gnueabihf/lib/libc.a(cancellation.o)
 .bss           0x0011e994        0x0 /usr/lib/gcc-cross/arm-linux-gnueabihf/14/../../../../arm-linux-gnueabihf/lib/libc.a(futex-internal.o)
 .bss           0x0011e994        0x0 /usr/lib/gcc-cross/arm-linux-gnueabihf/14/../../../../arm-linux-gnueabihf/lib/libc.a(pthread_mutex_conf.o)
 .bss           0x0011e994        0x0 /usr/lib/gcc-cross/arm-linux-gnueabihf/14/../../../../arm-linux-gnueabihf/lib/libc.a(pthread_mutex_lock.o)
 .bss           0x0011e994        0x0 /usr/lib/gcc-cross/arm-linux-gnueabihf/14/../../../../arm-linux-gnueabihf/lib/libc.a(pthread_mutex_unlock.o)
 .bss           0x0011e994        0x4 /usr/lib/gcc-cross/arm-linux-gnueabihf/14/../../../../arm-linux-gnueabihf/lib/libc.a(pthread_once.o)
                0x0011e994                __fork_generation
 .bss           0x0011e998        0x0 /usr/lib/gcc-cross/arm-linux-gnueabihf/14/../../../../arm-linux-gnueabihf/lib/libc.a(pthread_self.o)
 .bss           0x0011e998        0x0 /usr/lib/gcc-cross/arm-linux-gnueabihf/14/../../../../arm-linux-gnueabihf/lib/libc.a(pthread_sigmask.o)
 .bss           0x0011e998        0x0 /usr/lib/gcc-cross/arm-linux-gnueabihf/14/../../../../arm-linux-gnueabihf/lib/libc.a(syscall_cancel.o)
 .bss           0x0011e998        0x0 /usr/lib/gcc-cross/arm-linux-gnueabihf/14/../../../../arm-linux-gnueabihf/lib/libc.a(tpp.o)
 .bss           0x0011e998       0x28 /usr/lib/gcc-cross/arm-linux-gnueabihf/14/../../../../arm-linux-gnueabihf/lib/libc.a(vars.o)
                0x0011e998                __default_pthread_attr_lock
                0x0011e99c                __default_pthread_attr
 .bss           0x0011e9c0        0x0 /usr/lib/gcc-cross/arm-linux-gnueabihf/14/../../../../arm-linux-gnueabihf/lib/libc.a(argz-addsep.o)
 .bss           0x0011e9c0        0x0 /usr/lib/gcc-cross/arm-linux-gnueabihf/14/../../../../arm-linux-gnueabihf/lib/libc.a(argz-ctsep.o)
 .bss           0x0011e9c0        0x0 /usr/lib/gcc-cross/arm-linux-gnueabihf/14/../../../../arm-linux-gnueabihf/lib/libc.a(memchr.o)
 .bss           0x0011e9c0        0x0 /usr/lib/gcc-cross/arm-linux-gnueabihf/14/../../../../arm-linux-gnueabihf/lib/libc.a(strcasecmp_l.o)
 .bss           0x0011e9c0        0x0 /usr/lib/gcc-cross/arm-linux-gnueabihf/14/../../../../arm-linux-gnueabihf/lib/libc.a(strcpy.o)
 .bss           0x0011e9c0        0x0 /usr/lib/gcc-cross/arm-linux-gnueabihf/14/../../../../arm-linux-gnueabihf/lib/libc.a(strcspn.o)
 .bss           0x0011e9c0        0x0 /usr/lib/gcc-cross/arm-linux-gnueabihf/14/../../../../arm-linux-gnueabihf/lib/libc.a(strtok_r.o)
 .bss           0x0011e9c0        0x0 /usr/lib/gcc-cross/arm-linux-gnueabihf/14/../../../../arm-linux-gnueabihf/lib/libc.a(memchr_neon.o)
 .bss           0x0011e9c0        0x0 /usr/lib/gcc-cross/arm-linux-gnueabihf/14/../../../../arm-linux-gnueabihf/lib/libc.a(memchr_noneon.o)
 .bss           0x0011e9c0        0x0 /usr/lib/gcc-cross/arm-linux-gnueabihf/14/../../../../arm-linux-gnueabihf/lib/libc.a(wcslen.o)
 .bss           0x0011e9c0        0x0 /usr/lib/gcc-cross/arm-linux-gnueabihf/14/../../../../arm-linux-gnueabihf/lib/libc.a(wcsnlen.o)
 .bss           0x0011e9c0        0x0 /usr/lib/gcc-cross/arm-linux-gnueabihf/14/../../../../arm-linux-gnueabihf/lib/libc.a(wmemchr.o)
 .bss           0x0011e9c0        0x0 /usr/lib/gcc-cross/arm-linux-gnueabihf/14/../../../../arm-linux-gnueabihf/lib/libc.a(closedir.o)
 .bss           0x0011e9c0        0x0 /usr/lib/gcc-cross/arm-linux-gnueabihf/14/../../../../arm-linux-gnueabihf/lib/libc.a(getdents64.o)
 .bss           0x0011e9c0        0x0 /usr/lib/gcc-cross/arm-linux-gnueabihf/14/../../../../arm-linux-gnueabihf/lib/libc.a(opendir.o)
 .bss           0x0011e9c0        0x0 /usr/lib/gcc-cross/arm-linux-gnueabihf/14/../../../../arm-linux-gnueabihf/lib/libc.a(readdir64.o)
 .bss           0x0011e9c0        0x0 /usr/lib/gcc-cross/arm-linux-gnueabihf/14/../../../../arm-linux-gnueabihf/lib/libc.a(execve.o)
 .bss           0x0011e9c0        0x0 /usr/lib/gcc-cross/arm-linux-gnueabihf/14/../../../../arm-linux-gnueabihf/lib/libc.a(execvpe.o)
 .bss           0x0011e9c0        0x0 /usr/lib/gcc-cross/arm-linux-gnueabihf/14/../../../../arm-linux-gnueabihf/lib/libc.a(getgid.o)
 .bss           0x0011e9c0        0x0 /usr/lib/gcc-cross/arm-linux-gnueabihf/14/../../../../arm-linux-gnueabihf/lib/libc.a(getpgid.o)
 .bss           0x0011e9c0        0x0 /usr/lib/gcc-cross/arm-linux-gnueabihf/14/../../../../arm-linux-gnueabihf/lib/libc.a(getuid.o)
 .bss           0x0011e9c0        0x0 /usr/lib/gcc-cross/arm-linux-gnueabihf/14/../../../../arm-linux-gnueabihf/lib/libc.a(nanosleep.o)
 .bss           0x0011e9c0        0x0 /usr/lib/gcc-cross/arm-linux-gnueabihf/14/../../../../arm-linux-gnueabihf/lib/libc.a(sched_cpucount.o)
 .bss           0x0011e9c0        0x0 /usr/lib/gcc-cross/arm-linux-gnueabihf/14/../../../../arm-linux-gnueabihf/lib/libc.a(sched_getp.o)
 .bss           0x0011e9c0        0x0 /usr/lib/gcc-cross/arm-linux-gnueabihf/14/../../../../arm-linux-gnueabihf/lib/libc.a(sched_gets.o)
 .bss           0x0011e9c0        0x0 /usr/lib/gcc-cross/arm-linux-gnueabihf/14/../../../../arm-linux-gnueabihf/lib/libc.a(sched_primax.o)
 .bss           0x0011e9c0        0x0 /usr/lib/gcc-cross/arm-linux-gnueabihf/14/../../../../arm-linux-gnueabihf/lib/libc.a(sched_primin.o)
 .bss           0x0011e9c0        0x0 /usr/lib/gcc-cross/arm-linux-gnueabihf/14/../../../../arm-linux-gnueabihf/lib/libc.a(sched_setp.o)
 .bss           0x0011e9c0        0x0 /usr/lib/gcc-cross/arm-linux-gnueabihf/14/../../../../arm-linux-gnueabihf/lib/libc.a(sched_sets.o)
 .bss           0x0011e9c0        0x0 /usr/lib/gcc-cross/arm-linux-gnueabihf/14/../../../../arm-linux-gnueabihf/lib/libc.a(setpgid.o)
 .bss           0x0011e9c0        0x0 /usr/lib/gcc-cross/arm-linux-gnueabihf/14/../../../../arm-linux-gnueabihf/lib/libc.a(setsid.o)
 .bss           0x0011e9c0        0x0 /usr/lib/gcc-cross/arm-linux-gnueabihf/14/../../../../arm-linux-gnueabihf/lib/libc.a(wait4.o)
 .bss           0x0011e9c0        0x0 /usr/lib/gcc-cross/arm-linux-gnueabihf/14/../../../../arm-linux-gnueabihf/lib/libc.a(getcwd.o)
 .bss           0x0011e9c0        0x0 /usr/lib/gcc-cross/arm-linux-gnueabihf/14/../../../../arm-linux-gnueabihf/lib/libc.a(isatty.o)
 .bss           0x0011e9c0        0x0 /usr/lib/gcc-cross/arm-linux-gnueabihf/14/../../../../arm-linux-gnueabihf/lib/libc.a(lseek.o)
 .bss           0x0011e9c0        0x0 /usr/lib/gcc-cross/arm-linux-gnueabihf/14/../../../../arm-linux-gnueabihf/lib/libc.a(lstat64.o)
 .bss           0x0011e9c0        0x0 /usr/lib/gcc-cross/arm-linux-gnueabihf/14/../../../../arm-linux-gnueabihf/lib/libc.a(openat64.o)
 .bss           0x0011e9c0        0x0 /usr/lib/gcc-cross/arm-linux-gnueabihf/14/../../../../arm-linux-gnueabihf/lib/libc.a(open64_nocancel.o)
 .bss           0x0011e9c0        0x0 /usr/lib/gcc-cross/arm-linux-gnueabihf/14/../../../../arm-linux-gnueabihf/lib/libc.a(openat_nocancel.o)
 .bss           0x0011e9c0        0x0 /usr/lib/gcc-cross/arm-linux-gnueabihf/14/../../../../arm-linux-gnueabihf/lib/libc.a(pread64_nocancel.o)
 .bss           0x0011e9c0        0x0 /usr/lib/gcc-cross/arm-linux-gnueabihf/14/../../../../arm-linux-gnueabihf/lib/libc.a(getrlimit.o)
 .bss           0x0011e9c0        0x0 /usr/lib/gcc-cross/arm-linux-gnueabihf/14/../../../../arm-linux-gnueabihf/lib/libc.a(tsearch.o)
 .bss           0x0011e9c0        0x0 /usr/lib/gcc-cross/arm-linux-gnueabihf/14/../../../../arm-linux-gnueabihf/lib/libc.a(init-misc.o)
 .bss           0x0011e9c0        0x0 /usr/lib/gcc-cross/arm-linux-gnueabihf/14/../../../../arm-linux-gnueabihf/lib/libc.a(clone.o)
 .bss           0x0011e9c0        0x0 /usr/lib/gcc-cross/arm-linux-gnueabihf/14/../../../../arm-linux-gnueabihf/lib/libc.a(asprintf_chk.o)
 .bss           0x0011e9c0        0x0 /usr/lib/gcc-cross/arm-linux-gnueabihf/14/../../../../arm-linux-gnueabihf/lib/libc.a(memmove_chk.o)
 .bss           0x0011e9c0        0x0 /usr/lib/gcc-cross/arm-linux-gnueabihf/14/../../../../arm-linux-gnueabihf/lib/libc.a(dl-catch.o)
 .bss           0x0011e9c0        0x0 /usr/lib/gcc-cross/arm-linux-gnueabihf/14/../../../../arm-linux-gnueabihf/lib/libc.a(dl-exception.o)
 .bss           0x0011e9c0        0x0 /usr/lib/gcc-cross/arm-linux-gnueabihf/14/../../../../arm-linux-gnueabihf/lib/libc.a(dl-execstack-tunable.o)
 .bss           0x0011e9c0        0x4 /usr/lib/gcc-cross/arm-linux-gnueabihf/14/../../../../arm-linux-gnueabihf/lib/libc.a(dl-load.o)
 .bss           0x0011e9c4        0x0 /usr/lib/gcc-cross/arm-linux-gnueabihf/14/../../../../arm-linux-gnueabihf/lib/libc.a(dl-lookup.o)
 .bss           0x0011e9c4        0x0 /usr/lib/gcc-cross/arm-linux-gnueabihf/14/../../../../arm-linux-gnueabihf/lib/libc.a(dl-misc.o)
 .bss           0x0011e9c4        0x0 /usr/lib/gcc-cross/arm-linux-gnueabihf/14/../../../../arm-linux-gnueabihf/lib/libc.a(dl-object.o)
 .bss           0x0011e9c4        0x0 /usr/lib/gcc-cross/arm-linux-gnueabihf/14/../../../../arm-linux-gnueabihf/lib/libc.a(dl-origin.o)
 .bss           0x0011e9c4        0x0 /usr/lib/gcc-cross/arm-linux-gnueabihf/14/../../../../arm-linux-gnueabihf/lib/libc.a(dl-printf.o)
 .bss           0x0011e9c4        0x8 /usr/lib/gcc-cross/arm-linux-gnueabihf/14/../../../../arm-linux-gnueabihf/lib/libc.a(dl-reloc.o)
 .bss           0x0011e9cc        0x0 /usr/lib/gcc-cross/arm-linux-gnueabihf/14/../../../../arm-linux-gnueabihf/lib/libc.a(dl-scope.o)
 .bss           0x0011e9cc        0x0 /usr/lib/gcc-cross/arm-linux-gnueabihf/14/../../../../arm-linux-gnueabihf/lib/libc.a(dl-setup_hash.o)
 .bss           0x0011e9cc        0x0 /usr/lib/gcc-cross/arm-linux-gnueabihf/14/../../../../arm-linux-gnueabihf/lib/libc.a(dl-thread_gscope_wait.o)
 .bss           0x0011e9cc        0x0 /usr/lib/gcc-cross/arm-linux-gnueabihf/14/../../../../arm-linux-gnueabihf/lib/libc.a(dl-trampoline.o)
 .bss           0x0011e9cc        0xc /usr/lib/gcc-cross/arm-linux-gnueabihf/14/../../../../arm-linux-gnueabihf/lib/libc.a(dl-cache.o)
 .bss           0x0011e9d8        0x0 /usr/lib/gcc-cross/arm-linux-gnueabihf/14/../../../../arm-linux-gnueabihf/lib/libc.a(dl-tlsdesc.o)
 .bss           0x0011e9d8        0x0 /usr/lib/gcc-cross/arm-linux-gnueabihf/14/../../../../arm-linux-gnueabihf/lib/libc.a(dl-libc.o)
 .bss           0x0011e9d8        0x0 /usr/lib/gcc-cross/arm-linux-gnueabihf/14/../../../../arm-linux-gnueabihf/lib/libc.a(gconv_open.o)
 .bss           0x0011e9d8        0x0 /usr/lib/gcc-cross/arm-linux-gnueabihf/14/../../../../arm-linux-gnueabihf/lib/libc.a(gconv.o)
 .bss           0x0011e9d8        0x0 /usr/lib/gcc-cross/arm-linux-gnueabihf/14/../../../../arm-linux-gnueabihf/lib/libc.a(gconv_close.o)
 .bss           0x0011e9d8        0x0 /usr/lib/gcc-cross/arm-linux-gnueabihf/14/../../../../arm-linux-gnueabihf/lib/libc.a(gconv_charset.o)
 .bss           0x0011e9d8       0x34 /usr/lib/gcc-cross/arm-linux-gnueabihf/14/../../../../arm-linux-gnueabihf/lib/libc.a(findlocale.o)
                0x0011e9d8                _nl_locale_file_list
 *fill*         0x0011ea0c        0x4 
 .bss           0x0011ea10       0x88 /usr/lib/gcc-cross/arm-linux-gnueabihf/14/../../../../arm-linux-gnueabihf/lib/libc.a(loadarchive.o)
 .bss           0x0011ea98        0x0 /usr/lib/gcc-cross/arm-linux-gnueabihf/14/../../../../arm-linux-gnueabihf/lib/libc.a(loadlocale.o)
 .bss           0x0011ea98        0x0 /usr/lib/gcc-cross/arm-linux-gnueabihf/14/../../../../arm-linux-gnueabihf/lib/libc.a(C-address.o)
 .bss           0x0011ea98        0x0 /usr/lib/gcc-cross/arm-linux-gnueabihf/14/../../../../arm-linux-gnueabihf/lib/libc.a(C-collate.o)
 .bss           0x0011ea98        0x0 /usr/lib/gcc-cross/arm-linux-gnueabihf/14/../../../../arm-linux-gnueabihf/lib/libc.a(C-ctype.o)
 .bss           0x0011ea98        0x0 /usr/lib/gcc-cross/arm-linux-gnueabihf/14/../../../../arm-linux-gnueabihf/lib/libc.a(C-identification.o)
 .bss           0x0011ea98        0x0 /usr/lib/gcc-cross/arm-linux-gnueabihf/14/../../../../arm-linux-gnueabihf/lib/libc.a(C-measurement.o)
 .bss           0x0011ea98        0x0 /usr/lib/gcc-cross/arm-linux-gnueabihf/14/../../../../arm-linux-gnueabihf/lib/libc.a(C-messages.o)
 .bss           0x0011ea98        0x0 /usr/lib/gcc-cross/arm-linux-gnueabihf/14/../../../../arm-linux-gnueabihf/lib/libc.a(C-monetary.o)
 .bss           0x0011ea98        0x0 /usr/lib/gcc-cross/arm-linux-gnueabihf/14/../../../../arm-linux-gnueabihf/lib/libc.a(C-name.o)
 .bss           0x0011ea98        0x0 /usr/lib/gcc-cross/arm-linux-gnueabihf/14/../../../../arm-linux-gnueabihf/lib/libc.a(C-numeric.o)
 .bss           0x0011ea98        0x0 /usr/lib/gcc-cross/arm-linux-gnueabihf/14/../../../../arm-linux-gnueabihf/lib/libc.a(C-paper.o)
 .bss           0x0011ea98        0x0 /usr/lib/gcc-cross/arm-linux-gnueabihf/14/../../../../arm-linux-gnueabihf/lib/libc.a(C-telephone.o)
 .bss           0x0011ea98        0x0 /usr/lib/gcc-cross/arm-linux-gnueabihf/14/../../../../arm-linux-gnueabihf/lib/libc.a(C-time.o)
 .bss           0x0011ea98        0x0 /usr/lib/gcc-cross/arm-linux-gnueabihf/14/../../../../arm-linux-gnueabihf/lib/libc.a(localename.o)
 .bss           0x0011ea98        0x0 /usr/lib/gcc-cross/arm-linux-gnueabihf/14/../../../../arm-linux-gnueabihf/lib/libc.a(__longjmp.o)
 .bss           0x0011ea98        0x0 /usr/lib/gcc-cross/arm-linux-gnueabihf/14/../../../../arm-linux-gnueabihf/lib/libc.a(divrem.o)
 .bss           0x0011ea98        0x0 /usr/lib/gcc-cross/arm-linux-gnueabihf/14/../../../../arm-linux-gnueabihf/lib/libc.a(dbl2mpn.o)
 .bss           0x0011ea98        0x0 /usr/lib/gcc-cross/arm-linux-gnueabihf/14/../../../../arm-linux-gnueabihf/lib/libc.a(printf_buffer_as_file.o)
 .bss           0x0011ea98        0x0 /usr/lib/gcc-cross/arm-linux-gnueabihf/14/../../../../arm-linux-gnueabihf/lib/libc.a(printf_buffer_flush.o)
 .bss           0x0011ea98        0x0 /usr/lib/gcc-cross/arm-linux-gnueabihf/14/../../../../arm-linux-gnueabihf/lib/libc.a(wprintf_buffer_done.o)
 .bss           0x0011ea98        0x0 /usr/lib/gcc-cross/arm-linux-gnueabihf/14/../../../../arm-linux-gnueabihf/lib/libc.a(wprintf_buffer_flush.o)
 .bss           0x0011ea98        0x0 /usr/lib/gcc-cross/arm-linux-gnueabihf/14/../../../../arm-linux-gnueabihf/lib/libc.a(iogetline.o)
 .bss           0x0011ea98        0x0 /usr/lib/gcc-cross/arm-linux-gnueabihf/14/../../../../arm-linux-gnueabihf/lib/libc.a(vasprintf.o)
 .bss           0x0011ea98        0x0 /usr/lib/gcc-cross/arm-linux-gnueabihf/14/../../../../arm-linux-gnueabihf/lib/libc.a(cleanup_compat.o)
 .bss           0x0011ea98        0x0 /usr/lib/gcc-cross/arm-linux-gnueabihf/14/../../../../arm-linux-gnueabihf/lib/libc.a(nptl-stack.o)
 .bss           0x0011ea98        0x0 /usr/lib/gcc-cross/arm-linux-gnueabihf/14/../../../../arm-linux-gnueabihf/lib/libc.a(memmem.o)
 .bss           0x0011ea98        0x0 /usr/lib/gcc-cross/arm-linux-gnueabihf/14/../../../../arm-linux-gnueabihf/lib/libc.a(strndup.o)
 .bss           0x0011ea98        0x0 /usr/lib/gcc-cross/arm-linux-gnueabihf/14/../../../../arm-linux-gnueabihf/lib/libc.a(strsep.o)
 .bss           0x0011ea98        0x0 /usr/lib/gcc-cross/arm-linux-gnueabihf/14/../../../../arm-linux-gnueabihf/lib/libc.a(strspn.o)
 .bss           0x0011ea98        0x0 /usr/lib/gcc-cross/arm-linux-gnueabihf/14/../../../../arm-linux-gnueabihf/lib/libc.a(clock_nanosleep.o)
 .bss           0x0011ea98        0x0 /usr/lib/gcc-cross/arm-linux-gnueabihf/14/../../../../arm-linux-gnueabihf/lib/libc.a(lc-time-cleanup.o)
 .bss           0x0011ea98        0x0 /usr/lib/gcc-cross/arm-linux-gnueabihf/14/../../../../arm-linux-gnueabihf/lib/libc.a(fdopendir.o)
 .bss           0x0011ea98        0x0 /usr/lib/gcc-cross/arm-linux-gnueabihf/14/../../../../arm-linux-gnueabihf/lib/libc.a(rewinddir.o)
 .bss           0x0011ea98        0x0 /usr/lib/gcc-cross/arm-linux-gnueabihf/14/../../../../arm-linux-gnueabihf/lib/libc.a(sysconf.o)
 .bss           0x0011ea98        0x0 /usr/lib/gcc-cross/arm-linux-gnueabihf/14/../../../../arm-linux-gnueabihf/lib/libc.a(stat64.o)
 .bss           0x0011ea98        0x0 /usr/lib/gcc-cross/arm-linux-gnueabihf/14/../../../../arm-linux-gnueabihf/lib/libc.a(getclktck.o)
 .bss           0x0011ea98        0x0 /usr/lib/gcc-cross/arm-linux-gnueabihf/14/../../../../arm-linux-gnueabihf/lib/libc.a(getdtsz.o)
 .bss           0x0011ea98        0x4 /usr/lib/gcc-cross/arm-linux-gnueabihf/14/../../../../arm-linux-gnueabihf/lib/libc.a(dl-close.o)
 .bss           0x0011ea9c        0x0 /usr/lib/gcc-cross/arm-linux-gnueabihf/14/../../../../arm-linux-gnueabihf/lib/libc.a(dl-execstack.o)
 .bss           0x0011ea9c        0x0 /usr/lib/gcc-cross/arm-linux-gnueabihf/14/../../../../arm-linux-gnueabihf/lib/libc.a(dl-open.o)
 .bss           0x0011ea9c        0x0 /usr/lib/gcc-cross/arm-linux-gnueabihf/14/../../../../arm-linux-gnueabihf/lib/libc.a(dl-runtime.o)
 .bss           0x0011ea9c        0x0 /usr/lib/gcc-cross/arm-linux-gnueabihf/14/../../../../arm-linux-gnueabihf/lib/libc.a(dl-sort-maps.o)
 .bss           0x0011ea9c        0x0 /usr/lib/gcc-cross/arm-linux-gnueabihf/14/../../../../arm-linux-gnueabihf/lib/libc.a(dl-version.o)
 .bss           0x0011ea9c        0x0 /usr/lib/gcc-cross/arm-linux-gnueabihf/14/../../../../arm-linux-gnueabihf/lib/libc.a(tlsdesc.o)
 .bss           0x0011ea9c        0x0 /usr/lib/gcc-cross/arm-linux-gnueabihf/14/../../../../arm-linux-gnueabihf/lib/libc.a(dl-addr-obj.o)
 *fill*         0x0011ea9c        0x4 
 .bss           0x0011eaa0       0x10 /usr/lib/gcc-cross/arm-linux-gnueabihf/14/../../../../arm-linux-gnueabihf/lib/libc.a(dl-find_object.o)
 .bss           0x0011eab0        0x0 /usr/lib/gcc-cross/arm-linux-gnueabihf/14/../../../../arm-linux-gnueabihf/lib/libc.a(rtld_static_init.o)
 .bss           0x0011eab0        0x0 /usr/lib/gcc-cross/arm-linux-gnueabihf/14/../../../../arm-linux-gnueabihf/lib/libc.a(dladdr.o)
 .bss           0x0011eab0        0x0 /usr/lib/gcc-cross/arm-linux-gnueabihf/14/../../../../arm-linux-gnueabihf/lib/libc.a(dladdr1.o)
 .bss           0x0011eab0        0x0 /usr/lib/gcc-cross/arm-linux-gnueabihf/14/../../../../arm-linux-gnueabihf/lib/libc.a(dlclose.o)
 .bss           0x0011eab0        0x0 /usr/lib/gcc-cross/arm-linux-gnueabihf/14/../../../../arm-linux-gnueabihf/lib/libc.a(dlerror.o)
 .bss           0x0011eab0        0x0 /usr/lib/gcc-cross/arm-linux-gnueabihf/14/../../../../arm-linux-gnueabihf/lib/libc.a(dlinfo.o)
 .bss           0x0011eab0        0x0 /usr/lib/gcc-cross/arm-linux-gnueabihf/14/../../../../arm-linux-gnueabihf/lib/libc.a(dlmopen.o)
 .bss           0x0011eab0        0x0 /usr/lib/gcc-cross/arm-linux-gnueabihf/14/../../../../arm-linux-gnueabihf/lib/libc.a(dlopen.o)
 .bss           0x0011eab0        0x0 /usr/lib/gcc-cross/arm-linux-gnueabihf/14/../../../../arm-linux-gnueabihf/lib/libc.a(dlsym.o)
 .bss           0x0011eab0        0x0 /usr/lib/gcc-cross/arm-linux-gnueabihf/14/../../../../arm-linux-gnueabihf/lib/libc.a(dlvsym.o)
 .bss           0x0011eab0        0x0 /usr/lib/gcc-cross/arm-linux-gnueabihf/14/../../../../arm-linux-gnueabihf/lib/libc.a(libc_dlerror_result.o)
 .bss           0x0011eab0        0x0 /usr/lib/gcc-cross/arm-linux-gnueabihf/14/../../../../arm-linux-gnueabihf/lib/libc.a(get_child_max.o)
 .bss           0x0011eab0        0x0 /usr/lib/gcc-cross/arm-linux-gnueabihf/14/../../../../arm-linux-gnueabihf/lib/libc.a(atomic_wide_counter.o)
 .bss           0x0011eab0        0x0 /usr/lib/gcc-cross/arm-linux-gnueabihf/14/../../../../arm-linux-gnueabihf/lib/libc.a(dl-call-libc-early-init.o)
 .bss           0x0011eab0        0x0 /usr/lib/gcc-cross/arm-linux-gnueabihf/14/../../../../arm-linux-gnueabihf/lib/libc.a(dl-call_fini.o)
 .bss           0x0011eab0        0x0 /usr/lib/gcc-cross/arm-linux-gnueabihf/14/../../../../arm-linux-gnueabihf/lib/libc.a(dl-deps.o)
 .bss           0x0011eab0        0x0 /usr/lib/gcc-cross/arm-linux-gnueabihf/14/../../../../arm-linux-gnueabihf/lib/libc.a(dl-init.o)
 .bss           0x0011eab0        0x0 /usr/lib/gcc-cross/arm-linux-gnueabihf/14/../../../../arm-linux-gnueabihf/lib/libc.a(dl-lookup-direct.o)
 .bss           0x0011eab0        0x0 /usr/lib/gcc-cross/arm-linux-gnueabihf/14/../../../../arm-linux-gnueabihf/lib/libc.a(dl-addr.o)
 .bss           0x0011eab0        0x0 /usr/lib/gcc-cross/arm-linux-gnueabihf/14/../../../../arm-linux-gnueabihf/lib/libc.a(dl-sym.o)
 .bss           0x0011eab0        0x0 /usr/lib/gcc-cross/arm-linux-gnueabihf/14/../../../../arm-linux-gnueabihf/lib/libc.a(asprintf.o)
 .bss           0x0011eab0        0x0 /usr/lib/gcc-cross/arm-linux-gnueabihf/14/libgcc.a(_udivsi3.o)
 .bss           0x0011eab0        0x0 /usr/lib/gcc-cross/arm-linux-gnueabihf/14/libgcc.a(_divsi3.o)
 .bss           0x0011eab0        0x0 /usr/lib/gcc-cross/arm-linux-gnueabihf/14/libgcc.a(_aeabi_ldivmod.o)
 .bss           0x0011eab0        0x0 /usr/lib/gcc-cross/arm-linux-gnueabihf/14/libgcc.a(_dvmd_lnx.o)
 .bss           0x0011eab0        0x0 /usr/lib/gcc-cross/arm-linux-gnueabihf/14/libgcc.a(_udivmoddi4.o)
 .bss           0x0011eab0        0x0 /usr/lib/gcc-cross/arm-linux-gnueabihf/14/libgcc_eh.a(unwind-arm.o)
 .bss           0x0011eab0        0x0 /usr/lib/gcc-cross/arm-linux-gnueabihf/14/libgcc_eh.a(libunwind.o)
 .bss           0x0011eab0        0x0 /usr/lib/gcc-cross/arm-linux-gnueabihf/14/libgcc_eh.a(pr-support.o)
 .bss           0x0011eab0        0x0 /usr/lib/gcc-cross/arm-linux-gnueabihf/14/libgcc_eh.a(unwind-c.o)
 .bss           0x0011eab0        0x0 /usr/lib/gcc-cross/arm-linux-gnueabihf/14/crtend.o
 .bss           0x0011eab0        0x0 /usr/lib/gcc-cross/arm-linux-gnueabihf/14/../../../../arm-linux-gnueabihf/lib/crtn.o
 *(COMMON)
                0x0011eab0                        . = ALIGN ((. != 0x0)?0x4:0x1)
                0x0011eab0                        _bss_end__ = .
                0x0011eab0                        __bss_end__ = .
                0x0011eab0                        . = ALIGN (0x4)
                0x0011eab0                        . = SEGMENT_START ("ldata-segment", .)
                0x0011eab0                        . = ALIGN (0x4)
                0x0011eab0                        __end__ = .
                0x0011eab0                        _end = .
                [!provide]                        PROVIDE (end = .)
                0x0011eab0                        . = DATA_SEGMENT_END (.)

.stab
 *(.stab)

.stabstr
 *(.stabstr)

.stab.excl
 *(.stab.excl)

.stab.exclstr
 *(.stab.exclstr)

.stab.index
 *(.stab.index)

.stab.indexstr
 *(.stab.indexstr)

.comment        0x00000000       0x1f
 *(.comment)
 .comment       0x00000000       0x1f /usr/lib/gcc-cross/arm-linux-gnueabihf/14/crtbeginT.o
                                 0x20 (size before relaxing)
 .comment       0x0000001f       0x20 build/i_video_fbdev.o
 .comment       0x0000001f       0x20 build/i_input_tty.o
 .comment       0x0000001f       0x20 build/i_main.o
 .comment       0x0000001f       0x20 build/dummy.o
 .comment       0x0000001f       0x20 build/am_map.o
 .comment       0x0000001f       0x20 build/doomdef.o
 .comment       0x0000001f       0x20 build/doomstat.o
 .comment       0x0000001f       0x20 build/dstrings.o
 .comment       0x0000001f       0x20 build/d_event.o
 .comment       0x0000001f       0x20 build/d_items.o
 .comment       0x0000001f       0x20 build/d_iwad.o
 .comment       0x0000001f       0x20 build/d_loop.o
 .comment       0x0000001f       0x20 build/d_main.o
 .comment       0x0000001f       0x20 build/d_mode.o
 .comment       0x0000001f       0x20 build/d_net.o
 .comment       0x0000001f       0x20 build/f_finale.o
 .comment       0x0000001f       0x20 build/f_wipe.o
 .comment       0x0000001f       0x20 build/g_game.o
 .comment       0x0000001f       0x20 build/hu_lib.o
 .comment       0x0000001f       0x20 build/hu_stuff.o
 .comment       0x0000001f       0x20 build/info.o
 .comment       0x0000001f       0x20 build/i_cdmus.o
 .comment       0x0000001f       0x20 build/i_endoom.o
 .comment       0x0000001f       0x20 build/i_joystick.o
 .comment       0x0000001f       0x20 build/i_scale.o
 .comment       0x0000001f       0x20 build/i_sound.o
 .comment       0x0000001f       0x20 build/i_system.o
 .comment       0x0000001f       0x20 build/i_timer.o
 .comment       0x0000001f       0x20 build/memio.o
 .comment       0x0000001f       0x20 build/m_argv.o
 .comment       0x0000001f       0x20 build/m_bbox.o
 .comment       0x0000001f       0x20 build/m_cheat.o
 .comment       0x0000001f       0x20 build/m_config.o
 .comment       0x0000001f       0x20 build/m_controls.o
 .comment       0x0000001f       0x20 build/m_fixed.o
 .comment       0x0000001f       0x20 build/m_menu.o
 .comment       0x0000001f       0x20 build/m_misc.o
 .comment       0x0000001f       0x20 build/m_random.o
 .comment       0x0000001f       0x20 build/p_ceilng.o
 .comment       0x0000001f       0x20 build/p_doors.o
 .comment       0x0000001f       0x20 build/p_enemy.o
 .comment       0x0000001f       0x20 build/p_floor.o
 .comment       0x0000001f       0x20 build/p_inter.o
 .comment       0x0000001f       0x20 build/p_lights.o
 .comment       0x0000001f       0x20 build/p_map.o
 .comment       0x0000001f       0x20 build/p_maputl.o
 .comment       0x0000001f       0x20 build/p_mobj.o
 .comment       0x0000001f       0x20 build/p_plats.o
 .comment       0x0000001f       0x20 build/p_pspr.o
 .comment       0x0000001f       0x20 build/p_saveg.o
 .comment       0x0000001f       0x20 build/p_setup.o
 .comment       0x0000001f       0x20 build/p_sight.o
 .comment       0x0000001f       0x20 build/p_spec.o
 .comment       0x0000001f       0x20 build/p_switch.o
 .comment       0x0000001f       0x20 build/p_telept.o
 .comment       0x0000001f       0x20 build/p_tick.o
 .comment       0x0000001f       0x20 build/p_user.o
 .comment       0x0000001f       0x20 build/r_bsp.o
 .comment       0x0000001f       0x20 build/r_data.o
 .comment       0x0000001f       0x20 build/r_draw.o
 .comment       0x0000001f       0x20 build/r_main.o
 .comment       0x0000001f       0x20 build/r_plane.o
 .comment       0x0000001f       0x20 build/r_segs.o
 .comment       0x0000001f       0x20 build/r_sky.o
 .comment       0x0000001f       0x20 build/r_things.o
 .comment       0x0000001f       0x20 build/sha1.o
 .comment       0x0000001f       0x20 build/sounds.o
 .comment       0x0000001f       0x20 build/statdump.o
 .comment       0x0000001f       0x20 build/st_lib.o
 .comment       0x0000001f       0x20 build/st_stuff.o
 .comment       0x0000001f       0x20 build/s_sound.o
 .comment       0x0000001f       0x20 build/tables.o
 .comment       0x0000001f       0x20 build/v_video.o
 .comment       0x0000001f       0x20 build/wi_stuff.o
 .comment       0x0000001f       0x20 build/w_checksum.o
 .comment       0x0000001f       0x20 build/w_file.o
 .comment       0x0000001f       0x20 build/w_file_stdc_unbuffered.o
 .comment       0x0000001f       0x20 build/w_main.o
 .comment       0x0000001f       0x20 build/w_wad.o
 .comment       0x0000001f       0x20 build/z_zone.o
 .comment       0x0000001f       0x20 /usr/lib/gcc-cross/arm-linux-gnueabihf/14/crtend.o

.ARM.attributes
                0x00000000       0x35
 .ARM.attributes
                0x00000000       0x33 /usr/lib/gcc-cross/arm-linux-gnueabihf/14/../../../../arm-linux-gnueabihf/lib/crt1.o
 .ARM.attributes
                0x00000033       0x23 /usr/lib/gcc-cross/arm-linux-gnueabihf/14/../../../../arm-linux-gnueabihf/lib/crti.o
 .ARM.attributes
                0x00000056       0x33 /usr/lib/gcc-cross/arm-linux-gnueabihf/14/crtbeginT.o
 .ARM.attributes
                0x00000089       0x33 build/i_video_fbdev.o
 .ARM.attributes
                0x000000bc       0x33 build/i_input_tty.o
 .ARM.attributes
                0x000000ef       0x33 build/i_main.o
 .ARM.attributes
                0x00000122       0x33 build/dummy.o
 .ARM.attributes
                0x00000155       0x33 build/am_map.o
 .ARM.attributes
                0x00000188       0x33 build/doomdef.o
 .ARM.attributes
                0x000001bb       0x33 build/doomstat.o
 .ARM.attributes
                0x000001ee       0x33 build/dstrings.o
 .ARM.attributes
                0x00000221       0x33 build/d_event.o
 .ARM.attributes
                0x00000254       0x33 build/d_items.o
 .ARM.attributes
                0x00000287       0x33 build/d_iwad.o
 .ARM.attributes
                0x000002ba       0x33 build/d_loop.o
 .ARM.attributes
                0x000002ed       0x33 build/d_main.o
 .ARM.attributes
                0x00000320       0x33 build/d_mode.o
 .ARM.attributes
                0x00000353       0x33 build/d_net.o
 .ARM.attributes
                0x00000386       0x33 build/f_finale.o
 .ARM.attributes
                0x000003b9       0x33 build/f_wipe.o
 .ARM.attributes
                0x000003ec       0x33 build/g_game.o
 .ARM.attributes
                0x0000041f       0x33 build/hu_lib.o
 .ARM.attributes
                0x00000452       0x33 build/hu_stuff.o
 .ARM.attributes
                0x00000485       0x33 build/info.o
 .ARM.attributes
                0x000004b8       0x33 build/i_cdmus.o
 .ARM.attributes
                0x000004eb       0x33 build/i_endoom.o
 .ARM.attributes
                0x0000051e       0x33 build/i_joystick.o
 .ARM.attributes
                0x00000551       0x33 build/i_scale.o
 .ARM.attributes
                0x00000584       0x33 build/i_sound.o
 .ARM.attributes
                0x000005b7       0x33 build/i_system.o
 .ARM.attributes
                0x000005ea       0x33 build/i_timer.o
 .ARM.attributes
                0x0000061d       0x33 build/memio.o
 .ARM.attributes
                0x00000650       0x33 build/m_argv.o
 .ARM.attributes
                0x00000683       0x33 build/m_bbox.o
 .ARM.attributes
                0x000006b6       0x33 build/m_cheat.o
 .ARM.attributes
                0x000006e9       0x33 build/m_config.o
 .ARM.attributes
                0x0000071c       0x33 build/m_controls.o
 .ARM.attributes
                0x0000074f       0x33 build/m_fixed.o
 .ARM.attributes
                0x00000782       0x33 build/m_menu.o
 .ARM.attributes
                0x000007b5       0x33 build/m_misc.o
 .ARM.attributes
                0x000007e8       0x33 build/m_random.o
 .ARM.attributes
                0x0000081b       0x33 build/p_ceilng.o
 .ARM.attributes
                0x0000084e       0x33 build/p_doors.o
 .ARM.attributes
                0x00000881       0x33 build/p_enemy.o
 .ARM.attributes
                0x000008b4       0x33 build/p_floor.o
 .ARM.attributes
                0x000008e7       0x33 build/p_inter.o
 .ARM.attributes
                0x0000091a       0x33 build/p_lights.o
 .ARM.attributes
                0x0000094d       0x33 build/p_map.o
 .ARM.attributes
                0x00000980       0x33 build/p_maputl.o
 .ARM.attributes
                0x000009b3       0x33 build/p_mobj.o
 .ARM.attributes
                0x000009e6       0x33 build/p_plats.o
 .ARM.attributes
                0x00000a19       0x33 build/p_pspr.o
 .ARM.attributes
                0x00000a4c       0x33 build/p_saveg.o
 .ARM.attributes
                0x00000a7f       0x33 build/p_setup.o
 .ARM.attributes
                0x00000ab2       0x33 build/p_sight.o
 .ARM.attributes
                0x00000ae5       0x33 build/p_spec.o
 .ARM.attributes
                0x00000b18       0x33 build/p_switch.o
 .ARM.attributes
                0x00000b4b       0x33 build/p_telept.o
 .ARM.attributes
                0x00000b7e       0x33 build/p_tick.o
 .ARM.attributes
                0x00000bb1       0x33 build/p_user.o
 .ARM.attributes
                0x00000be4       0x33 build/r_bsp.o
 .ARM.attributes
                0x00000c17       0x33 build/r_data.o
 .ARM.attributes
                0x00000c4a       0x33 build/r_draw.o
 .ARM.attributes
                0x00000c7d       0x33 build/r_main.o
 .ARM.attributes
                0x00000cb0       0x33 build/r_plane.o
 .ARM.attributes
                0x00000ce3       0x33 build/r_segs.o
 .ARM.attributes
                0x00000d16       0x33 build/r_sky.o
 .ARM.attributes
                0x00000d49       0x33 build/r_things.o
 .ARM.attributes
                0x00000d7c       0x33 build/sha1.o
 .ARM.attributes
                0x00000daf       0x33 build/sounds.o
 .ARM.attributes
                0x00000de2       0x33 build/statdump.o
 .ARM.attributes
                0x00000e15       0x33 build/st_lib.o
 .ARM.attributes
                0x00000e48       0x33 build/st_stuff.o
 .ARM.attributes
                0x00000e7b       0x33 build/s_sound.o
 .ARM.attributes
                0x00000eae       0x33 build/tables.o
 .ARM.attributes
                0x00000ee1       0x33 build/v_video.o
 .ARM.attributes
                0x00000f14       0x33 build/wi_stuff.o
 .ARM.attributes
                0x00000f47       0x33 build/w_checksum.o
 .ARM.attributes
                0x00000f7a       0x33 build/w_file.o
 .ARM.attributes
                0x00000fad       0x33 build/w_file_stdc_unbuffered.o
 .ARM.attributes
                0x00000fe0       0x33 build/w_main.o
 .ARM.attributes
                0x00001013       0x33 build/w_wad.o
 .ARM.attributes
                0x00001046       0x33 build/z_zone.o
 .ARM.attributes
                0x00001079       0x35 /usr/lib/gcc-cross/arm-linux-gnueabihf/14/../../../../arm-linux-gnueabihf/lib/libc.a(libc-start.o)
 .ARM.attributes
                0x000010ae       0x35 /usr/lib/gcc-cross/arm-linux-gnueabihf/14/../../../../arm-linux-gnueabihf/lib/libc.a(libc-tls.o)
 .ARM.attributes
                0x000010e3       0x23 /usr/lib/gcc-cross/arm-linux-gnueabihf/14/../../../../arm-linux-gnueabihf/lib/libc.a(libc-do-syscall.o)
 .ARM.attributes
                0x00001106       0x35 /usr/lib/gcc-cross/arm-linux-gnueabihf/14/../../../../arm-linux-gnueabihf/lib/libc.a(errno-loc.o)
 .ARM.attributes
                0x0000113b       0x35 /usr/lib/gcc-cross/arm-linux-gnueabihf/14/../../../../arm-linux-gnueabihf/lib/libc.a(ctype.o)
 .ARM.attributes
                0x00001170       0x35 /usr/lib/gcc-cross/arm-linux-gnueabihf/14/../../../../arm-linux-gnueabihf/lib/libc.a(ctype-info.o)
 .ARM.attributes
                0x000011a5       0x23 /usr/lib/gcc-cross/arm-linux-gnueabihf/14/../../../../arm-linux-gnueabihf/lib/libc.a(bsd-_setjmp.o)
 .ARM.attributes
                0x000011c8       0x35 /usr/lib/gcc-cross/arm-linux-gnueabihf/14/../../../../arm-linux-gnueabihf/lib/libc.a(abort.o)
 .ARM.attributes
                0x000011fd       0x35 /usr/lib/gcc-cross/arm-linux-gnueabihf/14/../../../../arm-linux-gnueabihf/lib/libc.a(atof.o)
 .ARM.attributes
                0x00001232       0x35 /usr/lib/gcc-cross/arm-linux-gnueabihf/14/../../../../arm-linux-gnueabihf/lib/libc.a(atoi.o)
 .ARM.attributes
                0x00001267       0x35 /usr/lib/gcc-cross/arm-linux-gnueabihf/14/../../../../arm-linux-gnueabihf/lib/libc.a(cxa_atexit.o)
 .ARM.attributes
                0x0000129c       0x35 /usr/lib/gcc-cross/arm-linux-gnueabihf/14/../../../../arm-linux-gnueabihf/lib/libc.a(exit.o)
 .ARM.attributes
                0x000012d1       0x35 /usr/lib/gcc-cross/arm-linux-gnueabihf/14/../../../../arm-linux-gnueabihf/lib/libc.a(strtod.o)
 .ARM.attributes
                0x00001306       0x35 /usr/lib/gcc-cross/arm-linux-gnueabihf/14/../../../../arm-linux-gnueabihf/lib/libc.a(strtod_l.o)
 .ARM.attributes
                0x0000133b       0x35 /usr/lib/gcc-cross/arm-linux-gnueabihf/14/../../../../arm-linux-gnueabihf/lib/libc.a(strtod_nan.o)
 .ARM.attributes
                0x00001370       0x35 /usr/lib/gcc-cross/arm-linux-gnueabihf/14/../../../../arm-linux-gnueabihf/lib/libc.a(strtol.o)
 .ARM.attributes
                0x000013a5       0x35 /usr/lib/gcc-cross/arm-linux-gnueabihf/14/../../../../arm-linux-gnueabihf/lib/libc.a(strtol_l.o)
 .ARM.attributes
                0x000013da       0x35 /usr/lib/gcc-cross/arm-linux-gnueabihf/14/../../../../arm-linux-gnueabihf/lib/libc.a(strtoull_l.o)
 .ARM.attributes
                0x0000140f       0x35 /usr/lib/gcc-cross/arm-linux-gnueabihf/14/../../../../arm-linux-gnueabihf/lib/libc.a(system.o)
 .ARM.attributes
                0x00001444       0x23 /usr/lib/gcc-cross/arm-linux-gnueabihf/14/../../../../arm-linux-gnueabihf/lib/libc.a(add_n.o)
 .ARM.attributes
                0x00001467       0x35 /usr/lib/gcc-cross/arm-linux-gnueabihf/14/../../../../arm-linux-gnueabihf/lib/libc.a(cmp.o)
 .ARM.attributes
                0x0000149c       0x35 /usr/lib/gcc-cross/arm-linux-gnueabihf/14/../../../../arm-linux-gnueabihf/lib/libc.a(lshift.o)
 .ARM.attributes
                0x000014d1       0x35 /usr/lib/gcc-cross/arm-linux-gnueabihf/14/../../../../arm-linux-gnueabihf/lib/libc.a(mul.o)
 .ARM.attributes
                0x00001506       0x35 /usr/lib/gcc-cross/arm-linux-gnueabihf/14/../../../../arm-linux-gnueabihf/lib/libc.a(mul_1.o)
 .ARM.attributes
                0x0000153b       0x35 /usr/lib/gcc-cross/arm-linux-gnueabihf/14/../../../../arm-linux-gnueabihf/lib/libc.a(mul_n.o)
 .ARM.attributes
                0x00001570       0x35 /usr/lib/gcc-cross/arm-linux-gnueabihf/14/../../../../arm-linux-gnueabihf/lib/libc.a(rshift.o)
 .ARM.attributes
                0x000015a5       0x23 /usr/lib/gcc-cross/arm-linux-gnueabihf/14/../../../../arm-linux-gnueabihf/lib/libc.a(sub_n.o)
 .ARM.attributes
                0x000015c8       0x23 /usr/lib/gcc-cross/arm-linux-gnueabihf/14/../../../../arm-linux-gnueabihf/lib/libc.a(submul_1.o)
 .ARM.attributes
                0x000015eb       0x35 /usr/lib/gcc-cross/arm-linux-gnueabihf/14/../../../../arm-linux-gnueabihf/lib/libc.a(mpn2dbl.o)
 .ARM.attributes
                0x00001620       0x35 /usr/lib/gcc-cross/arm-linux-gnueabihf/14/../../../../arm-linux-gnueabihf/lib/libc.a(grouping.o)
 .ARM.attributes
                0x00001655       0x35 /usr/lib/gcc-cross/arm-linux-gnueabihf/14/../../../../arm-linux-gnueabihf/lib/libc.a(tens_in_limb.o)
 .ARM.attributes
                0x0000168a       0x35 /usr/lib/gcc-cross/arm-linux-gnueabihf/14/../../../../arm-linux-gnueabihf/lib/libc.a(fpioconst.o)
 .ARM.attributes
                0x000016bf       0x35 /usr/lib/gcc-cross/arm-linux-gnueabihf/14/../../../../arm-linux-gnueabihf/lib/libc.a(fprintf.o)
 .ARM.attributes
                0x000016f4       0x35 /usr/lib/gcc-cross/arm-linux-gnueabihf/14/../../../../arm-linux-gnueabihf/lib/libc.a(isoc99_sscanf.o)
 .ARM.attributes
                0x00001729       0x35 /usr/lib/gcc-cross/arm-linux-gnueabihf/14/../../../../arm-linux-gnueabihf/lib/libc.a(printf.o)
 .ARM.attributes
                0x0000175e       0x35 /usr/lib/gcc-cross/arm-linux-gnueabihf/14/../../../../arm-linux-gnueabihf/lib/libc.a(remove.o)
 .ARM.attributes
                0x00001793       0x35 /usr/lib/gcc-cross/arm-linux-gnueabihf/14/../../../../arm-linux-gnueabihf/lib/libc.a(rename.o)
 .ARM.attributes
                0x000017c8       0x35 /usr/lib/gcc-cross/arm-linux-gnueabihf/14/../../../../arm-linux-gnueabihf/lib/libc.a(snprintf.o)
 .ARM.attributes
                0x000017fd       0x35 /usr/lib/gcc-cross/arm-linux-gnueabihf/14/../../../../arm-linux-gnueabihf/lib/libc.a(vfprintf.o)
 .ARM.attributes
                0x00001832       0x35 /usr/lib/gcc-cross/arm-linux-gnueabihf/14/../../../../arm-linux-gnueabihf/lib/libc.a(vfprintf-internal.o)
 .ARM.attributes
                0x00001867       0x35 /usr/lib/gcc-cross/arm-linux-gnueabihf/14/../../../../arm-linux-gnueabihf/lib/libc.a(vfscanf-internal.o)
 .ARM.attributes
                0x0000189c       0x35 /usr/lib/gcc-cross/arm-linux-gnueabihf/14/../../../../arm-linux-gnueabihf/lib/libc.a(errname.o)
 .ARM.attributes
                0x000018d1       0x35 /usr/lib/gcc-cross/arm-linux-gnueabihf/14/../../../../arm-linux-gnueabihf/lib/libc.a(printf-parsemb.o)
 .ARM.attributes
                0x00001906       0x35 /usr/lib/gcc-cross/arm-linux-gnueabihf/14/../../../../arm-linux-gnueabihf/lib/libc.a(iofclose.o)
 .ARM.attributes
                0x0000193b       0x35 /usr/lib/gcc-cross/arm-linux-gnueabihf/14/../../../../arm-linux-gnueabihf/lib/libc.a(iofflush.o)
 .ARM.attributes
                0x00001970       0x35 /usr/lib/gcc-cross/arm-linux-gnueabihf/14/../../../../arm-linux-gnueabihf/lib/libc.a(iofread.o)
 .ARM.attributes
                0x000019a5       0x35 /usr/lib/gcc-cross/arm-linux-gnueabihf/14/../../../../arm-linux-gnueabihf/lib/libc.a(ioftell.o)
 .ARM.attributes
                0x000019da       0x35 /usr/lib/gcc-cross/arm-linux-gnueabihf/14/../../../../arm-linux-gnueabihf/lib/libc.a(iofwrite.o)
 .ARM.attributes
                0x00001a0f       0x35 /usr/lib/gcc-cross/arm-linux-gnueabihf/14/../../../../arm-linux-gnueabihf/lib/libc.a(ioputs.o)
 .ARM.attributes
                0x00001a44       0x35 /usr/lib/gcc-cross/arm-linux-gnueabihf/14/../../../../arm-linux-gnueabihf/lib/libc.a(ioseekoff.o)
 .ARM.attributes
                0x00001a79       0x35 /usr/lib/gcc-cross/arm-linux-gnueabihf/14/../../../../arm-linux-gnueabihf/lib/libc.a(iofopen64.o)
 .ARM.attributes
                0x00001aae       0x35 /usr/lib/gcc-cross/arm-linux-gnueabihf/14/../../../../arm-linux-gnueabihf/lib/libc.a(putchar.o)
 .ARM.attributes
                0x00001ae3       0x35 /usr/lib/gcc-cross/arm-linux-gnueabihf/14/../../../../arm-linux-gnueabihf/lib/libc.a(wgenops.o)
 .ARM.attributes
                0x00001b18       0x35 /usr/lib/gcc-cross/arm-linux-gnueabihf/14/../../../../arm-linux-gnueabihf/lib/libc.a(iofwide.o)
 .ARM.attributes
                0x00001b4d       0x35 /usr/lib/gcc-cross/arm-linux-gnueabihf/14/../../../../arm-linux-gnueabihf/lib/libc.a(fseek.o)
 .ARM.attributes
                0x00001b82       0x35 /usr/lib/gcc-cross/arm-linux-gnueabihf/14/../../../../arm-linux-gnueabihf/lib/libc.a(vsnprintf.o)
 .ARM.attributes
                0x00001bb7       0x35 /usr/lib/gcc-cross/arm-linux-gnueabihf/14/../../../../arm-linux-gnueabihf/lib/libc.a(libc_fatal.o)
 .ARM.attributes
                0x00001bec       0x35 /usr/lib/gcc-cross/arm-linux-gnueabihf/14/../../../../arm-linux-gnueabihf/lib/libc.a(vtables.o)
 .ARM.attributes
                0x00001c21       0x35 /usr/lib/gcc-cross/arm-linux-gnueabihf/14/../../../../arm-linux-gnueabihf/lib/libc.a(fileops.o)
 .ARM.attributes
                0x00001c56       0x35 /usr/lib/gcc-cross/arm-linux-gnueabihf/14/../../../../arm-linux-gnueabihf/lib/libc.a(genops.o)
 .ARM.attributes
                0x00001c8b       0x35 /usr/lib/gcc-cross/arm-linux-gnueabihf/14/../../../../arm-linux-gnueabihf/lib/libc.a(stdfiles.o)
 .ARM.attributes
                0x00001cc0       0x35 /usr/lib/gcc-cross/arm-linux-gnueabihf/14/../../../../arm-linux-gnueabihf/lib/libc.a(stdio.o)
 .ARM.attributes
                0x00001cf5       0x35 /usr/lib/gcc-cross/arm-linux-gnueabihf/14/../../../../arm-linux-gnueabihf/lib/libc.a(strops.o)
 .ARM.attributes
                0x00001d2a       0x35 /usr/lib/gcc-cross/arm-linux-gnueabihf/14/../../../../arm-linux-gnueabihf/lib/libc.a(libc-cleanup.o)
 .ARM.attributes
                0x00001d5f       0x35 /usr/lib/gcc-cross/arm-linux-gnueabihf/14/../../../../arm-linux-gnueabihf/lib/libc.a(lowlevellock.o)
 .ARM.attributes
                0x00001d94       0x35 /usr/lib/gcc-cross/arm-linux-gnueabihf/14/../../../../arm-linux-gnueabihf/lib/libc.a(nptl_deallocate_tsd.o)
 .ARM.attributes
                0x00001dc9       0x35 /usr/lib/gcc-cross/arm-linux-gnueabihf/14/../../../../arm-linux-gnueabihf/lib/libc.a(nptl_nthreads.o)
 .ARM.attributes
                0x00001dfe       0x35 /usr/lib/gcc-cross/arm-linux-gnueabihf/14/../../../../arm-linux-gnueabihf/lib/libc.a(pthread_keys.o)
 .ARM.attributes
                0x00001e33       0x35 /usr/lib/gcc-cross/arm-linux-gnueabihf/14/../../../../arm-linux-gnueabihf/lib/libc.a(pthread_kill.o)
 .ARM.attributes
                0x00001e68       0x35 /usr/lib/gcc-cross/arm-linux-gnueabihf/14/../../../../arm-linux-gnueabihf/lib/libc.a(pthread_rwlock_init.o)
 .ARM.attributes
                0x00001e9d       0x35 /usr/lib/gcc-cross/arm-linux-gnueabihf/14/../../../../arm-linux-gnueabihf/lib/libc.a(pthread_rwlock_rdlock.o)
 .ARM.attributes
                0x00001ed2       0x35 /usr/lib/gcc-cross/arm-linux-gnueabihf/14/../../../../arm-linux-gnueabihf/lib/libc.a(pthread_rwlock_unlock.o)
 .ARM.attributes
                0x00001f07       0x35 /usr/lib/gcc-cross/arm-linux-gnueabihf/14/../../../../arm-linux-gnueabihf/lib/libc.a(pthread_rwlock_wrlock.o)
 .ARM.attributes
                0x00001f3c       0x35 /usr/lib/gcc-cross/arm-linux-gnueabihf/14/../../../../arm-linux-gnueabihf/lib/libc.a(pthread_setcancelstate.o)
 .ARM.attributes
                0x00001f71       0x35 /usr/lib/gcc-cross/arm-linux-gnueabihf/14/../../../../arm-linux-gnueabihf/lib/libc.a(malloc.o)
 .ARM.attributes
                0x00001fa6       0x35 /usr/lib/gcc-cross/arm-linux-gnueabihf/14/../../../../arm-linux-gnueabihf/lib/libc.a(scratch_buffer_grow_preserve.o)
 .ARM.attributes
                0x00001fdb       0x35 /usr/lib/gcc-cross/arm-linux-gnueabihf/14/../../../../arm-linux-gnueabihf/lib/libc.a(scratch_buffer_set_array_size.o)
 .ARM.attributes
                0x00002010       0x35 /usr/lib/gcc-cross/arm-linux-gnueabihf/14/../../../../arm-linux-gnueabihf/lib/libc.a(_strerror.o)
 .ARM.attributes
                0x00002045       0x35 /usr/lib/gcc-cross/arm-linux-gnueabihf/14/../../../../arm-linux-gnueabihf/lib/libc.a(memcmp.o)
 .ARM.attributes
                0x0000207a       0x35 /usr/lib/gcc-cross/arm-linux-gnueabihf/14/../../../../arm-linux-gnueabihf/lib/libc.a(memcpy.o)
 .ARM.attributes
                0x000020af       0x23 /usr/lib/gcc-cross/arm-linux-gnueabihf/14/../../../../arm-linux-gnueabihf/lib/libc.a(memmove.o)
 .ARM.attributes
                0x000020d2       0x23 /usr/lib/gcc-cross/arm-linux-gnueabihf/14/../../../../arm-linux-gnueabihf/lib/libc.a(memset.o)
 .ARM.attributes
                0x000020f5       0x35 /usr/lib/gcc-cross/arm-linux-gnueabihf/14/../../../../arm-linux-gnueabihf/lib/libc.a(strcasecmp.o)
 .ARM.attributes
                0x0000212a       0x23 /usr/lib/gcc-cross/arm-linux-gnueabihf/14/../../../../arm-linux-gnueabihf/lib/libc.a(strchr.o)
 .ARM.attributes
                0x0000214d       0x35 /usr/lib/gcc-cross/arm-linux-gnueabihf/14/../../../../arm-linux-gnueabihf/lib/libc.a(strchrnul.o)
 .ARM.attributes
                0x00002182       0x23 /usr/lib/gcc-cross/arm-linux-gnueabihf/14/../../../../arm-linux-gnueabihf/lib/libc.a(strcmp.o)
 .ARM.attributes
                0x000021a5       0x35 /usr/lib/gcc-cross/arm-linux-gnueabihf/14/../../../../arm-linux-gnueabihf/lib/libc.a(strdup.o)
 .ARM.attributes
                0x000021da       0x23 /usr/lib/gcc-cross/arm-linux-gnueabihf/14/../../../../arm-linux-gnueabihf/lib/libc.a(strlen.o)
 .ARM.attributes
                0x000021fd       0x35 /usr/lib/gcc-cross/arm-linux-gnueabihf/14/../../../../arm-linux-gnueabihf/lib/libc.a(strncase.o)
 .ARM.attributes
                0x00002232       0x35 /usr/lib/gcc-cross/arm-linux-gnueabihf/14/../../../../arm-linux-gnueabihf/lib/libc.a(strncase_l.o)
 .ARM.attributes
                0x00002267       0x35 /usr/lib/gcc-cross/arm-linux-gnueabihf/14/../../../../arm-linux-gnueabihf/lib/libc.a(strncmp.o)
 .ARM.attributes
                0x0000229c       0x35 /usr/lib/gcc-cross/arm-linux-gnueabihf/14/../../../../arm-linux-gnueabihf/lib/libc.a(strncpy.o)
 .ARM.attributes
                0x000022d1       0x35 /usr/lib/gcc-cross/arm-linux-gnueabihf/14/../../../../arm-linux-gnueabihf/lib/libc.a(strnlen.o)
 .ARM.attributes
                0x00002306       0x23 /usr/lib/gcc-cross/arm-linux-gnueabihf/14/../../../../arm-linux-gnueabihf/lib/libc.a(strrchr.o)
 .ARM.attributes
                0x00002329       0x35 /usr/lib/gcc-cross/arm-linux-gnueabihf/14/../../../../arm-linux-gnueabihf/lib/libc.a(strstr.o)
 .ARM.attributes
                0x0000235e       0x25 /usr/lib/gcc-cross/arm-linux-gnueabihf/14/../../../../arm-linux-gnueabihf/lib/libc.a(memcpy_neon.o)
 .ARM.attributes
                0x00002383       0x1f /usr/lib/gcc-cross/arm-linux-gnueabihf/14/../../../../arm-linux-gnueabihf/lib/libc.a(memcpy_vfp.o)
 .ARM.attributes
                0x000023a2       0x35 /usr/lib/gcc-cross/arm-linux-gnueabihf/14/../../../../arm-linux-gnueabihf/lib/libc.a(mbrlen.o)
 .ARM.attributes
                0x000023d7       0x35 /usr/lib/gcc-cross/arm-linux-gnueabihf/14/../../../../arm-linux-gnueabihf/lib/libc.a(mbrtowc.o)
 .ARM.attributes
                0x0000240c       0x35 /usr/lib/gcc-cross/arm-linux-gnueabihf/14/../../../../arm-linux-gnueabihf/lib/libc.a(wcrtomb.o)
 .ARM.attributes
                0x00002441       0x35 /usr/lib/gcc-cross/arm-linux-gnueabihf/14/../../../../arm-linux-gnueabihf/lib/libc.a(wcsmbsload.o)
 .ARM.attributes
                0x00002476       0x35 /usr/lib/gcc-cross/arm-linux-gnueabihf/14/../../../../arm-linux-gnueabihf/lib/libc.a(wcsrtombs.o)
 .ARM.attributes
                0x000024ab       0x35 /usr/lib/gcc-cross/arm-linux-gnueabihf/14/../../../../arm-linux-gnueabihf/lib/libc.a(wmemcpy.o)
 .ARM.attributes
                0x000024e0       0x35 /usr/lib/gcc-cross/arm-linux-gnueabihf/14/../../../../arm-linux-gnueabihf/lib/libc.a(wmemmove.o)
 .ARM.attributes
                0x00002515       0x35 /usr/lib/gcc-cross/arm-linux-gnueabihf/14/../../../../arm-linux-gnueabihf/lib/libc.a(wmempcpy.o)
 .ARM.attributes
                0x0000254a       0x35 /usr/lib/gcc-cross/arm-linux-gnueabihf/14/../../../../arm-linux-gnueabihf/lib/libc.a(gettimeofday.o)
 .ARM.attributes
                0x0000257f       0x35 /usr/lib/gcc-cross/arm-linux-gnueabihf/14/../../../../arm-linux-gnueabihf/lib/libc.a(clock_gettime.o)
 .ARM.attributes
                0x000025b4       0x35 /usr/lib/gcc-cross/arm-linux-gnueabihf/14/../../../../arm-linux-gnueabihf/lib/libc.a(_exit.o)
 .ARM.attributes
                0x000025e9       0x23 /usr/lib/gcc-cross/arm-linux-gnueabihf/14/../../../../arm-linux-gnueabihf/lib/libc.a(getpid.o)
 .ARM.attributes
                0x0000260c       0x35 /usr/lib/gcc-cross/arm-linux-gnueabihf/14/../../../../arm-linux-gnueabihf/lib/libc.a(spawn.o)
 .ARM.attributes
                0x00002641       0x35 /usr/lib/gcc-cross/arm-linux-gnueabihf/14/../../../../arm-linux-gnueabihf/lib/libc.a(spawnattr_destroy.o)
 .ARM.attributes
                0x00002676       0x35 /usr/lib/gcc-cross/arm-linux-gnueabihf/14/../../../../arm-linux-gnueabihf/lib/libc.a(spawnattr_init.o)
 .ARM.attributes
                0x000026ab       0x35 /usr/lib/gcc-cross/arm-linux-gnueabihf/14/../../../../arm-linux-gnueabihf/lib/libc.a(spawnattr_setdefault.o)
 .ARM.attributes
                0x000026e0       0x35 /usr/lib/gcc-cross/arm-linux-gnueabihf/14/../../../../arm-linux-gnueabihf/lib/libc.a(spawnattr_setflags.o)
 .ARM.attributes
                0x00002715       0x35 /usr/lib/gcc-cross/arm-linux-gnueabihf/14/../../../../arm-linux-gnueabihf/lib/libc.a(spawnattr_setsigmask.o)
 .ARM.attributes
                0x0000274a       0x35 /usr/lib/gcc-cross/arm-linux-gnueabihf/14/../../../../arm-linux-gnueabihf/lib/libc.a(spawni.o)
 .ARM.attributes
                0x0000277f       0x35 /usr/lib/gcc-cross/arm-linux-gnueabihf/14/../../../../arm-linux-gnueabihf/lib/libc.a(waitid.o)
 .ARM.attributes
                0x000027b4       0x35 /usr/lib/gcc-cross/arm-linux-gnueabihf/14/../../../../arm-linux-gnueabihf/lib/libc.a(waitpid.o)
 .ARM.attributes
                0x000027e9       0x35 /usr/lib/gcc-cross/arm-linux-gnueabihf/14/../../../../arm-linux-gnueabihf/lib/libc.a(environ.o)
 .ARM.attributes
                0x0000281e       0x23 /usr/lib/gcc-cross/arm-linux-gnueabihf/14/../../../../arm-linux-gnueabihf/lib/libc.a(chdir.o)
 .ARM.attributes
                0x00002841       0x35 /usr/lib/gcc-cross/arm-linux-gnueabihf/14/../../../../arm-linux-gnueabihf/lib/libc.a(close.o)
 .ARM.attributes
                0x00002876       0x35 /usr/lib/gcc-cross/arm-linux-gnueabihf/14/../../../../arm-linux-gnueabihf/lib/libc.a(dup2.o)
 .ARM.attributes
                0x000028ab       0x23 /usr/lib/gcc-cross/arm-linux-gnueabihf/14/../../../../arm-linux-gnueabihf/lib/libc.a(fchdir.o)
 .ARM.attributes
                0x000028ce       0x35 /usr/lib/gcc-cross/arm-linux-gnueabihf/14/../../../../arm-linux-gnueabihf/lib/libc.a(fcntl.o)
 .ARM.attributes
                0x00002903       0x35 /usr/lib/gcc-cross/arm-linux-gnueabihf/14/../../../../arm-linux-gnueabihf/lib/libc.a(fcntl64.o)
 .ARM.attributes
                0x00002938       0x35 /usr/lib/gcc-cross/arm-linux-gnueabihf/14/../../../../arm-linux-gnueabihf/lib/libc.a(fstat64.o)
 .ARM.attributes
                0x0000296d       0x35 /usr/lib/gcc-cross/arm-linux-gnueabihf/14/../../../../arm-linux-gnueabihf/lib/libc.a(fstatat64.o)
 .ARM.attributes
                0x000029a2       0x35 /usr/lib/gcc-cross/arm-linux-gnueabihf/14/../../../../arm-linux-gnueabihf/lib/libc.a(lseek64.o)
 .ARM.attributes
                0x000029d7       0x35 /usr/lib/gcc-cross/arm-linux-gnueabihf/14/../../../../arm-linux-gnueabihf/lib/libc.a(mkdir.o)
 .ARM.attributes
                0x00002a0c       0x35 /usr/lib/gcc-cross/arm-linux-gnueabihf/14/../../../../arm-linux-gnueabihf/lib/libc.a(open.o)
 .ARM.attributes
                0x00002a41       0x35 /usr/lib/gcc-cross/arm-linux-gnueabihf/14/../../../../arm-linux-gnueabihf/lib/libc.a(open64.o)
 .ARM.attributes
                0x00002a76       0x35 /usr/lib/gcc-cross/arm-linux-gnueabihf/14/../../../../arm-linux-gnueabihf/lib/libc.a(read.o)
 .ARM.attributes
                0x00002aab       0x35 /usr/lib/gcc-cross/arm-linux-gnueabihf/14/../../../../arm-linux-gnueabihf/lib/libc.a(rmdir.o)
 .ARM.attributes
                0x00002ae0       0x35 /usr/lib/gcc-cross/arm-linux-gnueabihf/14/../../../../arm-linux-gnueabihf/lib/libc.a(unlink.o)
 .ARM.attributes
                0x00002b15       0x35 /usr/lib/gcc-cross/arm-linux-gnueabihf/14/../../../../arm-linux-gnueabihf/lib/libc.a(write.o)
 .ARM.attributes
                0x00002b4a       0x35 /usr/lib/gcc-cross/arm-linux-gnueabihf/14/../../../../arm-linux-gnueabihf/lib/libc.a(close_nocancel.o)
 .ARM.attributes
                0x00002b7f       0x35 /usr/lib/gcc-cross/arm-linux-gnueabihf/14/../../../../arm-linux-gnueabihf/lib/libc.a(fcntl_nocancel.o)
 .ARM.attributes
                0x00002bb4       0x35 /usr/lib/gcc-cross/arm-linux-gnueabihf/14/../../../../arm-linux-gnueabihf/lib/libc.a(open_nocancel.o)
 .ARM.attributes
                0x00002be9       0x35 /usr/lib/gcc-cross/arm-linux-gnueabihf/14/../../../../arm-linux-gnueabihf/lib/libc.a(read_nocancel.o)
 .ARM.attributes
                0x00002c1e       0x35 /usr/lib/gcc-cross/arm-linux-gnueabihf/14/../../../../arm-linux-gnueabihf/lib/libc.a(stat_t64_cp.o)
 .ARM.attributes
                0x00002c53       0x35 /usr/lib/gcc-cross/arm-linux-gnueabihf/14/../../../../arm-linux-gnueabihf/lib/libc.a(write_nocancel.o)
 .ARM.attributes
                0x00002c88       0x35 /usr/lib/gcc-cross/arm-linux-gnueabihf/14/../../../../arm-linux-gnueabihf/lib/libc.a(tcsetattr.o)
 .ARM.attributes
                0x00002cbd       0x35 /usr/lib/gcc-cross/arm-linux-gnueabihf/14/../../../../arm-linux-gnueabihf/lib/libc.a(tcgetattr.o)
 .ARM.attributes
                0x00002cf2       0x35 /usr/lib/gcc-cross/arm-linux-gnueabihf/14/../../../../arm-linux-gnueabihf/lib/libc.a(tcsetpgrp.o)
 .ARM.attributes
                0x00002d27       0x35 /usr/lib/gcc-cross/arm-linux-gnueabihf/14/../../../../arm-linux-gnueabihf/lib/libc.a(getrlimit64.o)
 .ARM.attributes
                0x00002d5c       0x35 /usr/lib/gcc-cross/arm-linux-gnueabihf/14/../../../../arm-linux-gnueabihf/lib/libc.a(brk.o)
 .ARM.attributes
                0x00002d91       0x35 /usr/lib/gcc-cross/arm-linux-gnueabihf/14/../../../../arm-linux-gnueabihf/lib/libc.a(getpagesize.o)
 .ARM.attributes
                0x00002dc6       0x35 /usr/lib/gcc-cross/arm-linux-gnueabihf/14/../../../../arm-linux-gnueabihf/lib/libc.a(getsysstats.o)
 .ARM.attributes
                0x00002dfb       0x35 /usr/lib/gcc-cross/arm-linux-gnueabihf/14/../../../../arm-linux-gnueabihf/lib/libc.a(ioctl.o)
 .ARM.attributes
                0x00002e30       0x23 /usr/lib/gcc-cross/arm-linux-gnueabihf/14/../../../../arm-linux-gnueabihf/lib/libc.a(madvise.o)
 .ARM.attributes
                0x00002e53       0x35 /usr/lib/gcc-cross/arm-linux-gnueabihf/14/../../../../arm-linux-gnueabihf/lib/libc.a(mmap.o)
 .ARM.attributes
                0x00002e88       0x35 /usr/lib/gcc-cross/arm-linux-gnueabihf/14/../../../../arm-linux-gnueabihf/lib/libc.a(mmap64.o)
 .ARM.attributes
                0x00002ebd       0x23 /usr/lib/gcc-cross/arm-linux-gnueabihf/14/../../../../arm-linux-gnueabihf/lib/libc.a(mprotect.o)
 .ARM.attributes
                0x00002ee0       0x23 /usr/lib/gcc-cross/arm-linux-gnueabihf/14/../../../../arm-linux-gnueabihf/lib/libc.a(munmap.o)
 .ARM.attributes
                0x00002f03       0x35 /usr/lib/gcc-cross/arm-linux-gnueabihf/14/../../../../arm-linux-gnueabihf/lib/libc.a(sbrk.o)
 .ARM.attributes
                0x00002f38       0x35 /usr/lib/gcc-cross/arm-linux-gnueabihf/14/../../../../arm-linux-gnueabihf/lib/libc.a(single_threaded.o)
 .ARM.attributes
                0x00002f6d       0x35 /usr/lib/gcc-cross/arm-linux-gnueabihf/14/../../../../arm-linux-gnueabihf/lib/libc.a(usleep.o)
 .ARM.attributes
                0x00002fa2       0x35 /usr/lib/gcc-cross/arm-linux-gnueabihf/14/../../../../arm-linux-gnueabihf/lib/libc.a(clone-internal.o)
 .ARM.attributes
                0x00002fd7       0x35 /usr/lib/gcc-cross/arm-linux-gnueabihf/14/../../../../arm-linux-gnueabihf/lib/libc.a(clone-pidfd-support.o)
 .ARM.attributes
                0x0000300c       0x23 /usr/lib/gcc-cross/arm-linux-gnueabihf/14/../../../../arm-linux-gnueabihf/lib/libc.a(clone3.o)
 .ARM.attributes
                0x0000302f       0x35 /usr/lib/gcc-cross/arm-linux-gnueabihf/14/../../../../arm-linux-gnueabihf/lib/libc.a(closefrom_fallback.o)
 .ARM.attributes
                0x00003064       0x35 /usr/lib/gcc-cross/arm-linux-gnueabihf/14/../../../../arm-linux-gnueabihf/lib/libc.a(mremap.o)
 .ARM.attributes
                0x00003099       0x35 /usr/lib/gcc-cross/arm-linux-gnueabihf/14/../../../../arm-linux-gnueabihf/lib/libc.a(setvmaname.o)
 .ARM.attributes
                0x000030ce       0x23 /usr/lib/gcc-cross/arm-linux-gnueabihf/14/../../../../arm-linux-gnueabihf/lib/libc.a(sysinfo.o)
 .ARM.attributes
                0x000030f1       0x23 /usr/lib/gcc-cross/arm-linux-gnueabihf/14/../../../../arm-linux-gnueabihf/lib/libc.a(gettid.o)
 .ARM.attributes
                0x00003114       0x35 /usr/lib/gcc-cross/arm-linux-gnueabihf/14/../../../../arm-linux-gnueabihf/lib/libc.a(malloc-hugepages.o)
 .ARM.attributes
                0x00003149       0x35 /usr/lib/gcc-cross/arm-linux-gnueabihf/14/../../../../arm-linux-gnueabihf/lib/libc.a(wctrans.o)
 .ARM.attributes
                0x0000317e       0x35 /usr/lib/gcc-cross/arm-linux-gnueabihf/14/../../../../arm-linux-gnueabihf/lib/libc.a(towctrans.o)
 .ARM.attributes
                0x000031b3       0x35 /usr/lib/gcc-cross/arm-linux-gnueabihf/14/../../../../arm-linux-gnueabihf/lib/libc.a(chk_fail.o)
 .ARM.attributes
                0x000031e8       0x35 /usr/lib/gcc-cross/arm-linux-gnueabihf/14/../../../../arm-linux-gnueabihf/lib/libc.a(fortify_fail.o)
 .ARM.attributes
                0x0000321d       0x35 /usr/lib/gcc-cross/arm-linux-gnueabihf/14/../../../../arm-linux-gnueabihf/lib/libc.a(fprintf_chk.o)
 .ARM.attributes
                0x00003252       0x35 /usr/lib/gcc-cross/arm-linux-gnueabihf/14/../../../../arm-linux-gnueabihf/lib/libc.a(memcpy_chk.o)
 .ARM.attributes
                0x00003287       0x35 /usr/lib/gcc-cross/arm-linux-gnueabihf/14/../../../../arm-linux-gnueabihf/lib/libc.a(readonly-area.o)
 .ARM.attributes
                0x000032bc       0x35 /usr/lib/gcc-cross/arm-linux-gnueabihf/14/../../../../arm-linux-gnueabihf/lib/libc.a(stack_chk_fail.o)
 .ARM.attributes
                0x000032f1       0x35 /usr/lib/gcc-cross/arm-linux-gnueabihf/14/../../../../arm-linux-gnueabihf/lib/libc.a(dl-debug.o)
 .ARM.attributes
                0x00003326       0x23 /usr/lib/gcc-cross/arm-linux-gnueabihf/14/../../../../arm-linux-gnueabihf/lib/libc.a(dl-debug-symbols.o)
 .ARM.attributes
                0x00003349       0x35 /usr/lib/gcc-cross/arm-linux-gnueabihf/14/../../../../arm-linux-gnueabihf/lib/libc.a(dl-tls.o)
 .ARM.attributes
                0x0000337e       0x35 /usr/lib/gcc-cross/arm-linux-gnueabihf/14/../../../../arm-linux-gnueabihf/lib/libc.a(dl-tls_init_tp.o)
 .ARM.attributes
                0x000033b3       0x35 /usr/lib/gcc-cross/arm-linux-gnueabihf/14/../../../../arm-linux-gnueabihf/lib/libc.a(dl-tunables.o)
 .ARM.attributes
                0x000033e8       0x23 /usr/lib/gcc-cross/arm-linux-gnueabihf/14/../../../../arm-linux-gnueabihf/lib/libc.a(dl-rseq-symbols.o)
 .ARM.attributes
                0x0000340b       0x35 /usr/lib/gcc-cross/arm-linux-gnueabihf/14/../../../../arm-linux-gnueabihf/lib/libc.a(dl-early_allocate.o)
 .ARM.attributes
                0x00003440       0x35 /usr/lib/gcc-cross/arm-linux-gnueabihf/14/../../../../arm-linux-gnueabihf/lib/libc.a(dl-support.o)
 .ARM.attributes
                0x00003475       0x35 /usr/lib/gcc-cross/arm-linux-gnueabihf/14/../../../../arm-linux-gnueabihf/lib/libc.a(enbl-secure.o)
 .ARM.attributes
                0x000034aa       0x35 /usr/lib/gcc-cross/arm-linux-gnueabihf/14/../../../../arm-linux-gnueabihf/lib/libc.a(libc_early_init.o)
 .ARM.attributes
                0x000034df       0x35 /usr/lib/gcc-cross/arm-linux-gnueabihf/14/../../../../arm-linux-gnueabihf/lib/libc.a(check_fds.o)
 .ARM.attributes
                0x00003514       0x35 /usr/lib/gcc-cross/arm-linux-gnueabihf/14/../../../../arm-linux-gnueabihf/lib/libc.a(init-first.o)
 .ARM.attributes
                0x00003549       0x23 /usr/lib/gcc-cross/arm-linux-gnueabihf/14/../../../../arm-linux-gnueabihf/lib/libc.a(sysdep.o)
 .ARM.attributes
                0x0000356c       0x35 /usr/lib/gcc-cross/arm-linux-gnueabihf/14/../../../../arm-linux-gnueabihf/lib/libc.a(errno.o)
 .ARM.attributes
                0x000035a1       0x35 /usr/lib/gcc-cross/arm-linux-gnueabihf/14/../../../../arm-linux-gnueabihf/lib/libc.a(gconv_db.o)
 .ARM.attributes
                0x000035d6       0x35 /usr/lib/gcc-cross/arm-linux-gnueabihf/14/../../../../arm-linux-gnueabihf/lib/libc.a(gconv_conf.o)
 .ARM.attributes
                0x0000360b       0x35 /usr/lib/gcc-cross/arm-linux-gnueabihf/14/../../../../arm-linux-gnueabihf/lib/libc.a(gconv_builtin.o)
 .ARM.attributes
                0x00003640       0x35 /usr/lib/gcc-cross/arm-linux-gnueabihf/14/../../../../arm-linux-gnueabihf/lib/libc.a(gconv_simple.o)
 .ARM.attributes
                0x00003675       0x35 /usr/lib/gcc-cross/arm-linux-gnueabihf/14/../../../../arm-linux-gnueabihf/lib/libc.a(gconv_trans.o)
 .ARM.attributes
                0x000036aa       0x35 /usr/lib/gcc-cross/arm-linux-gnueabihf/14/../../../../arm-linux-gnueabihf/lib/libc.a(gconv_cache.o)
 .ARM.attributes
                0x000036df       0x35 /usr/lib/gcc-cross/arm-linux-gnueabihf/14/../../../../arm-linux-gnueabihf/lib/libc.a(gconv_dl.o)
 .ARM.attributes
                0x00003714       0x35 /usr/lib/gcc-cross/arm-linux-gnueabihf/14/../../../../arm-linux-gnueabihf/lib/libc.a(setlocale.o)
 .ARM.attributes
                0x00003749       0x35 /usr/lib/gcc-cross/arm-linux-gnueabihf/14/../../../../arm-linux-gnueabihf/lib/libc.a(lc-ctype.o)
 .ARM.attributes
                0x0000377e       0x35 /usr/lib/gcc-cross/arm-linux-gnueabihf/14/../../../../arm-linux-gnueabihf/lib/libc.a(lc-numeric.o)
 .ARM.attributes
                0x000037b3       0x35 /usr/lib/gcc-cross/arm-linux-gnueabihf/14/../../../../arm-linux-gnueabihf/lib/libc.a(C_name.o)
 .ARM.attributes
                0x000037e8       0x35 /usr/lib/gcc-cross/arm-linux-gnueabihf/14/../../../../arm-linux-gnueabihf/lib/libc.a(SYS_libc.o)
 .ARM.attributes
                0x0000381d       0x35 /usr/lib/gcc-cross/arm-linux-gnueabihf/14/../../../../arm-linux-gnueabihf/lib/libc.a(global-locale.o)
 .ARM.attributes
                0x00003852       0x35 /usr/lib/gcc-cross/arm-linux-gnueabihf/14/../../../../arm-linux-gnueabihf/lib/libc.a(xlocale.o)
 .ARM.attributes
                0x00003887       0x35 /usr/lib/gcc-cross/arm-linux-gnueabihf/14/../../../../arm-linux-gnueabihf/lib/libc.a(__libc_assert_fail.o)
 .ARM.attributes
                0x000038bc       0x35 /usr/lib/gcc-cross/arm-linux-gnueabihf/14/../../../../arm-linux-gnueabihf/lib/libc.a(dcgettext.o)
 .ARM.attributes
                0x000038f1       0x35 /usr/lib/gcc-cross/arm-linux-gnueabihf/14/../../../../arm-linux-gnueabihf/lib/libc.a(dcigettext.o)
 .ARM.attributes
                0x00003926       0x35 /usr/lib/gcc-cross/arm-linux-gnueabihf/14/../../../../arm-linux-gnueabihf/lib/libc.a(finddomain.o)
 .ARM.attributes
                0x0000395b       0x35 /usr/lib/gcc-cross/arm-linux-gnueabihf/14/../../../../arm-linux-gnueabihf/lib/libc.a(loadmsgcat.o)
 .ARM.attributes
                0x00003990       0x35 /usr/lib/gcc-cross/arm-linux-gnueabihf/14/../../../../arm-linux-gnueabihf/lib/libc.a(localealias.o)
 .ARM.attributes
                0x000039c5       0x35 /usr/lib/gcc-cross/arm-linux-gnueabihf/14/../../../../arm-linux-gnueabihf/lib/libc.a(l10nflist.o)
 .ARM.attributes
                0x000039fa       0x35 /usr/lib/gcc-cross/arm-linux-gnueabihf/14/../../../../arm-linux-gnueabihf/lib/libc.a(explodename.o)
 .ARM.attributes
                0x00003a2f       0x35 /usr/lib/gcc-cross/arm-linux-gnueabihf/14/../../../../arm-linux-gnueabihf/lib/libc.a(plural.o)
 .ARM.attributes
                0x00003a64       0x35 /usr/lib/gcc-cross/arm-linux-gnueabihf/14/../../../../arm-linux-gnueabihf/lib/libc.a(plural-exp.o)
 .ARM.attributes
                0x00003a99       0x35 /usr/lib/gcc-cross/arm-linux-gnueabihf/14/../../../../arm-linux-gnueabihf/lib/libc.a(hash-string.o)
 .ARM.attributes
                0x00003ace       0x23 /usr/lib/gcc-cross/arm-linux-gnueabihf/14/../../../../arm-linux-gnueabihf/lib/libc.a(setjmp.o)
 .ARM.attributes
                0x00003af1       0x35 /usr/lib/gcc-cross/arm-linux-gnueabihf/14/../../../../arm-linux-gnueabihf/lib/libc.a(sigjmp.o)
 .ARM.attributes
                0x00003b26       0x35 /usr/lib/gcc-cross/arm-linux-gnueabihf/14/../../../../arm-linux-gnueabihf/lib/libc.a(raise.o)
 .ARM.attributes
                0x00003b5b       0x35 /usr/lib/gcc-cross/arm-linux-gnueabihf/14/../../../../arm-linux-gnueabihf/lib/libc.a(sigaction.o)
 .ARM.attributes
                0x00003b90       0x35 /usr/lib/gcc-cross/arm-linux-gnueabihf/14/../../../../arm-linux-gnueabihf/lib/libc.a(libc_sigaction.o)
 .ARM.attributes
                0x00003bc5       0x35 /usr/lib/gcc-cross/arm-linux-gnueabihf/14/../../../../arm-linux-gnueabihf/lib/libc.a(sigprocmask.o)
 .ARM.attributes
                0x00003bfa       0x23 /usr/lib/gcc-cross/arm-linux-gnueabihf/14/../../../../arm-linux-gnueabihf/lib/libc.a(sigrestorer.o)
 .ARM.attributes
                0x00003c1d       0x35 /usr/lib/gcc-cross/arm-linux-gnueabihf/14/../../../../arm-linux-gnueabihf/lib/libc.a(getenv.o)
 .ARM.attributes
                0x00003c52       0x35 /usr/lib/gcc-cross/arm-linux-gnueabihf/14/../../../../arm-linux-gnueabihf/lib/libc.a(getrandom.o)
 .ARM.attributes
                0x00003c87       0x35 /usr/lib/gcc-cross/arm-linux-gnueabihf/14/../../../../arm-linux-gnueabihf/lib/libc.a(qsort.o)
 .ARM.attributes
                0x00003cbc       0x35 /usr/lib/gcc-cross/arm-linux-gnueabihf/14/../../../../arm-linux-gnueabihf/lib/libc.a(setenv.o)
 .ARM.attributes
                0x00003cf1       0x35 /usr/lib/gcc-cross/arm-linux-gnueabihf/14/../../../../arm-linux-gnueabihf/lib/libc.a(strtof.o)
 .ARM.attributes
                0x00003d26       0x35 /usr/lib/gcc-cross/arm-linux-gnueabihf/14/../../../../arm-linux-gnueabihf/lib/libc.a(strtof_l.o)
 .ARM.attributes
                0x00003d5b       0x35 /usr/lib/gcc-cross/arm-linux-gnueabihf/14/../../../../arm-linux-gnueabihf/lib/libc.a(strtof_nan.o)
 .ARM.attributes
                0x00003d90       0x35 /usr/lib/gcc-cross/arm-linux-gnueabihf/14/../../../../arm-linux-gnueabihf/lib/libc.a(strtold.o)
 .ARM.attributes
                0x00003dc5       0x35 /usr/lib/gcc-cross/arm-linux-gnueabihf/14/../../../../arm-linux-gnueabihf/lib/libc.a(strtold_l.o)
 .ARM.attributes
                0x00003dfa       0x35 /usr/lib/gcc-cross/arm-linux-gnueabihf/14/../../../../arm-linux-gnueabihf/lib/libc.a(strtoll.o)
 .ARM.attributes
                0x00003e2f       0x35 /usr/lib/gcc-cross/arm-linux-gnueabihf/14/../../../../arm-linux-gnueabihf/lib/libc.a(strtoll_l.o)
 .ARM.attributes
                0x00003e64       0x35 /usr/lib/gcc-cross/arm-linux-gnueabihf/14/../../../../arm-linux-gnueabihf/lib/libc.a(strtoul.o)
 .ARM.attributes
                0x00003e99       0x35 /usr/lib/gcc-cross/arm-linux-gnueabihf/14/../../../../arm-linux-gnueabihf/lib/libc.a(strtoul_l.o)
 .ARM.attributes
                0x00003ece       0x35 /usr/lib/gcc-cross/arm-linux-gnueabihf/14/../../../../arm-linux-gnueabihf/lib/libc.a(strtoull.o)
 .ARM.attributes
                0x00003f03       0x23 /usr/lib/gcc-cross/arm-linux-gnueabihf/14/../../../../arm-linux-gnueabihf/lib/libc.a(addmul_1.o)
 .ARM.attributes
                0x00003f26       0x35 /usr/lib/gcc-cross/arm-linux-gnueabihf/14/../../../../arm-linux-gnueabihf/lib/libc.a(mpn2flt.o)
 .ARM.attributes
                0x00003f5b       0x35 /usr/lib/gcc-cross/arm-linux-gnueabihf/14/../../../../arm-linux-gnueabihf/lib/libc.a(_itoa.o)
 .ARM.attributes
                0x00003f90       0x35 /usr/lib/gcc-cross/arm-linux-gnueabihf/14/../../../../arm-linux-gnueabihf/lib/libc.a(funlockfile.o)
 .ARM.attributes
                0x00003fc5       0x35 /usr/lib/gcc-cross/arm-linux-gnueabihf/14/../../../../arm-linux-gnueabihf/lib/libc.a(grouping_iterator.o)
 .ARM.attributes
                0x00003ffa       0x35 /usr/lib/gcc-cross/arm-linux-gnueabihf/14/../../../../arm-linux-gnueabihf/lib/libc.a(itoa-digits.o)
 .ARM.attributes
                0x0000402f       0x35 /usr/lib/gcc-cross/arm-linux-gnueabihf/14/../../../../arm-linux-gnueabihf/lib/libc.a(itoa-udigits.o)
 .ARM.attributes
                0x00004064       0x35 /usr/lib/gcc-cross/arm-linux-gnueabihf/14/../../../../arm-linux-gnueabihf/lib/libc.a(printf_buffer_done.o)
 .ARM.attributes
                0x00004099       0x35 /usr/lib/gcc-cross/arm-linux-gnueabihf/14/../../../../arm-linux-gnueabihf/lib/libc.a(printf_buffer_pad_1.o)
 .ARM.attributes
                0x000040ce       0x35 /usr/lib/gcc-cross/arm-linux-gnueabihf/14/../../../../arm-linux-gnueabihf/lib/libc.a(printf_buffer_putc_1.o)
 .ARM.attributes
                0x00004103       0x35 /usr/lib/gcc-cross/arm-linux-gnueabihf/14/../../../../arm-linux-gnueabihf/lib/libc.a(printf_buffer_puts_1.o)
 .ARM.attributes
                0x00004138       0x35 /usr/lib/gcc-cross/arm-linux-gnueabihf/14/../../../../arm-linux-gnueabihf/lib/libc.a(printf_buffer_to_file.o)
 .ARM.attributes
                0x0000416d       0x35 /usr/lib/gcc-cross/arm-linux-gnueabihf/14/../../../../arm-linux-gnueabihf/lib/libc.a(printf_buffer_write.o)
 .ARM.attributes
                0x000041a2       0x35 /usr/lib/gcc-cross/arm-linux-gnueabihf/14/../../../../arm-linux-gnueabihf/lib/libc.a(printf_fp.o)
 .ARM.attributes
                0x000041d7       0x35 /usr/lib/gcc-cross/arm-linux-gnueabihf/14/../../../../arm-linux-gnueabihf/lib/libc.a(printf_fphex.o)
 .ARM.attributes
                0x0000420c       0x35 /usr/lib/gcc-cross/arm-linux-gnueabihf/14/../../../../arm-linux-gnueabihf/lib/libc.a(printf_function_invoke.o)
 .ARM.attributes
                0x00004241       0x35 /usr/lib/gcc-cross/arm-linux-gnueabihf/14/../../../../arm-linux-gnueabihf/lib/libc.a(reg-modifier.o)
 .ARM.attributes
                0x00004276       0x35 /usr/lib/gcc-cross/arm-linux-gnueabihf/14/../../../../arm-linux-gnueabihf/lib/libc.a(reg-printf.o)
 .ARM.attributes
                0x000042ab       0x35 /usr/lib/gcc-cross/arm-linux-gnueabihf/14/../../../../arm-linux-gnueabihf/lib/libc.a(reg-type.o)
 .ARM.attributes
                0x000042e0       0x35 /usr/lib/gcc-cross/arm-linux-gnueabihf/14/../../../../arm-linux-gnueabihf/lib/libc.a(translated_number_width.o)
 .ARM.attributes
                0x00004315       0x35 /usr/lib/gcc-cross/arm-linux-gnueabihf/14/../../../../arm-linux-gnueabihf/lib/libc.a(wprintf_buffer_putc_1.o)
 .ARM.attributes
                0x0000434a       0x35 /usr/lib/gcc-cross/arm-linux-gnueabihf/14/../../../../arm-linux-gnueabihf/lib/libc.a(wprintf_buffer_to_file.o)
 .ARM.attributes
                0x0000437f       0x35 /usr/lib/gcc-cross/arm-linux-gnueabihf/14/../../../../arm-linux-gnueabihf/lib/libc.a(errlist.o)
 .ARM.attributes
                0x000043b4       0x35 /usr/lib/gcc-cross/arm-linux-gnueabihf/14/../../../../arm-linux-gnueabihf/lib/libc.a(errlist-data.o)
 .ARM.attributes
                0x000043e9       0x35 /usr/lib/gcc-cross/arm-linux-gnueabihf/14/../../../../arm-linux-gnueabihf/lib/libc.a(filedoalloc.o)
 .ARM.attributes
                0x0000441e       0x35 /usr/lib/gcc-cross/arm-linux-gnueabihf/14/../../../../arm-linux-gnueabihf/lib/libc.a(iofopen.o)
 .ARM.attributes
                0x00004453       0x35 /usr/lib/gcc-cross/arm-linux-gnueabihf/14/../../../../arm-linux-gnueabihf/lib/libc.a(iofputs.o)
 .ARM.attributes
                0x00004488       0x35 /usr/lib/gcc-cross/arm-linux-gnueabihf/14/../../../../arm-linux-gnueabihf/lib/libc.a(iogetdelim.o)
 .ARM.attributes
                0x000044bd       0x35 /usr/lib/gcc-cross/arm-linux-gnueabihf/14/../../../../arm-linux-gnueabihf/lib/libc.a(wfileops.o)
 .ARM.attributes
                0x000044f2       0x35 /usr/lib/gcc-cross/arm-linux-gnueabihf/14/../../../../arm-linux-gnueabihf/lib/libc.a(iofgets_u.o)
 .ARM.attributes
                0x00004527       0x35 /usr/lib/gcc-cross/arm-linux-gnueabihf/14/../../../../arm-linux-gnueabihf/lib/libc.a(alloca_cutoff.o)
 .ARM.attributes
                0x0000455c       0x35 /usr/lib/gcc-cross/arm-linux-gnueabihf/14/../../../../arm-linux-gnueabihf/lib/libc.a(cancellation.o)
 .ARM.attributes
                0x00004591       0x35 /usr/lib/gcc-cross/arm-linux-gnueabihf/14/../../../../arm-linux-gnueabihf/lib/libc.a(futex-internal.o)
 .ARM.attributes
                0x000045c6       0x35 /usr/lib/gcc-cross/arm-linux-gnueabihf/14/../../../../arm-linux-gnueabihf/lib/libc.a(pthread_mutex_conf.o)
 .ARM.attributes
                0x000045fb       0x35 /usr/lib/gcc-cross/arm-linux-gnueabihf/14/../../../../arm-linux-gnueabihf/lib/libc.a(pthread_mutex_lock.o)
 .ARM.attributes
                0x00004630       0x35 /usr/lib/gcc-cross/arm-linux-gnueabihf/14/../../../../arm-linux-gnueabihf/lib/libc.a(pthread_mutex_unlock.o)
 .ARM.attributes
                0x00004665       0x35 /usr/lib/gcc-cross/arm-linux-gnueabihf/14/../../../../arm-linux-gnueabihf/lib/libc.a(pthread_once.o)
 .ARM.attributes
                0x0000469a       0x35 /usr/lib/gcc-cross/arm-linux-gnueabihf/14/../../../../arm-linux-gnueabihf/lib/libc.a(pthread_self.o)
 .ARM.attributes
                0x000046cf       0x35 /usr/lib/gcc-cross/arm-linux-gnueabihf/14/../../../../arm-linux-gnueabihf/lib/libc.a(pthread_sigmask.o)
 .ARM.attributes
                0x00004704       0x23 /usr/lib/gcc-cross/arm-linux-gnueabihf/14/../../../../arm-linux-gnueabihf/lib/libc.a(syscall_cancel.o)
 .ARM.attributes
                0x00004727       0x35 /usr/lib/gcc-cross/arm-linux-gnueabihf/14/../../../../arm-linux-gnueabihf/lib/libc.a(tpp.o)
 .ARM.attributes
                0x0000475c       0x35 /usr/lib/gcc-cross/arm-linux-gnueabihf/14/../../../../arm-linux-gnueabihf/lib/libc.a(vars.o)
 .ARM.attributes
                0x00004791       0x35 /usr/lib/gcc-cross/arm-linux-gnueabihf/14/../../../../arm-linux-gnueabihf/lib/libc.a(argz-addsep.o)
 .ARM.attributes
                0x000047c6       0x35 /usr/lib/gcc-cross/arm-linux-gnueabihf/14/../../../../arm-linux-gnueabihf/lib/libc.a(argz-ctsep.o)
 .ARM.attributes
                0x000047fb       0x35 /usr/lib/gcc-cross/arm-linux-gnueabihf/14/../../../../arm-linux-gnueabihf/lib/libc.a(memchr.o)
 .ARM.attributes
                0x00004830       0x35 /usr/lib/gcc-cross/arm-linux-gnueabihf/14/../../../../arm-linux-gnueabihf/lib/libc.a(strcasecmp_l.o)
 .ARM.attributes
                0x00004865       0x23 /usr/lib/gcc-cross/arm-linux-gnueabihf/14/../../../../arm-linux-gnueabihf/lib/libc.a(strcpy.o)
 .ARM.attributes
                0x00004888       0x35 /usr/lib/gcc-cross/arm-linux-gnueabihf/14/../../../../arm-linux-gnueabihf/lib/libc.a(strcspn.o)
 .ARM.attributes
                0x000048bd       0x35 /usr/lib/gcc-cross/arm-linux-gnueabihf/14/../../../../arm-linux-gnueabihf/lib/libc.a(strtok_r.o)
 .ARM.attributes
                0x000048f2       0x25 /usr/lib/gcc-cross/arm-linux-gnueabihf/14/../../../../arm-linux-gnueabihf/lib/libc.a(memchr_neon.o)
 .ARM.attributes
                0x00004917       0x23 /usr/lib/gcc-cross/arm-linux-gnueabihf/14/../../../../arm-linux-gnueabihf/lib/libc.a(memchr_noneon.o)
 .ARM.attributes
                0x0000493a       0x35 /usr/lib/gcc-cross/arm-linux-gnueabihf/14/../../../../arm-linux-gnueabihf/lib/libc.a(wcslen.o)
 .ARM.attributes
                0x0000496f       0x35 /usr/lib/gcc-cross/arm-linux-gnueabihf/14/../../../../arm-linux-gnueabihf/lib/libc.a(wcsnlen.o)
 .ARM.attributes
                0x000049a4       0x35 /usr/lib/gcc-cross/arm-linux-gnueabihf/14/../../../../arm-linux-gnueabihf/lib/libc.a(wmemchr.o)
 .ARM.attributes
                0x000049d9       0x35 /usr/lib/gcc-cross/arm-linux-gnueabihf/14/../../../../arm-linux-gnueabihf/lib/libc.a(closedir.o)
 .ARM.attributes
                0x00004a0e       0x35 /usr/lib/gcc-cross/arm-linux-gnueabihf/14/../../../../arm-linux-gnueabihf/lib/libc.a(getdents64.o)
 .ARM.attributes
                0x00004a43       0x35 /usr/lib/gcc-cross/arm-linux-gnueabihf/14/../../../../arm-linux-gnueabihf/lib/libc.a(opendir.o)
 .ARM.attributes
                0x00004a78       0x35 /usr/lib/gcc-cross/arm-linux-gnueabihf/14/../../../../arm-linux-gnueabihf/lib/libc.a(readdir64.o)
 .ARM.attributes
                0x00004aad       0x23 /usr/lib/gcc-cross/arm-linux-gnueabihf/14/../../../../arm-linux-gnueabihf/lib/libc.a(execve.o)
 .ARM.attributes
                0x00004ad0       0x35 /usr/lib/gcc-cross/arm-linux-gnueabihf/14/../../../../arm-linux-gnueabihf/lib/libc.a(execvpe.o)
 .ARM.attributes
                0x00004b05       0x23 /usr/lib/gcc-cross/arm-linux-gnueabihf/14/../../../../arm-linux-gnueabihf/lib/libc.a(getgid.o)
 .ARM.attributes
                0x00004b28       0x23 /usr/lib/gcc-cross/arm-linux-gnueabihf/14/../../../../arm-linux-gnueabihf/lib/libc.a(getpgid.o)
 .ARM.attributes
                0x00004b4b       0x23 /usr/lib/gcc-cross/arm-linux-gnueabihf/14/../../../../arm-linux-gnueabihf/lib/libc.a(getuid.o)
 .ARM.attributes
                0x00004b6e       0x35 /usr/lib/gcc-cross/arm-linux-gnueabihf/14/../../../../arm-linux-gnueabihf/lib/libc.a(nanosleep.o)
 .ARM.attributes
                0x00004ba3       0x35 /usr/lib/gcc-cross/arm-linux-gnueabihf/14/../../../../arm-linux-gnueabihf/lib/libc.a(sched_cpucount.o)
 .ARM.attributes
                0x00004bd8       0x23 /usr/lib/gcc-cross/arm-linux-gnueabihf/14/../../../../arm-linux-gnueabihf/lib/libc.a(sched_getp.o)
 .ARM.attributes
                0x00004bfb       0x23 /usr/lib/gcc-cross/arm-linux-gnueabihf/14/../../../../arm-linux-gnueabihf/lib/libc.a(sched_gets.o)
 .ARM.attributes
                0x00004c1e       0x23 /usr/lib/gcc-cross/arm-linux-gnueabihf/14/../../../../arm-linux-gnueabihf/lib/libc.a(sched_primax.o)
 .ARM.attributes
                0x00004c41       0x23 /usr/lib/gcc-cross/arm-linux-gnueabihf/14/../../../../arm-linux-gnueabihf/lib/libc.a(sched_primin.o)
 .ARM.attributes
                0x00004c64       0x23 /usr/lib/gcc-cross/arm-linux-gnueabihf/14/../../../../arm-linux-gnueabihf/lib/libc.a(sched_setp.o)
 .ARM.attributes
                0x00004c87       0x23 /usr/lib/gcc-cross/arm-linux-gnueabihf/14/../../../../arm-linux-gnueabihf/lib/libc.a(sched_sets.o)
 .ARM.attributes
                0x00004caa       0x23 /usr/lib/gcc-cross/arm-linux-gnueabihf/14/../../../../arm-linux-gnueabihf/lib/libc.a(setpgid.o)
 .ARM.attributes
                0x00004ccd       0x23 /usr/lib/gcc-cross/arm-linux-gnueabihf/14/../../../../arm-linux-gnueabihf/lib/libc.a(setsid.o)
 .ARM.attributes
                0x00004cf0       0x35 /usr/lib/gcc-cross/arm-linux-gnueabihf/14/../../../../arm-linux-gnueabihf/lib/libc.a(wait4.o)
 .ARM.attributes
                0x00004d25       0x35 /usr/lib/gcc-cross/arm-linux-gnueabihf/14/../../../../arm-linux-gnueabihf/lib/libc.a(getcwd.o)
 .ARM.attributes
                0x00004d5a       0x35 /usr/lib/gcc-cross/arm-linux-gnueabihf/14/../../../../arm-linux-gnueabihf/lib/libc.a(isatty.o)
 .ARM.attributes
                0x00004d8f       0x35 /usr/lib/gcc-cross/arm-linux-gnueabihf/14/../../../../arm-linux-gnueabihf/lib/libc.a(lseek.o)
 .ARM.attributes
                0x00004dc4       0x35 /usr/lib/gcc-cross/arm-linux-gnueabihf/14/../../../../arm-linux-gnueabihf/lib/libc.a(lstat64.o)
 .ARM.attributes
                0x00004df9       0x35 /usr/lib/gcc-cross/arm-linux-gnueabihf/14/../../../../arm-linux-gnueabihf/lib/libc.a(openat64.o)
 .ARM.attributes
                0x00004e2e       0x35 /usr/lib/gcc-cross/arm-linux-gnueabihf/14/../../../../arm-linux-gnueabihf/lib/libc.a(open64_nocancel.o)
 .ARM.attributes
                0x00004e63       0x35 /usr/lib/gcc-cross/arm-linux-gnueabihf/14/../../../../arm-linux-gnueabihf/lib/libc.a(openat_nocancel.o)
 .ARM.attributes
                0x00004e98       0x35 /usr/lib/gcc-cross/arm-linux-gnueabihf/14/../../../../arm-linux-gnueabihf/lib/libc.a(pread64_nocancel.o)
 .ARM.attributes
                0x00004ecd       0x35 /usr/lib/gcc-cross/arm-linux-gnueabihf/14/../../../../arm-linux-gnueabihf/lib/libc.a(getrlimit.o)
 .ARM.attributes
                0x00004f02       0x35 /usr/lib/gcc-cross/arm-linux-gnueabihf/14/../../../../arm-linux-gnueabihf/lib/libc.a(tsearch.o)
 .ARM.attributes
                0x00004f37       0x35 /usr/lib/gcc-cross/arm-linux-gnueabihf/14/../../../../arm-linux-gnueabihf/lib/libc.a(init-misc.o)
 .ARM.attributes
                0x00004f6c       0x23 /usr/lib/gcc-cross/arm-linux-gnueabihf/14/../../../../arm-linux-gnueabihf/lib/libc.a(clone.o)
 .ARM.attributes
                0x00004f8f       0x35 /usr/lib/gcc-cross/arm-linux-gnueabihf/14/../../../../arm-linux-gnueabihf/lib/libc.a(asprintf_chk.o)
 .ARM.attributes
                0x00004fc4       0x35 /usr/lib/gcc-cross/arm-linux-gnueabihf/14/../../../../arm-linux-gnueabihf/lib/libc.a(memmove_chk.o)
 .ARM.attributes
                0x00004ff9       0x35 /usr/lib/gcc-cross/arm-linux-gnueabihf/14/../../../../arm-linux-gnueabihf/lib/libc.a(dl-catch.o)
 .ARM.attributes
                0x0000502e       0x35 /usr/lib/gcc-cross/arm-linux-gnueabihf/14/../../../../arm-linux-gnueabihf/lib/libc.a(dl-exception.o)
 .ARM.attributes
                0x00005063       0x35 /usr/lib/gcc-cross/arm-linux-gnueabihf/14/../../../../arm-linux-gnueabihf/lib/libc.a(dl-execstack-tunable.o)
 .ARM.attributes
                0x00005098       0x35 /usr/lib/gcc-cross/arm-linux-gnueabihf/14/../../../../arm-linux-gnueabihf/lib/libc.a(dl-load.o)
 .ARM.attributes
                0x000050cd       0x35 /usr/lib/gcc-cross/arm-linux-gnueabihf/14/../../../../arm-linux-gnueabihf/lib/libc.a(dl-lookup.o)
 .ARM.attributes
                0x00005102       0x35 /usr/lib/gcc-cross/arm-linux-gnueabihf/14/../../../../arm-linux-gnueabihf/lib/libc.a(dl-misc.o)
 .ARM.attributes
                0x00005137       0x35 /usr/lib/gcc-cross/arm-linux-gnueabihf/14/../../../../arm-linux-gnueabihf/lib/libc.a(dl-object.o)
 .ARM.attributes
                0x0000516c       0x35 /usr/lib/gcc-cross/arm-linux-gnueabihf/14/../../../../arm-linux-gnueabihf/lib/libc.a(dl-origin.o)
 .ARM.attributes
                0x000051a1       0x35 /usr/lib/gcc-cross/arm-linux-gnueabihf/14/../../../../arm-linux-gnueabihf/lib/libc.a(dl-printf.o)
 .ARM.attributes
                0x000051d6       0x35 /usr/lib/gcc-cross/arm-linux-gnueabihf/14/../../../../arm-linux-gnueabihf/lib/libc.a(dl-reloc.o)
 .ARM.attributes
                0x0000520b       0x35 /usr/lib/gcc-cross/arm-linux-gnueabihf/14/../../../../arm-linux-gnueabihf/lib/libc.a(dl-scope.o)
 .ARM.attributes
                0x00005240       0x35 /usr/lib/gcc-cross/arm-linux-gnueabihf/14/../../../../arm-linux-gnueabihf/lib/libc.a(dl-setup_hash.o)
 .ARM.attributes
                0x00005275       0x35 /usr/lib/gcc-cross/arm-linux-gnueabihf/14/../../../../arm-linux-gnueabihf/lib/libc.a(dl-thread_gscope_wait.o)
 .ARM.attributes
                0x000052aa       0x23 /usr/lib/gcc-cross/arm-linux-gnueabihf/14/../../../../arm-linux-gnueabihf/lib/libc.a(dl-trampoline.o)
 .ARM.attributes
                0x000052cd       0x35 /usr/lib/gcc-cross/arm-linux-gnueabihf/14/../../../../arm-linux-gnueabihf/lib/libc.a(dl-cache.o)
 .ARM.attributes
                0x00005302       0x23 /usr/lib/gcc-cross/arm-linux-gnueabihf/14/../../../../arm-linux-gnueabihf/lib/libc.a(dl-tlsdesc.o)
 .ARM.attributes
                0x00005325       0x35 /usr/lib/gcc-cross/arm-linux-gnueabihf/14/../../../../arm-linux-gnueabihf/lib/libc.a(dl-libc.o)
 .ARM.attributes
                0x0000535a       0x35 /usr/lib/gcc-cross/arm-linux-gnueabihf/14/../../../../arm-linux-gnueabihf/lib/libc.a(gconv_open.o)
 .ARM.attributes
                0x0000538f       0x35 /usr/lib/gcc-cross/arm-linux-gnueabihf/14/../../../../arm-linux-gnueabihf/lib/libc.a(gconv.o)
 .ARM.attributes
                0x000053c4       0x35 /usr/lib/gcc-cross/arm-linux-gnueabihf/14/../../../../arm-linux-gnueabihf/lib/libc.a(gconv_close.o)
 .ARM.attributes
                0x000053f9       0x35 /usr/lib/gcc-cross/arm-linux-gnueabihf/14/../../../../arm-linux-gnueabihf/lib/libc.a(gconv_charset.o)
 .ARM.attributes
                0x0000542e       0x35 /usr/lib/gcc-cross/arm-linux-gnueabihf/14/../../../../arm-linux-gnueabihf/lib/libc.a(findlocale.o)
 .ARM.attributes
                0x00005463       0x35 /usr/lib/gcc-cross/arm-linux-gnueabihf/14/../../../../arm-linux-gnueabihf/lib/libc.a(loadarchive.o)
 .ARM.attributes
                0x00005498       0x35 /usr/lib/gcc-cross/arm-linux-gnueabihf/14/../../../../arm-linux-gnueabihf/lib/libc.a(loadlocale.o)
 .ARM.attributes
                0x000054cd       0x35 /usr/lib/gcc-cross/arm-linux-gnueabihf/14/../../../../arm-linux-gnueabihf/lib/libc.a(C-address.o)
 .ARM.attributes
                0x00005502       0x35 /usr/lib/gcc-cross/arm-linux-gnueabihf/14/../../../../arm-linux-gnueabihf/lib/libc.a(C-collate.o)
 .ARM.attributes
                0x00005537       0x35 /usr/lib/gcc-cross/arm-linux-gnueabihf/14/../../../../arm-linux-gnueabihf/lib/libc.a(C-ctype.o)
 .ARM.attributes
                0x0000556c       0x35 /usr/lib/gcc-cross/arm-linux-gnueabihf/14/../../../../arm-linux-gnueabihf/lib/libc.a(C-identification.o)
 .ARM.attributes
                0x000055a1       0x35 /usr/lib/gcc-cross/arm-linux-gnueabihf/14/../../../../arm-linux-gnueabihf/lib/libc.a(C-measurement.o)
 .ARM.attributes
                0x000055d6       0x35 /usr/lib/gcc-cross/arm-linux-gnueabihf/14/../../../../arm-linux-gnueabihf/lib/libc.a(C-messages.o)
 .ARM.attributes
                0x0000560b       0x35 /usr/lib/gcc-cross/arm-linux-gnueabihf/14/../../../../arm-linux-gnueabihf/lib/libc.a(C-monetary.o)
 .ARM.attributes
                0x00005640       0x35 /usr/lib/gcc-cross/arm-linux-gnueabihf/14/../../../../arm-linux-gnueabihf/lib/libc.a(C-name.o)
 .ARM.attributes
                0x00005675       0x35 /usr/lib/gcc-cross/arm-linux-gnueabihf/14/../../../../arm-linux-gnueabihf/lib/libc.a(C-numeric.o)
 .ARM.attributes
                0x000056aa       0x35 /usr/lib/gcc-cross/arm-linux-gnueabihf/14/../../../../arm-linux-gnueabihf/lib/libc.a(C-paper.o)
 .ARM.attributes
                0x000056df       0x35 /usr/lib/gcc-cross/arm-linux-gnueabihf/14/../../../../arm-linux-gnueabihf/lib/libc.a(C-telephone.o)
 .ARM.attributes
                0x00005714       0x35 /usr/lib/gcc-cross/arm-linux-gnueabihf/14/../../../../arm-linux-gnueabihf/lib/libc.a(C-time.o)
 .ARM.attributes
                0x00005749       0x35 /usr/lib/gcc-cross/arm-linux-gnueabihf/14/../../../../arm-linux-gnueabihf/lib/libc.a(localename.o)
 .ARM.attributes
                0x0000577e       0x23 /usr/lib/gcc-cross/arm-linux-gnueabihf/14/../../../../arm-linux-gnueabihf/lib/libc.a(__longjmp.o)
 .ARM.attributes
                0x000057a1       0x35 /usr/lib/gcc-cross/arm-linux-gnueabihf/14/../../../../arm-linux-gnueabihf/lib/libc.a(divrem.o)
 .ARM.attributes
                0x000057d6       0x35 /usr/lib/gcc-cross/arm-linux-gnueabihf/14/../../../../arm-linux-gnueabihf/lib/libc.a(dbl2mpn.o)
 .ARM.attributes
                0x0000580b       0x35 /usr/lib/gcc-cross/arm-linux-gnueabihf/14/../../../../arm-linux-gnueabihf/lib/libc.a(printf_buffer_as_file.o)
 .ARM.attributes
                0x00005840       0x35 /usr/lib/gcc-cross/arm-linux-gnueabihf/14/../../../../arm-linux-gnueabihf/lib/libc.a(printf_buffer_flush.o)
 .ARM.attributes
                0x00005875       0x35 /usr/lib/gcc-cross/arm-linux-gnueabihf/14/../../../../arm-linux-gnueabihf/lib/libc.a(wprintf_buffer_done.o)
 .ARM.attributes
                0x000058aa       0x35 /usr/lib/gcc-cross/arm-linux-gnueabihf/14/../../../../arm-linux-gnueabihf/lib/libc.a(wprintf_buffer_flush.o)
 .ARM.attributes
                0x000058df       0x35 /usr/lib/gcc-cross/arm-linux-gnueabihf/14/../../../../arm-linux-gnueabihf/lib/libc.a(iogetline.o)
 .ARM.attributes
                0x00005914       0x35 /usr/lib/gcc-cross/arm-linux-gnueabihf/14/../../../../arm-linux-gnueabihf/lib/libc.a(vasprintf.o)
 .ARM.attributes
                0x00005949       0x35 /usr/lib/gcc-cross/arm-linux-gnueabihf/14/../../../../arm-linux-gnueabihf/lib/libc.a(cleanup_compat.o)
 .ARM.attributes
                0x0000597e       0x35 /usr/lib/gcc-cross/arm-linux-gnueabihf/14/../../../../arm-linux-gnueabihf/lib/libc.a(nptl-stack.o)
 .ARM.attributes
                0x000059b3       0x35 /usr/lib/gcc-cross/arm-linux-gnueabihf/14/../../../../arm-linux-gnueabihf/lib/libc.a(memmem.o)
 .ARM.attributes
                0x000059e8       0x35 /usr/lib/gcc-cross/arm-linux-gnueabihf/14/../../../../arm-linux-gnueabihf/lib/libc.a(strndup.o)
 .ARM.attributes
                0x00005a1d       0x35 /usr/lib/gcc-cross/arm-linux-gnueabihf/14/../../../../arm-linux-gnueabihf/lib/libc.a(strsep.o)
 .ARM.attributes
                0x00005a52       0x35 /usr/lib/gcc-cross/arm-linux-gnueabihf/14/../../../../arm-linux-gnueabihf/lib/libc.a(strspn.o)
 .ARM.attributes
                0x00005a87       0x35 /usr/lib/gcc-cross/arm-linux-gnueabihf/14/../../../../arm-linux-gnueabihf/lib/libc.a(clock_nanosleep.o)
 .ARM.attributes
                0x00005abc       0x35 /usr/lib/gcc-cross/arm-linux-gnueabihf/14/../../../../arm-linux-gnueabihf/lib/libc.a(lc-time-cleanup.o)
 .ARM.attributes
                0x00005af1       0x35 /usr/lib/gcc-cross/arm-linux-gnueabihf/14/../../../../arm-linux-gnueabihf/lib/libc.a(fdopendir.o)
 .ARM.attributes
                0x00005b26       0x35 /usr/lib/gcc-cross/arm-linux-gnueabihf/14/../../../../arm-linux-gnueabihf/lib/libc.a(rewinddir.o)
 .ARM.attributes
                0x00005b5b       0x35 /usr/lib/gcc-cross/arm-linux-gnueabihf/14/../../../../arm-linux-gnueabihf/lib/libc.a(sysconf.o)
 .ARM.attributes
                0x00005b90       0x35 /usr/lib/gcc-cross/arm-linux-gnueabihf/14/../../../../arm-linux-gnueabihf/lib/libc.a(stat64.o)
 .ARM.attributes
                0x00005bc5       0x35 /usr/lib/gcc-cross/arm-linux-gnueabihf/14/../../../../arm-linux-gnueabihf/lib/libc.a(getclktck.o)
 .ARM.attributes
                0x00005bfa       0x35 /usr/lib/gcc-cross/arm-linux-gnueabihf/14/../../../../arm-linux-gnueabihf/lib/libc.a(getdtsz.o)
 .ARM.attributes
                0x00005c2f       0x35 /usr/lib/gcc-cross/arm-linux-gnueabihf/14/../../../../arm-linux-gnueabihf/lib/libc.a(dl-close.o)
 .ARM.attributes
                0x00005c64       0x35 /usr/lib/gcc-cross/arm-linux-gnueabihf/14/../../../../arm-linux-gnueabihf/lib/libc.a(dl-execstack.o)
 .ARM.attributes
                0x00005c99       0x35 /usr/lib/gcc-cross/arm-linux-gnueabihf/14/../../../../arm-linux-gnueabihf/lib/libc.a(dl-open.o)
 .ARM.attributes
                0x00005cce       0x35 /usr/lib/gcc-cross/arm-linux-gnueabihf/14/../../../../arm-linux-gnueabihf/lib/libc.a(dl-runtime.o)
 .ARM.attributes
                0x00005d03       0x35 /usr/lib/gcc-cross/arm-linux-gnueabihf/14/../../../../arm-linux-gnueabihf/lib/libc.a(dl-sort-maps.o)
 .ARM.attributes
                0x00005d38       0x35 /usr/lib/gcc-cross/arm-linux-gnueabihf/14/../../../../arm-linux-gnueabihf/lib/libc.a(dl-version.o)
 .ARM.attributes
                0x00005d6d       0x35 /usr/lib/gcc-cross/arm-linux-gnueabihf/14/../../../../arm-linux-gnueabihf/lib/libc.a(tlsdesc.o)
 .ARM.attributes
                0x00005da2       0x35 /usr/lib/gcc-cross/arm-linux-gnueabihf/14/../../../../arm-linux-gnueabihf/lib/libc.a(dl-addr-obj.o)
 .ARM.attributes
                0x00005dd7       0x35 /usr/lib/gcc-cross/arm-linux-gnueabihf/14/../../../../arm-linux-gnueabihf/lib/libc.a(dl-find_object.o)
 .ARM.attributes
                0x00005e0c       0x35 /usr/lib/gcc-cross/arm-linux-gnueabihf/14/../../../../arm-linux-gnueabihf/lib/libc.a(rtld_static_init.o)
 .ARM.attributes
                0x00005e41       0x35 /usr/lib/gcc-cross/arm-linux-gnueabihf/14/../../../../arm-linux-gnueabihf/lib/libc.a(dladdr.o)
 .ARM.attributes
                0x00005e76       0x35 /usr/lib/gcc-cross/arm-linux-gnueabihf/14/../../../../arm-linux-gnueabihf/lib/libc.a(dladdr1.o)
 .ARM.attributes
                0x00005eab       0x35 /usr/lib/gcc-cross/arm-linux-gnueabihf/14/../../../../arm-linux-gnueabihf/lib/libc.a(dlclose.o)
 .ARM.attributes
                0x00005ee0       0x35 /usr/lib/gcc-cross/arm-linux-gnueabihf/14/../../../../arm-linux-gnueabihf/lib/libc.a(dlerror.o)
 .ARM.attributes
                0x00005f15       0x35 /usr/lib/gcc-cross/arm-linux-gnueabihf/14/../../../../arm-linux-gnueabihf/lib/libc.a(dlinfo.o)
 .ARM.attributes
                0x00005f4a       0x35 /usr/lib/gcc-cross/arm-linux-gnueabihf/14/../../../../arm-linux-gnueabihf/lib/libc.a(dlmopen.o)
 .ARM.attributes
                0x00005f7f       0x35 /usr/lib/gcc-cross/arm-linux-gnueabihf/14/../../../../arm-linux-gnueabihf/lib/libc.a(dlopen.o)
 .ARM.attributes
                0x00005fb4       0x35 /usr/lib/gcc-cross/arm-linux-gnueabihf/14/../../../../arm-linux-gnueabihf/lib/libc.a(dlsym.o)
 .ARM.attributes
                0x00005fe9       0x35 /usr/lib/gcc-cross/arm-linux-gnueabihf/14/../../../../arm-linux-gnueabihf/lib/libc.a(dlvsym.o)
 .ARM.attributes
                0x0000601e       0x35 /usr/lib/gcc-cross/arm-linux-gnueabihf/14/../../../../arm-linux-gnueabihf/lib/libc.a(libc_dlerror_result.o)
 .ARM.attributes
                0x00006053       0x35 /usr/lib/gcc-cross/arm-linux-gnueabihf/14/../../../../arm-linux-gnueabihf/lib/libc.a(get_child_max.o)
 .ARM.attributes
                0x00006088       0x35 /usr/lib/gcc-cross/arm-linux-gnueabihf/14/../../../../arm-linux-gnueabihf/lib/libc.a(atomic_wide_counter.o)
 .ARM.attributes
                0x000060bd       0x35 /usr/lib/gcc-cross/arm-linux-gnueabihf/14/../../../../arm-linux-gnueabihf/lib/libc.a(dl-call-libc-early-init.o)
 .ARM.attributes
                0x000060f2       0x35 /usr/lib/gcc-cross/arm-linux-gnueabihf/14/../../../../arm-linux-gnueabihf/lib/libc.a(dl-call_fini.o)
 .ARM.attributes
                0x00006127       0x35 /usr/lib/gcc-cross/arm-linux-gnueabihf/14/../../../../arm-linux-gnueabihf/lib/libc.a(dl-deps.o)
 .ARM.attributes
                0x0000615c       0x35 /usr/lib/gcc-cross/arm-linux-gnueabihf/14/../../../../arm-linux-gnueabihf/lib/libc.a(dl-init.o)
 .ARM.attributes
                0x00006191       0x35 /usr/lib/gcc-cross/arm-linux-gnueabihf/14/../../../../arm-linux-gnueabihf/lib/libc.a(dl-lookup-direct.o)
 .ARM.attributes
                0x000061c6       0x35 /usr/lib/gcc-cross/arm-linux-gnueabihf/14/../../../../arm-linux-gnueabihf/lib/libc.a(dl-addr.o)
 .ARM.attributes
                0x000061fb       0x35 /usr/lib/gcc-cross/arm-linux-gnueabihf/14/../../../../arm-linux-gnueabihf/lib/libc.a(dl-sym.o)
 .ARM.attributes
                0x00006230       0x35 /usr/lib/gcc-cross/arm-linux-gnueabihf/14/../../../../arm-linux-gnueabihf/lib/libc.a(asprintf.o)
 .ARM.attributes
                0x00006265       0x21 /usr/lib/gcc-cross/arm-linux-gnueabihf/14/libgcc.a(_udivsi3.o)
 .ARM.attributes
                0x00006286       0x21 /usr/lib/gcc-cross/arm-linux-gnueabihf/14/libgcc.a(_divsi3.o)
 .ARM.attributes
                0x000062a7       0x21 /usr/lib/gcc-cross/arm-linux-gnueabihf/14/libgcc.a(_aeabi_ldivmod.o)
 .ARM.attributes
                0x000062c8       0x21 /usr/lib/gcc-cross/arm-linux-gnueabihf/14/libgcc.a(_dvmd_lnx.o)
 .ARM.attributes
                0x000062e9       0x33 /usr/lib/gcc-cross/arm-linux-gnueabihf/14/libgcc.a(_udivmoddi4.o)
 .ARM.attributes
                0x0000631c       0x33 /usr/lib/gcc-cross/arm-linux-gnueabihf/14/libgcc_eh.a(unwind-arm.o)
 .ARM.attributes
                0x0000634f       0x21 /usr/lib/gcc-cross/arm-linux-gnueabihf/14/libgcc_eh.a(libunwind.o)
 .ARM.attributes
                0x00006370       0x33 /usr/lib/gcc-cross/arm-linux-gnueabihf/14/libgcc_eh.a(pr-support.o)
 .ARM.attributes
                0x000063a3       0x33 /usr/lib/gcc-cross/arm-linux-gnueabihf/14/libgcc_eh.a(unwind-c.o)
 .ARM.attributes
                0x000063d6       0x33 /usr/lib/gcc-cross/arm-linux-gnueabihf/14/crtend.o
 .ARM.attributes
                0x00006409       0x23 /usr/lib/gcc-cross/arm-linux-gnueabihf/14/../../../../arm-linux-gnueabihf/lib/crtn.o

.gnu.build.attributes
 *(.gnu.build.attributes .gnu.build.attributes.*)

.debug
 *(.debug)

.line
 *(.line)

.debug_srcinfo
 *(.debug_srcinfo)

.debug_sfnames
 *(.debug_sfnames)

.debug_aranges
 *(.debug_aranges)

.debug_pubnames
 *(.debug_pubnames)

.debug_info
 *(.debug_info .gnu.linkonce.wi.*)

.debug_abbrev
 *(.debug_abbrev)

.debug_line
 *(.debug_line .debug_line.* .debug_line_end)

.debug_frame
 *(.debug_frame)

.debug_str
 *(.debug_str)

.debug_loc
 *(.debug_loc)

.debug_macinfo
 *(.debug_macinfo)

.debug_weaknames
 *(.debug_weaknames)

.debug_funcnames
 *(.debug_funcnames)

.debug_typenames
 *(.debug_typenames)

.debug_varnames
 *(.debug_varnames)

.debug_pubtypes
 *(.debug_pubtypes)

.debug_ranges
 *(.debug_ranges)

.debug_addr
 *(.debug_addr)

.debug_line_str
 *(.debug_line_str)

.debug_loclists
 *(.debug_loclists)

.debug_macro
 *(.debug_macro)

.debug_names
 *(.debug_names)

.debug_rnglists
 *(.debug_rnglists)

.debug_str_offsets
 *(.debug_str_offsets)

.debug_sup
 *(.debug_sup)

.gnu.attributes
 *(.gnu.attributes)

.note.gnu.arm.ident
 *(.note.gnu.arm.ident)

/DISCARD/
 *(.note.GNU-stack)
 *(.gnu_debuglink)
 *(.gnu.lto_*)
 *(.gnu_object_only)
OUTPUT(fbdoom elf32-littlearm)
LOAD linker stubs
